	.text
	.file	"out.cpp"
	.section	.rodata.cst16,"aM",@progbits,16
	.p2align	4               # -- Begin function _ZN7VSimTop17_sequent__TOP__56EP13VSimTop__Syms
.LCPI0_0:
	.zero	16,1
.LCPI0_1:
	.quad	796867801125948160      # 0xb0f0b0b0b0f0b00
	.quad	35777043401018120       # 0x7f1b080b080b08
.LCPI0_2:
	.quad	243270656               # 0xe800400
	.quad	251658240               # 0xf000000
.LCPI0_3:
	.quad	239077376               # 0xe400800
	.quad	243269632               # 0xe800000
.LCPI0_4:
	.quad	134217728               # 0x8000000
	.quad	201342976               # 0xc004000
.LCPI0_5:
	.quad	201408512               # 0xc014000
	.quad	234913792               # 0xe008000
	.text
	.globl	_ZN7VSimTop17_sequent__TOP__56EP13VSimTop__Syms
	.p2align	4, 0x90
	.type	_ZN7VSimTop17_sequent__TOP__56EP13VSimTop__Syms,@function
_ZN7VSimTop17_sequent__TOP__56EP13VSimTop__Syms: # @_ZN7VSimTop17_sequent__TOP__56EP13VSimTop__Syms
	.cfi_startproc
# %bb.0:                                # %entry
	pushq	%rbp
	.cfi_def_cfa_offset 16
	pushq	%r15
	.cfi_def_cfa_offset 24
	pushq	%r14
	.cfi_def_cfa_offset 32
	pushq	%r13
	.cfi_def_cfa_offset 40
	pushq	%r12
	.cfi_def_cfa_offset 48
	pushq	%rbx
	.cfi_def_cfa_offset 56
	subq	$50184, %rsp            # imm = 0xC408
	.cfi_def_cfa_offset 50240
	.cfi_offset %rbx, -56
	.cfi_offset %r12, -48
	.cfi_offset %r13, -40
	.cfi_offset %r14, -32
	.cfi_offset %r15, -24
	.cfi_offset %rbp, -16
	movq	24(%rdi), %rbx
	cmpb	$0, 28576(%rbx)
	je	.LBB0_2
# %bb.1:                                # %cond.true
	movb	34496(%rbx), %al
	andb	$1, %al
	jmp	.LBB0_3
.LBB0_2:                                # %cond.false
	movb	30908(%rbx), %al
.LBB0_3:                                # %cond.end
	movb	%al, 30908(%rbx)
	cmpb	$0, 40284(%rbx)
	movl	$40274, %ecx            # imm = 0x9D52
	movl	$61560, %eax            # imm = 0xF078
	cmovneq	%rax, %rcx
	movb	(%rbx,%rcx), %cl
	movb	%cl, 40274(%rbx)
	movl	$40273, %edx            # imm = 0x9D51
	movl	$61559, %ecx            # imm = 0xF077
	cmovneq	%rcx, %rdx
	movb	(%rbx,%rdx), %dl
	movb	%dl, 40273(%rbx)
	cmpb	$0, 40283(%rbx)
	movl	$40253, %edx            # imm = 0x9D3D
	cmovneq	%rax, %rdx
	movb	(%rbx,%rdx), %dl
	movb	%dl, 40253(%rbx)
	movl	$40252, %edx            # imm = 0x9D3C
	cmovneq	%rcx, %rdx
	movb	(%rbx,%rdx), %dl
	movb	%dl, 40252(%rbx)
	cmpb	$0, 40282(%rbx)
	movl	$40232, %edx            # imm = 0x9D28
	cmovneq	%rax, %rdx
	movb	(%rbx,%rdx), %dl
	movb	%dl, 40232(%rbx)
	movl	$40231, %edx            # imm = 0x9D27
	cmovneq	%rcx, %rdx
	movb	(%rbx,%rdx), %dl
	movb	%dl, 40231(%rbx)
	cmpb	$0, 40281(%rbx)
	movl	$40211, %edx            # imm = 0x9D13
	cmovneq	%rax, %rdx
	movb	(%rbx,%rdx), %dl
	movb	%dl, 40211(%rbx)
	movl	$40210, %edx            # imm = 0x9D12
	cmovneq	%rcx, %rdx
	movb	(%rbx,%rdx), %dl
	movb	%dl, 40210(%rbx)
	cmpb	$0, 40278(%rbx)
	movl	$40147, %edx            # imm = 0x9CD3
	cmovneq	%rcx, %rdx
	movb	(%rbx,%rdx), %dl
	movb	%dl, 40147(%rbx)
	movl	$40148, %edx            # imm = 0x9CD4
	cmovneq	%rax, %rdx
	movb	(%rbx,%rdx), %dl
	movb	%dl, 40148(%rbx)
	cmpb	$0, 40277(%rbx)
	movl	$40126, %edx            # imm = 0x9CBE
	cmovneq	%rcx, %rdx
	movb	(%rbx,%rdx), %dl
	movb	%dl, 40126(%rbx)
	movl	$40127, %edx            # imm = 0x9CBF
	cmovneq	%rax, %rdx
	movb	(%rbx,%rdx), %dl
	movb	%dl, 40127(%rbx)
	cmpb	$0, 40279(%rbx)
	movl	$40168, %edx            # imm = 0x9CE8
	cmovneq	%rcx, %rdx
	movb	(%rbx,%rdx), %dl
	movb	%dl, 40168(%rbx)
	movl	$40169, %edx            # imm = 0x9CE9
	cmovneq	%rax, %rdx
	movb	(%rbx,%rdx), %dl
	movb	%dl, 40169(%rbx)
	cmpb	$0, 40280(%rbx)
	movl	$40189, %edx            # imm = 0x9CFD
	cmovneq	%rcx, %rdx
	movb	(%rbx,%rdx), %cl
	movb	%cl, 40189(%rbx)
	movl	$40190, %ecx            # imm = 0x9CFE
	cmovneq	%rax, %rcx
	movb	(%rbx,%rcx), %al
	movb	%al, 40190(%rbx)
	movb	631(%rbx), %al
	orb	672(%rbx), %al
	testb	$1, %al
	jne	.LBB0_5
# %bb.4:                                # %if.then219
	movzbl	628(%rbx), %eax
	movb	273780(%rbx,%rax), %cl
	movb	%cl, 1491517(%rbx)
	movb	$1, 1491518(%rbx)
	movb	667(%rbx), %cl
	movb	%cl, 1491516(%rbx)
	movq	%rax, %rdx
	shlq	$5, %rdx
	movups	273716(%rbx,%rdx), %xmm0
	movups	273732(%rbx,%rdx), %xmm1
	movups	%xmm1, 1498692(%rbx)
	movups	%xmm0, 1498676(%rbx)
	movb	$1, 1491523(%rbx)
	movb	%cl, 1491522(%rbx)
	movzwl	273710(%rbx,%rax,2), %edx
	movw	%dx, 1497854(%rbx)
	movb	$1, 1491521(%rbx)
	movb	%cl, 1491520(%rbx)
	movb	273782(%rbx,%rax), %al
	movb	%al, 1491514(%rbx)
	movb	$1, 1491515(%rbx)
	movb	%cl, 1491513(%rbx)
.LBB0_5:                                # %if.end224
	movb	3779(%rbx), %al
	orb	3796(%rbx), %al
	testb	$1, %al
	jne	.LBB0_7
# %bb.6:                                # %if.then275
	movzbl	3776(%rbx), %eax
	movb	279842(%rbx,%rax), %cl
	movb	%cl, 1493347(%rbx)
	movb	$1, 1493348(%rbx)
	movb	3791(%rbx), %cl
	movb	%cl, 1493346(%rbx)
	movb	279840(%rbx,%rax), %dl
	movb	%dl, 1493344(%rbx)
	movb	$1, 1493345(%rbx)
	movb	%cl, 1493343(%rbx)
	movb	279844(%rbx,%rax), %dl
	movb	%dl, 1493340(%rbx)
	movb	$1, 1493341(%rbx)
	movb	%cl, 1493339(%rbx)
	movq	279848(%rbx,%rax,8), %rax
	movq	%rax, 1503968(%rbx)
	movb	$1, 1493338(%rbx)
	movb	%cl, 1493337(%rbx)
.LBB0_7:                                # %if.end280
	movb	70933(%rbx), %sil
	movl	%esi, %r8d
	notb	%r8b
	movb	459(%rbx), %cl
	andb	%r8b, %cl
	movb	%cl, 455(%rbx)
	movb	525(%rbx), %cl
	andb	%r8b, %cl
	movb	%cl, 518(%rbx)
	testb	%sil, %sil
	je	.LBB0_9
# %bb.8:                                # %if.then348
	movb	$0, 2087(%rbx)
	movb	$0, 2093(%rbx)
	movb	$0, 2099(%rbx)
	movb	$0, 2105(%rbx)
	xorl	%edx, %edx
	jmp	.LBB0_22
.LBB0_9:                                # %if.else
	cmpb	$0, 2090(%rbx)
	je	.LBB0_11
# %bb.10:
	xorl	%ecx, %ecx
	jmp	.LBB0_12
.LBB0_11:                               # %cond.false297
	movb	2087(%rbx), %cl
.LBB0_12:                               # %if.else308
	movb	%cl, 2087(%rbx)
	cmpb	$0, 2096(%rbx)
	je	.LBB0_14
# %bb.13:
	xorl	%ecx, %ecx
	jmp	.LBB0_15
.LBB0_14:                               # %cond.false311
	movb	2093(%rbx), %cl
.LBB0_15:                               # %if.else322
	movb	%cl, 2093(%rbx)
	movb	2102(%rbx), %cl
	testb	%cl, %cl
	jne	.LBB0_17
# %bb.16:                               # %cond.false326
	movb	2099(%rbx), %cl
.LBB0_17:                               # %if.else335
	movb	%cl, 2099(%rbx)
	cmpb	$0, 2108(%rbx)
	je	.LBB0_19
# %bb.18:
	xorl	%ecx, %ecx
	jmp	.LBB0_20
.LBB0_19:                               # %cond.false338
	movb	2105(%rbx), %cl
.LBB0_20:                               # %if.else349
	movb	%cl, 2105(%rbx)
	movb	2114(%rbx), %dl
	testb	%dl, %dl
	jne	.LBB0_22
# %bb.21:                               # %cond.false353
	movb	2111(%rbx), %dl
.LBB0_22:                               # %if.end358
	movb	%dl, 2111(%rbx)
	movb	1606(%rbx), %cl
	orb	1567(%rbx), %cl
	testb	$1, %cl
	jne	.LBB0_24
# %bb.23:                               # %if.then379
	movzbl	1603(%rbx), %ecx
	movb	277586(%rbx,%rcx), %dl
	movb	%dl, 1492617(%rbx)
	movb	$1, 1492618(%rbx)
	movb	1562(%rbx), %dl
	movb	%dl, 1492616(%rbx)
	movl	277588(%rbx,%rcx,4), %ecx
	movl	%ecx, 1500044(%rbx)
	movb	$1, 1492615(%rbx)
	movb	%dl, 1492614(%rbx)
.LBB0_24:                               # %if.end384
	movb	3787(%rbx), %cl
	orb	3772(%rbx), %cl
	testb	$1, %cl
	jne	.LBB0_26
# %bb.25:                               # %if.then465
	movzbl	3784(%rbx), %ecx
	movb	279866(%rbx,%rcx), %dl
	movb	%dl, 1493303(%rbx)
	movb	$1, 1493304(%rbx)
	movb	3767(%rbx), %dl
	movb	%dl, 1493302(%rbx)
	movb	279864(%rbx,%rcx), %al
	movb	%al, 1493300(%rbx)
	movb	$1, 1493301(%rbx)
	movb	%dl, 1493299(%rbx)
	movq	279888(%rbx,%rcx,8), %rax
	movq	%rax, 1503944(%rbx)
	movb	$1, 1493298(%rbx)
	movb	%dl, 1493297(%rbx)
	movb	279868(%rbx,%rcx), %al
	movb	%al, 1493295(%rbx)
	movb	$1, 1493296(%rbx)
	movb	%dl, 1493294(%rbx)
	movl	279872(%rbx,%rcx,4), %eax
	movl	%eax, 1500532(%rbx)
	movb	$1, 1493292(%rbx)
	movb	%dl, 1493291(%rbx)
	movb	279880(%rbx,%rcx), %al
	movb	%al, 1493288(%rbx)
	movb	$1, 1493289(%rbx)
	movb	%dl, 1493287(%rbx)
.LBB0_26:                               # %if.end470
	movb	1630(%rbx), %al
	orb	1591(%rbx), %al
	testb	$1, %al
	jne	.LBB0_28
# %bb.27:                               # %if.then506
	movzbl	1627(%rbx), %eax
	movb	277638(%rbx,%rax), %cl
	movb	%cl, 1492642(%rbx)
	movb	$1, 1492643(%rbx)
	movb	1586(%rbx), %cl
	movb	%cl, 1492641(%rbx)
	movl	277640(%rbx,%rax,4), %edx
	movl	%edx, 1500048(%rbx)
	movb	$1, 1492640(%rbx)
	movb	%cl, 1492639(%rbx)
	movb	277648(%rbx,%rax), %al
	movb	%al, 1492637(%rbx)
	movb	$1, 1492638(%rbx)
	movb	%cl, 1492636(%rbx)
.LBB0_28:                               # %if.end511
	movb	639(%rbx), %dl
	orb	598(%rbx), %dl
	testb	$1, %dl
	jne	.LBB0_30
# %bb.29:                               # %if.then519
	movzbl	636(%rbx), %eax
	movzwl	273784(%rbx,%rax,2), %eax
	movw	%ax, 1497840(%rbx)
	movb	$1, 1491443(%rbx)
	movb	593(%rbx), %al
	movb	%al, 1491442(%rbx)
.LBB0_30:                               # %if.end522
	movb	28576(%rbx), %dil
	testb	%dil, %dil
	je	.LBB0_32
# %bb.31:                               # %cond.true525
	movb	33361(%rbx), %cl
	andb	$1, %cl
	jmp	.LBB0_33
.LBB0_32:                               # %cond.false528
	movb	30907(%rbx), %cl
.LBB0_33:                               # %cond.end530
	movabsq	$64424509440, %rbp      # imm = 0xF00000000
	movb	%cl, 30907(%rbx)
	movl	134168(%rbx), %eax
	movl	134172(%rbx), %ecx
	andl	$15, %ecx
	shlq	$32, %rcx
	orq	%rax, %rcx
	movq	%rcx, 241120(%rbx)
	testb	$1, %dl
	jne	.LBB0_35
# %bb.34:                               # %if.then549
	movzbl	636(%rbx), %eax
	movq	273792(%rbx,%rax,8), %rax
	movq	%rax, 1503584(%rbx)
	movb	$1, 1491441(%rbx)
	movb	593(%rbx), %al
	movb	%al, 1491440(%rbx)
.LBB0_35:                               # %if.end554
	movl	133932(%rbx), %eax
	shlq	$32, %rax
	movl	133928(%rbx), %ecx
	andq	%rbp, %rax
	orq	%rcx, %rax
	movq	%rax, 241064(%rbx)
	movl	134004(%rbx), %eax
	shlq	$32, %rax
	movl	134000(%rbx), %ecx
	andq	%rbp, %rax
	orq	%rcx, %rax
	movq	%rax, 241072(%rbx)
	movl	134244(%rbx), %eax
	shlq	$32, %rax
	movl	134240(%rbx), %ecx
	andq	%rbp, %rax
	orq	%rcx, %rax
	movq	%rax, 241080(%rbx)
	movl	134436(%rbx), %eax
	shlq	$32, %rax
	movl	134432(%rbx), %ecx
	andq	%rbp, %rax
	orq	%rcx, %rax
	movq	%rax, 241088(%rbx)
	movl	133832(%rbx), %eax
	movl	133836(%rbx), %ecx
	shlq	$32, %rcx
	andq	%rbp, %rcx
	orq	%rax, %rcx
	movq	%rcx, 241096(%rbx)
	movl	133908(%rbx), %eax
	shlq	$32, %rax
	movl	133904(%rbx), %ecx
	andq	%rbp, %rax
	orq	%rcx, %rax
	movq	%rax, 241104(%rbx)
	movl	134072(%rbx), %eax
	movl	134076(%rbx), %ecx
	shlq	$32, %rcx
	andq	%rbp, %rcx
	orq	%rax, %rcx
	movq	%rcx, 241112(%rbx)
	andb	$1, %r8b
	movb	%r8b, 125(%rbx)
	cmpb	$0, 20874(%rbx)
	je	.LBB0_37
# %bb.36:                               # %cond.true617
	movb	61549(%rbx), %cl
	andb	20872(%rbx), %cl
	movb	61552(%rbx), %al
	andb	20873(%rbx), %al
	orb	%cl, %al
	jmp	.LBB0_38
.LBB0_37:                               # %cond.false625
	movb	20804(%rbx), %al
.LBB0_38:                               # %cond.end627
	movb	%al, 20804(%rbx)
	cmpb	$0, 20871(%rbx)
	je	.LBB0_40
# %bb.39:                               # %cond.true633
	movb	61549(%rbx), %cl
	andb	20869(%rbx), %cl
	movb	61552(%rbx), %al
	andb	20870(%rbx), %al
	orb	%cl, %al
	jmp	.LBB0_41
.LBB0_40:                               # %cond.false643
	movb	20783(%rbx), %al
.LBB0_41:                               # %cond.end645
	movb	%al, 20783(%rbx)
	cmpb	$0, 20868(%rbx)
	je	.LBB0_43
# %bb.42:                               # %cond.true651
	movb	61549(%rbx), %cl
	andb	20866(%rbx), %cl
	movb	61552(%rbx), %al
	andb	20867(%rbx), %al
	orb	%cl, %al
	jmp	.LBB0_44
.LBB0_43:                               # %cond.false661
	movb	20762(%rbx), %al
.LBB0_44:                               # %cond.end663
	movb	%al, 20762(%rbx)
	cmpb	$0, 20865(%rbx)
	je	.LBB0_46
# %bb.45:                               # %cond.true669
	movb	61549(%rbx), %cl
	andb	20863(%rbx), %cl
	movb	61552(%rbx), %al
	andb	20864(%rbx), %al
	orb	%cl, %al
	jmp	.LBB0_47
.LBB0_46:                               # %cond.false679
	movb	20741(%rbx), %al
.LBB0_47:                               # %cond.end681
	movb	%al, 20741(%rbx)
	cmpb	$0, 20862(%rbx)
	je	.LBB0_49
# %bb.48:                               # %cond.true687
	movb	61549(%rbx), %cl
	andb	20860(%rbx), %cl
	movb	61552(%rbx), %al
	andb	20861(%rbx), %al
	orb	%cl, %al
	jmp	.LBB0_50
.LBB0_49:                               # %cond.false697
	movb	20720(%rbx), %al
.LBB0_50:                               # %cond.end699
	movb	%al, 20720(%rbx)
	cmpb	$0, 20859(%rbx)
	je	.LBB0_52
# %bb.51:                               # %cond.true705
	movb	61549(%rbx), %cl
	andb	20857(%rbx), %cl
	movb	61552(%rbx), %al
	andb	20858(%rbx), %al
	orb	%cl, %al
	jmp	.LBB0_53
.LBB0_52:                               # %cond.false715
	movb	20699(%rbx), %al
.LBB0_53:                               # %cond.end717
	movb	%al, 20699(%rbx)
	cmpb	$0, 20856(%rbx)
	je	.LBB0_55
# %bb.54:                               # %cond.true723
	movb	61549(%rbx), %cl
	andb	20854(%rbx), %cl
	movb	61552(%rbx), %al
	andb	20855(%rbx), %al
	orb	%cl, %al
	jmp	.LBB0_56
.LBB0_55:                               # %cond.false733
	movb	20678(%rbx), %al
.LBB0_56:                               # %cond.end735
	movb	%al, 20678(%rbx)
	cmpb	$0, 20850(%rbx)
	je	.LBB0_58
# %bb.57:                               # %cond.true741
	movb	61549(%rbx), %cl
	andb	20848(%rbx), %cl
	movb	61552(%rbx), %al
	andb	20849(%rbx), %al
	orb	%cl, %al
	jmp	.LBB0_59
.LBB0_58:                               # %cond.false751
	movb	20636(%rbx), %al
.LBB0_59:                               # %cond.end753
	movb	%al, 20636(%rbx)
	cmpb	$0, 20847(%rbx)
	je	.LBB0_61
# %bb.60:                               # %cond.true759
	movb	61549(%rbx), %cl
	andb	20845(%rbx), %cl
	movb	61552(%rbx), %al
	andb	20846(%rbx), %al
	orb	%cl, %al
	jmp	.LBB0_62
.LBB0_61:                               # %cond.false769
	movb	20615(%rbx), %al
.LBB0_62:                               # %cond.end771
	movb	%al, 20615(%rbx)
	cmpb	$0, 20835(%rbx)
	je	.LBB0_64
# %bb.63:                               # %cond.true777
	movb	61549(%rbx), %cl
	andb	20833(%rbx), %cl
	movb	61552(%rbx), %al
	andb	20834(%rbx), %al
	orb	%cl, %al
	jmp	.LBB0_65
.LBB0_64:                               # %cond.false787
	movb	20531(%rbx), %al
.LBB0_65:                               # %cond.end789
	movb	%al, 20531(%rbx)
	cmpb	$0, 20829(%rbx)
	je	.LBB0_67
# %bb.66:                               # %cond.true795
	movb	61549(%rbx), %cl
	andb	20827(%rbx), %cl
	movb	61552(%rbx), %al
	andb	20828(%rbx), %al
	orb	%cl, %al
	jmp	.LBB0_68
.LBB0_67:                               # %cond.false805
	movb	20489(%rbx), %al
.LBB0_68:                               # %cond.end807
	movb	%al, 20489(%rbx)
	cmpb	$0, 20841(%rbx)
	je	.LBB0_70
# %bb.69:                               # %cond.true813
	movb	61549(%rbx), %cl
	andb	20839(%rbx), %cl
	movb	61552(%rbx), %al
	andb	20840(%rbx), %al
	orb	%cl, %al
	jmp	.LBB0_71
.LBB0_70:                               # %cond.false823
	movb	20573(%rbx), %al
.LBB0_71:                               # %cond.end825
	movb	%al, 20573(%rbx)
	cmpb	$0, 20838(%rbx)
	je	.LBB0_73
# %bb.72:                               # %cond.true831
	movb	61549(%rbx), %cl
	andb	20836(%rbx), %cl
	movb	61552(%rbx), %al
	andb	20837(%rbx), %al
	orb	%cl, %al
	jmp	.LBB0_74
.LBB0_73:                               # %cond.false841
	movb	20552(%rbx), %al
.LBB0_74:                               # %cond.end843
	movb	%al, 20552(%rbx)
	cmpb	$0, 20844(%rbx)
	je	.LBB0_76
# %bb.75:                               # %cond.true849
	movb	61549(%rbx), %cl
	andb	20842(%rbx), %cl
	movb	61552(%rbx), %al
	andb	20843(%rbx), %al
	orb	%cl, %al
	jmp	.LBB0_77
.LBB0_76:                               # %cond.false859
	movb	20594(%rbx), %al
.LBB0_77:                               # %cond.end861
	movb	%al, 20594(%rbx)
	cmpb	$0, 20832(%rbx)
	je	.LBB0_79
# %bb.78:                               # %cond.true867
	movb	61549(%rbx), %cl
	andb	20830(%rbx), %cl
	movb	61552(%rbx), %al
	andb	20831(%rbx), %al
	orb	%cl, %al
	jmp	.LBB0_80
.LBB0_79:                               # %cond.false877
	movb	20510(%rbx), %al
.LBB0_80:                               # %cond.end879
	movb	%al, 20510(%rbx)
	cmpb	$0, 20853(%rbx)
	je	.LBB0_82
# %bb.81:                               # %cond.true885
	movb	61549(%rbx), %cl
	andb	20851(%rbx), %cl
	movb	61552(%rbx), %al
	andb	20852(%rbx), %al
	orb	%cl, %al
	jmp	.LBB0_83
.LBB0_82:                               # %cond.false895
	movb	20657(%rbx), %al
.LBB0_83:                               # %cond.end897
	movb	%al, 20657(%rbx)
	testb	%sil, %sil
	je	.LBB0_85
# %bb.84:                               # %if.then903
	movb	$-1, 422(%rbx)
	jmp	.LBB0_86
.LBB0_85:                               # %if.else904
	movb	69006(%rbx), %al
	notb	%al
	orb	317(%rbx), %al
	andb	$1, %al
	movzbl	%al, %eax
	leaq	(%rax,%rax,2), %rax
	movb	422(%rbx,%rax), %al
	movb	%al, 422(%rbx)
.LBB0_86:                               # %if.end917
	movzbl	615(%rbx), %ecx
	xorl	$1, %ecx
	movb	71105(%rbx), %al
	xorl	%edx, %edx
	cmpb	$3, %al
	sete	%dl
	testl	%ecx, %edx
	je	.LBB0_88
# %bb.87:                               # %if.then925
	movb	$1, 1491460(%rbx)
	movb	610(%rbx), %cl
	movb	%cl, 1491459(%rbx)
.LBB0_88:                               # %if.end926
	movl	632(%rbx), %ecx
	notl	%ecx
	xorl	%ebp, %ebp
	cmpb	$1, %al
	sete	%bpl
	andl	%ecx, %ebp
	je	.LBB0_90
# %bb.89:                               # %if.then935
	movb	$1, 1491475(%rbx)
	movb	627(%rbx), %al
	movb	%al, 1491474(%rbx)
.LBB0_90:                               # %if.end936
	testb	%sil, %sil
	je	.LBB0_92
# %bb.91:                               # %cond.end1389
	movb	$0, 561(%rbx)
	movb	$0, 569(%rbx)
	movb	$0, 595(%rbx)
	movb	$0, 612(%rbx)
	movb	$0, 629(%rbx)
	movb	$0, 637(%rbx)
	movb	$0, 645(%rbx)
	movb	$0, 653(%rbx)
	movb	$0, 661(%rbx)
	movb	$0, 669(%rbx)
	movb	$0, 1564(%rbx)
	movb	$0, 1572(%rbx)
	movb	$0, 1580(%rbx)
	movb	$0, 1588(%rbx)
	movb	$0, 1596(%rbx)
	movb	$0, 1604(%rbx)
	movb	$0, 1612(%rbx)
	movb	$0, 1620(%rbx)
	movb	$0, 1628(%rbx)
	movb	$0, 1636(%rbx)
	movb	$0, 1774(%rbx)
	movb	$0, 1782(%rbx)
	movb	$0, 2137(%rbx)
	movb	$0, 2145(%rbx)
	movb	$0, 3769(%rbx)
	movb	$0, 3777(%rbx)
	movb	$0, 3785(%rbx)
	movb	$0, 3793(%rbx)
	movb	$0, 2085(%rbx)
	movb	$0, 2091(%rbx)
	movb	$0, 2098(%rbx)
	movb	$0, 2103(%rbx)
	xorl	%eax, %eax
	jmp	.LBB0_149
.LBB0_92:                               # %if.else940
	movb	565(%rbx), %al
	cmpb	566(%rbx), %al
	jne	.LBB0_94
# %bb.93:                               # %cond.false946
	movb	561(%rbx), %al
.LBB0_94:                               # %if.else955
	movb	%al, 561(%rbx)
	movb	573(%rbx), %al
	cmpb	574(%rbx), %al
	jne	.LBB0_96
# %bb.95:                               # %cond.false961
	movb	569(%rbx), %al
.LBB0_96:                               # %if.else970
	movb	%al, 569(%rbx)
	movb	599(%rbx), %al
	cmpb	600(%rbx), %al
	jne	.LBB0_98
# %bb.97:                               # %cond.false976
	movb	595(%rbx), %al
.LBB0_98:                               # %if.else985
	movb	%al, 595(%rbx)
	movb	616(%rbx), %al
	cmpb	617(%rbx), %al
	jne	.LBB0_100
# %bb.99:                               # %cond.false991
	movb	612(%rbx), %al
.LBB0_100:                              # %if.else1000
	movb	%al, 612(%rbx)
	movb	633(%rbx), %al
	cmpb	634(%rbx), %al
	jne	.LBB0_102
# %bb.101:                              # %cond.false1006
	movb	629(%rbx), %al
.LBB0_102:                              # %if.else1015
	movb	%al, 629(%rbx)
	movb	641(%rbx), %al
	cmpb	642(%rbx), %al
	jne	.LBB0_104
# %bb.103:                              # %cond.false1021
	movb	637(%rbx), %al
.LBB0_104:                              # %if.else1030
	movb	%al, 637(%rbx)
	movb	649(%rbx), %al
	cmpb	650(%rbx), %al
	jne	.LBB0_106
# %bb.105:                              # %cond.false1036
	movb	645(%rbx), %al
.LBB0_106:                              # %if.else1045
	movb	%al, 645(%rbx)
	movb	657(%rbx), %al
	cmpb	658(%rbx), %al
	jne	.LBB0_108
# %bb.107:                              # %cond.false1051
	movb	653(%rbx), %al
.LBB0_108:                              # %if.else1060
	movb	%al, 653(%rbx)
	movb	665(%rbx), %al
	cmpb	666(%rbx), %al
	jne	.LBB0_110
# %bb.109:                              # %cond.false1066
	movb	661(%rbx), %al
.LBB0_110:                              # %if.else1075
	movb	%al, 661(%rbx)
	movb	673(%rbx), %al
	cmpb	674(%rbx), %al
	jne	.LBB0_112
# %bb.111:                              # %cond.false1081
	movb	669(%rbx), %al
.LBB0_112:                              # %if.else1090
	movb	%al, 669(%rbx)
	movb	1568(%rbx), %al
	cmpb	1569(%rbx), %al
	jne	.LBB0_114
# %bb.113:                              # %cond.false1096
	movb	1564(%rbx), %al
.LBB0_114:                              # %if.else1105
	movb	%al, 1564(%rbx)
	movb	1576(%rbx), %al
	cmpb	1577(%rbx), %al
	jne	.LBB0_116
# %bb.115:                              # %cond.false1111
	movb	1572(%rbx), %al
.LBB0_116:                              # %if.else1120
	movb	%al, 1572(%rbx)
	movb	1584(%rbx), %al
	cmpb	1585(%rbx), %al
	jne	.LBB0_118
# %bb.117:                              # %cond.false1126
	movb	1580(%rbx), %al
.LBB0_118:                              # %if.else1135
	movb	%al, 1580(%rbx)
	movb	1592(%rbx), %al
	cmpb	1593(%rbx), %al
	jne	.LBB0_120
# %bb.119:                              # %cond.false1141
	movb	1588(%rbx), %al
.LBB0_120:                              # %if.else1150
	movb	%al, 1588(%rbx)
	movb	1600(%rbx), %al
	cmpb	1601(%rbx), %al
	jne	.LBB0_122
# %bb.121:                              # %cond.false1156
	movb	1596(%rbx), %al
.LBB0_122:                              # %if.else1165
	movb	%al, 1596(%rbx)
	movb	1608(%rbx), %al
	cmpb	1609(%rbx), %al
	jne	.LBB0_124
# %bb.123:                              # %cond.false1171
	movb	1604(%rbx), %al
.LBB0_124:                              # %if.else1180
	movb	%al, 1604(%rbx)
	movb	1616(%rbx), %al
	cmpb	1617(%rbx), %al
	jne	.LBB0_126
# %bb.125:                              # %cond.false1186
	movb	1612(%rbx), %al
.LBB0_126:                              # %if.else1195
	movb	%al, 1612(%rbx)
	movb	1624(%rbx), %al
	cmpb	1625(%rbx), %al
	jne	.LBB0_128
# %bb.127:                              # %cond.false1201
	movb	1620(%rbx), %al
.LBB0_128:                              # %if.else1210
	movb	%al, 1620(%rbx)
	movb	1632(%rbx), %al
	cmpb	1633(%rbx), %al
	jne	.LBB0_130
# %bb.129:                              # %cond.false1216
	movb	1628(%rbx), %al
.LBB0_130:                              # %if.else1225
	movb	%al, 1628(%rbx)
	movb	1640(%rbx), %al
	cmpb	1641(%rbx), %al
	jne	.LBB0_132
# %bb.131:                              # %cond.false1231
	movb	1636(%rbx), %al
.LBB0_132:                              # %if.else1240
	movb	%al, 1636(%rbx)
	movb	1778(%rbx), %al
	cmpb	1779(%rbx), %al
	jne	.LBB0_134
# %bb.133:                              # %cond.false1246
	movb	1774(%rbx), %al
.LBB0_134:                              # %if.else1255
	movb	%al, 1774(%rbx)
	movb	1786(%rbx), %al
	cmpb	1787(%rbx), %al
	jne	.LBB0_136
# %bb.135:                              # %cond.false1261
	movb	1782(%rbx), %al
.LBB0_136:                              # %if.else1270
	movb	%al, 1782(%rbx)
	movb	2141(%rbx), %al
	cmpb	2142(%rbx), %al
	jne	.LBB0_138
# %bb.137:                              # %cond.false1276
	movb	2137(%rbx), %al
.LBB0_138:                              # %if.else1285
	movb	%al, 2137(%rbx)
	movb	2149(%rbx), %al
	cmpb	2150(%rbx), %al
	jne	.LBB0_140
# %bb.139:                              # %cond.false1291
	movb	2145(%rbx), %al
.LBB0_140:                              # %if.else1300
	movb	%al, 2145(%rbx)
	movb	3773(%rbx), %al
	cmpb	3774(%rbx), %al
	jne	.LBB0_142
# %bb.141:                              # %cond.false1306
	movb	3769(%rbx), %al
.LBB0_142:                              # %if.else1315
	movb	%al, 3769(%rbx)
	movb	3781(%rbx), %al
	cmpb	3782(%rbx), %al
	jne	.LBB0_144
# %bb.143:                              # %cond.false1321
	movb	3777(%rbx), %al
.LBB0_144:                              # %if.else1330
	movb	%al, 3777(%rbx)
	movb	3789(%rbx), %al
	cmpb	3790(%rbx), %al
	jne	.LBB0_146
# %bb.145:                              # %cond.false1336
	movb	3785(%rbx), %al
.LBB0_146:                              # %if.else1345
	movb	%al, 3785(%rbx)
	movb	3797(%rbx), %al
	cmpb	3798(%rbx), %al
	jne	.LBB0_148
# %bb.147:                              # %cond.false1351
	movb	3793(%rbx), %al
.LBB0_148:                              # %cond.false1396
	movb	%al, 3793(%rbx)
	movb	2110(%rbx), %al
.LBB0_149:                              # %cond.end1398
	movb	%al, 2110(%rbx)
	testl	%ebp, %ebp
	je	.LBB0_151
# %bb.150:                              # %if.then1411
	movb	71113(%rbx), %al
	movb	%al, 1491472(%rbx)
	movb	$1, 1491473(%rbx)
	movb	627(%rbx), %al
	movb	%al, 1491471(%rbx)
.LBB0_151:                              # %if.end1413
	movb	556(%rbx), %r9b
	notb	%r9b
	andb	444(%rbx), %r9b
	je	.LBB0_153
# %bb.152:                              # %if.then1419
	leaq	77856(%rbx), %rax
	leaq	77864(%rbx), %rcx
	movb	532(%rbx), %dl
	movb	551(%rbx), %r8b
	cmpb	$1, %dl
	cmoveq	%rcx, %rax
	leaq	77872(%rbx), %rcx
	cmpb	$2, %dl
	cmovneq	%rax, %rcx
	leaq	77880(%rbx), %rax
	cmpb	$3, %dl
	cmovneq	%rcx, %rax
	movq	(%rax), %rax
	movq	%rax, 1503528(%rbx)
	movb	$1, 1491367(%rbx)
	movb	%r8b, 1491366(%rbx)
.LBB0_153:                              # %if.end1471
	testb	%sil, %sil
	je	.LBB0_155
# %bb.154:                              # %if.then1489
	movb	$0, 292(%rbx)
	xorl	%eax, %eax
	jmp	.LBB0_159
.LBB0_155:                              # %if.else1475
	movb	296(%rbx), %al
	cmpb	297(%rbx), %al
	jne	.LBB0_157
# %bb.156:                              # %cond.false1481
	movb	292(%rbx), %al
.LBB0_157:                              # %if.else1490
	movb	%al, 292(%rbx)
	movb	2218(%rbx), %al
	cmpb	2219(%rbx), %al
	jne	.LBB0_159
# %bb.158:                              # %cond.false1496
	movb	2214(%rbx), %al
.LBB0_159:                              # %if.end1501
	movb	%al, 2214(%rbx)
	testb	%dil, %dil
	je	.LBB0_161
# %bb.160:                              # %cond.true1504
	movb	31161(%rbx), %al
	andb	$1, %al
	jmp	.LBB0_162
.LBB0_161:                              # %cond.false1507
	movb	30906(%rbx), %al
.LBB0_162:                              # %cond.end1509
	movb	%al, 30906(%rbx)
	testb	%r9b, %r9b
	je	.LBB0_164
# %bb.163:                              # %if.then1531
	movb	445(%rbx), %cl
	movb	447(%rbx), %al
	movb	%al, 1491369(%rbx)
	movb	$1, 1491370(%rbx)
	movb	551(%rbx), %dl
	movb	%dl, 1491368(%rbx)
	movq	241696(%rbx), %rax
	movb	%cl, 1491373(%rbx)
	movb	$1, 1491374(%rbx)
	movb	%dl, 1491372(%rbx)
	jmp	.LBB0_165
.LBB0_164:                              # %if.end1522.thread
	movq	241696(%rbx), %rax
.LBB0_165:                              # %if.end1533
	movabsq	$17179869183, %r10      # imm = 0x3FFFFFFFF
	andq	%r10, %rax
	movq	%rax, 240992(%rbx)
	testl	%ebp, %ebp
	je	.LBB0_167
# %bb.166:                              # %if.then1543
	movq	272784(%rbx), %rax
	movl	%eax, 1498608(%rbx)
	shrq	$32, %rax
	movl	%eax, 1498612(%rbx)
	movq	272792(%rbx), %rax
	movl	%eax, 1498616(%rbx)
	shrq	$32, %rax
	movl	%eax, 1498620(%rbx)
	movq	272800(%rbx), %rax
	movl	%eax, 1498624(%rbx)
	shrq	$32, %rax
	movl	%eax, 1498628(%rbx)
	movq	272808(%rbx), %rax
	movl	%eax, 1498632(%rbx)
	shrq	$32, %rax
	movl	%eax, 1498636(%rbx)
	movb	$1, 1491480(%rbx)
	movb	627(%rbx), %al
	movb	%al, 1491479(%rbx)
.LBB0_167:                              # %if.end1575
	cmpb	$0, 52378(%rbx)
	je	.LBB0_169
# %bb.168:                              # %if.then1969
	leaq	188300(%rbx), %r11
	leaq	188356(%rbx), %rax
	leaq	189000(%rbx), %r8
	leaq	189056(%rbx), %rbp
	leaq	188348(%rbx), %rsi
	leaq	189048(%rbx), %r15
	leaq	188308(%rbx), %r14
	leaq	189008(%rbx), %r13
	leaq	188316(%rbx), %r12
	cmpb	$0, 52069(%rbx)
	cmovneq	%rax, %rbp
	cmovneq	%rsi, %r15
	leaq	189016(%rbx), %rax
	leaq	188324(%rbx), %rcx
	cmovneq	%r11, %r8
	leaq	189024(%rbx), %rsi
	cmovneq	%r14, %r13
	leaq	188332(%rbx), %r11
	cmovneq	%r12, %rax
	movabsq	$17179869183, %r10      # imm = 0x3FFFFFFFF
	cmovneq	%rcx, %rsi
	leaq	189032(%rbx), %rcx
	leaq	188340(%rbx), %r14
	cmovneq	%r11, %rcx
	leaq	189040(%rbx), %rdx
	cmovneq	%r14, %rdx
	leaq	187656(%rbx), %r11
	cmpb	$0, 52062(%rbx)
	cmovneq	%r11, %rbp
	leaq	187648(%rbx), %rdi
	cmovneq	%rdi, %r15
	leaq	187600(%rbx), %rdi
	cmovneq	%rdi, %r8
	leaq	187608(%rbx), %rdi
	cmovneq	%rdi, %r13
	leaq	187616(%rbx), %rdi
	cmovneq	%rdi, %rax
	leaq	187624(%rbx), %rdi
	cmovneq	%rdi, %rsi
	leaq	187632(%rbx), %rdi
	cmovneq	%rdi, %rcx
	leaq	187640(%rbx), %rdi
	cmoveq	%rdx, %rdi
	cmpb	$0, 52055(%rbx)
	leaq	186956(%rbx), %rdx
	cmovneq	%rdx, %rbp
	movq	(%rbp), %rdx
	movq	%rdx, 266392(%rbx)
	leaq	186948(%rbx), %rdx
	cmovneq	%rdx, %r15
	leaq	186900(%rbx), %rdx
	cmovneq	%rdx, %r8
	movq	(%r15), %rdx
	movq	%rdx, 266384(%rbx)
	movq	(%r8), %rdx
	movq	%rdx, 266336(%rbx)
	leaq	186908(%rbx), %rdx
	cmovneq	%rdx, %r13
	movq	(%r13), %rdx
	movq	%rdx, 266344(%rbx)
	leaq	186916(%rbx), %rdx
	cmovneq	%rdx, %rax
	movq	(%rax), %rax
	movq	%rax, 266352(%rbx)
	leaq	186924(%rbx), %rax
	cmovneq	%rax, %rsi
	leaq	186932(%rbx), %rax
	cmovneq	%rax, %rcx
	movq	(%rsi), %rax
	movq	%rax, 266360(%rbx)
	movq	(%rcx), %rax
	movq	%rax, 266368(%rbx)
	leaq	186940(%rbx), %rax
	cmoveq	%rdi, %rax
	movq	(%rax), %rax
	movq	%rax, 266376(%rbx)
.LBB0_169:                              # %if.end2023
	cmpb	$0, 9799(%rbx)
	je	.LBB0_171
# %bb.170:                              # %cond.end2030
	movb	9800(%rbx), %al
	movb	%al, 8819(%rbx)
.LBB0_171:                              # %if.end2033
	cmpb	$0, 9797(%rbx)
	je	.LBB0_173
# %bb.172:                              # %cond.end2040
	movb	9798(%rbx), %al
	movb	%al, 8818(%rbx)
.LBB0_173:                              # %if.end2043
	cmpb	$0, 9795(%rbx)
	je	.LBB0_175
# %bb.174:                              # %cond.end2050
	movb	9796(%rbx), %al
	movb	%al, 8817(%rbx)
.LBB0_175:                              # %if.end2053
	cmpb	$0, 9793(%rbx)
	je	.LBB0_177
# %bb.176:                              # %cond.end2060
	movb	9794(%rbx), %al
	movb	%al, 8816(%rbx)
.LBB0_177:                              # %if.end2063
	cmpb	$0, 9791(%rbx)
	je	.LBB0_179
# %bb.178:                              # %cond.end2070
	movb	9792(%rbx), %al
	movb	%al, 8815(%rbx)
.LBB0_179:                              # %if.end2073
	cmpb	$0, 9789(%rbx)
	je	.LBB0_181
# %bb.180:                              # %cond.end2080
	movb	9790(%rbx), %al
	movb	%al, 8814(%rbx)
.LBB0_181:                              # %if.end2083
	cmpb	$0, 9787(%rbx)
	je	.LBB0_183
# %bb.182:                              # %cond.end2090
	movb	9788(%rbx), %al
	movb	%al, 8813(%rbx)
.LBB0_183:                              # %if.end2093
	cmpb	$0, 9785(%rbx)
	je	.LBB0_185
# %bb.184:                              # %cond.end2100
	movb	9786(%rbx), %al
	movb	%al, 8812(%rbx)
.LBB0_185:                              # %if.end2103
	cmpb	$0, 9783(%rbx)
	je	.LBB0_187
# %bb.186:                              # %cond.end2110
	movb	9784(%rbx), %al
	movb	%al, 8811(%rbx)
.LBB0_187:                              # %if.end2113
	cmpb	$0, 9781(%rbx)
	je	.LBB0_189
# %bb.188:                              # %cond.end2120
	movb	9782(%rbx), %al
	movb	%al, 8810(%rbx)
.LBB0_189:                              # %if.end2123
	cmpb	$0, 9779(%rbx)
	je	.LBB0_191
# %bb.190:                              # %cond.end2130
	movb	9780(%rbx), %al
	movb	%al, 8809(%rbx)
.LBB0_191:                              # %if.end2133
	cmpb	$0, 9777(%rbx)
	je	.LBB0_193
# %bb.192:                              # %cond.end2140
	movb	9778(%rbx), %al
	movb	%al, 8808(%rbx)
.LBB0_193:                              # %if.end2143
	cmpb	$0, 9775(%rbx)
	je	.LBB0_195
# %bb.194:                              # %cond.end2150
	movb	9776(%rbx), %al
	movb	%al, 8807(%rbx)
.LBB0_195:                              # %if.end2153
	movb	70862(%rbx), %r8b
	orb	70913(%rbx), %r8b
	testb	$1, %r8b
	jne	.LBB0_197
# %bb.196:                              # %if.then2240
	movzbl	70859(%rbx), %eax
	movq	%rax, %rcx
	shlq	$5, %rcx
	movups	1009968(%rbx,%rcx), %xmm0
	movups	%xmm0, 1503312(%rbx)
	movups	1009984(%rbx,%rcx), %xmm0
	movups	%xmm0, 1503328(%rbx)
	movb	$1, 1497771(%rbx)
	movb	70908(%rbx), %cl
	movb	%cl, 1497770(%rbx)
	movb	1009940(%rbx,%rax), %dl
	movb	%dl, 1497773(%rbx)
	movb	$1, 1497774(%rbx)
	movb	%cl, 1497772(%rbx)
	movq	1009952(%rbx,%rax,8), %rax
	movq	%rax, 1505224(%rbx)
	movb	$1, 1497764(%rbx)
	movb	%cl, 1497763(%rbx)
.LBB0_197:                              # %if.end2245
	movb	70933(%rbx), %r14b
	testb	%r14b, %r14b
	je	.LBB0_199
# %bb.198:                              # %if.then2278
	movb	$0, 577(%rbx)
	movb	$0, 1790(%rbx)
	xorl	%eax, %eax
	jmp	.LBB0_205
.LBB0_199:                              # %if.else2249
	movb	581(%rbx), %al
	cmpb	582(%rbx), %al
	jne	.LBB0_201
# %bb.200:                              # %cond.false2255
	movb	577(%rbx), %al
.LBB0_201:                              # %if.else2264
	movb	%al, 577(%rbx)
	movb	1794(%rbx), %al
	cmpb	1795(%rbx), %al
	jne	.LBB0_203
# %bb.202:                              # %cond.false2270
	movb	1790(%rbx), %al
.LBB0_203:                              # %if.else2279
	movb	%al, 1790(%rbx)
	movb	3805(%rbx), %al
	cmpb	3806(%rbx), %al
	jne	.LBB0_205
# %bb.204:                              # %cond.false2285
	movb	3801(%rbx), %al
.LBB0_205:                              # %if.end2290
	movb	%al, 3801(%rbx)
	testb	%r9b, %r9b
	je	.LBB0_207
# %bb.206:                              # %if.then2298
	movb	446(%rbx), %al
	movb	551(%rbx), %cl
	movb	%al, 1491376(%rbx)
	movb	$1, 1491377(%rbx)
	movb	%cl, 1491375(%rbx)
.LBB0_207:                              # %if.end2300
	movb	68356(%rbx), %r9b
	movb	68119(%rbx), %al
	orb	%r9b, %al
	movb	%al, 68094(%rbx)
	testb	%r14b, %r14b
	je	.LBB0_209
# %bb.208:                              # %if.then2322
	movb	$0, 604(%rbx)
	xorl	%eax, %eax
	jmp	.LBB0_213
.LBB0_209:                              # %if.else2308
	movb	608(%rbx), %al
	cmpb	609(%rbx), %al
	jne	.LBB0_211
# %bb.210:                              # %cond.false2314
	movb	604(%rbx), %al
.LBB0_211:                              # %if.else2323
	movb	%al, 604(%rbx)
	movb	1683(%rbx), %al
	cmpb	1684(%rbx), %al
	jne	.LBB0_213
# %bb.212:                              # %cond.false2329
	movb	1679(%rbx), %al
.LBB0_213:                              # %if.end2334
	movb	%al, 1679(%rbx)
	movb	647(%rbx), %r15b
	orb	607(%rbx), %r15b
	testb	$1, %r15b
	jne	.LBB0_215
# %bb.214:                              # %if.then2342
	movzbl	644(%rbx), %eax
	shlq	$5, %rax
	movl	273828(%rbx,%rax), %ecx
	movl	%ecx, 1498572(%rbx)
	movl	273832(%rbx,%rax), %ecx
	movl	%ecx, 1498576(%rbx)
	movl	273836(%rbx,%rax), %ecx
	movl	%ecx, 1498580(%rbx)
	movl	273840(%rbx,%rax), %ecx
	movl	%ecx, 1498584(%rbx)
	movl	273844(%rbx,%rax), %ecx
	movl	%ecx, 1498588(%rbx)
	movl	273848(%rbx,%rax), %ecx
	movl	%ecx, 1498592(%rbx)
	movl	273852(%rbx,%rax), %ecx
	movl	%ecx, 1498596(%rbx)
	movl	273856(%rbx,%rax), %eax
	movl	%eax, 1498600(%rbx)
	movb	$1, 1491451(%rbx)
	movb	602(%rbx), %al
	movb	%al, 1491450(%rbx)
.LBB0_215:                              # %if.end2396
	testb	%r14b, %r14b
	je	.LBB0_217
# %bb.216:                              # %if.then2414
	movb	$0, 685(%rbx)
	xorl	%eax, %eax
	jmp	.LBB0_221
.LBB0_217:                              # %if.else2400
	movb	689(%rbx), %al
	cmpb	690(%rbx), %al
	jne	.LBB0_219
# %bb.218:                              # %cond.false2406
	movb	685(%rbx), %al
.LBB0_219:                              # %if.else2415
	movb	%al, 685(%rbx)
	movb	1656(%rbx), %al
	cmpb	1657(%rbx), %al
	jne	.LBB0_221
# %bb.220:                              # %cond.false2421
	movb	1652(%rbx), %al
.LBB0_221:                              # %if.end2426
	movb	%al, 1652(%rbx)
	cmpb	$0, 22049(%rbx)
	je	.LBB0_223
# %bb.222:                              # %cond.true2450
	movb	22047(%rbx), %cl
	movb	22048(%rbx), %al
	xorl	%edx, %edx
	testb	%cl, %cl
	movzbl	61550(%rbx), %edi
	cmovel	%edx, %edi
	testb	%al, %al
	movzbl	61553(%rbx), %ebp
	cmovel	%edx, %ebp
	orl	%edi, %ebp
	movb	%bpl, 21963(%rbx)
	andb	61549(%rbx), %cl
	andb	61552(%rbx), %al
	orb	%cl, %al
	jmp	.LBB0_224
.LBB0_223:                              # %cond.false2462
	movb	21962(%rbx), %al
.LBB0_224:                              # %cond.end2464
	movb	%al, 21962(%rbx)
	movb	22061(%rbx), %al
	testb	%al, %al
	je	.LBB0_226
# %bb.225:                              # %cond.true2470
	movb	61549(%rbx), %dl
	andb	22059(%rbx), %dl
	movb	61552(%rbx), %cl
	andb	22060(%rbx), %cl
	orb	%dl, %cl
	jmp	.LBB0_227
.LBB0_226:                              # %cond.false2480
	movb	22014(%rbx), %cl
.LBB0_227:                              # %cond.end2482
	movb	%cl, 22014(%rbx)
	cmpb	$0, 22055(%rbx)
	je	.LBB0_229
# %bb.228:                              # %cond.true2511
	movb	22053(%rbx), %dl
	movb	22054(%rbx), %cl
	xorl	%edi, %edi
	testb	%dl, %dl
	movzbl	61550(%rbx), %ebp
	cmovel	%edi, %ebp
	testb	%cl, %cl
	movzbl	61553(%rbx), %esi
	cmovel	%edi, %esi
	orl	%ebp, %esi
	movb	%sil, 21989(%rbx)
	andb	61549(%rbx), %dl
	andb	61552(%rbx), %cl
	orb	%dl, %cl
	jmp	.LBB0_230
.LBB0_229:                              # %cond.false2523
	movb	21988(%rbx), %cl
.LBB0_230:                              # %cond.end2525
	movb	%cl, 21988(%rbx)
	testb	%al, %al
	je	.LBB0_232
# %bb.231:                              # %if.then2532
	xorl	%eax, %eax
	cmpb	$0, 22059(%rbx)
	movzbl	61550(%rbx), %ecx
	cmovel	%eax, %ecx
	cmpb	$0, 22060(%rbx)
	movzbl	61553(%rbx), %edx
	cmovel	%eax, %edx
	orl	%ecx, %edx
	movb	%dl, 22015(%rbx)
.LBB0_232:                              # %if.end2553
	cmpb	$0, 22058(%rbx)
	je	.LBB0_234
# %bb.233:                              # %if.then2575
	movb	22056(%rbx), %al
	movb	22057(%rbx), %sil
	movb	61549(%rbx), %dl
	andb	%al, %dl
	movb	61552(%rbx), %cl
	andb	%sil, %cl
	orb	%dl, %cl
	movb	%cl, 22001(%rbx)
	xorl	%ecx, %ecx
	testb	%al, %al
	movzbl	61550(%rbx), %eax
	cmovel	%ecx, %eax
	testb	%sil, %sil
	movzbl	61553(%rbx), %edx
	cmovel	%ecx, %edx
	orl	%eax, %edx
	movb	%dl, 22002(%rbx)
.LBB0_234:                              # %if.end2596
	cmpb	$0, 22046(%rbx)
	je	.LBB0_236
# %bb.235:                              # %if.then2618
	movb	22044(%rbx), %al
	movb	22045(%rbx), %sil
	movb	61549(%rbx), %dl
	andb	%al, %dl
	movb	61552(%rbx), %cl
	andb	%sil, %cl
	orb	%dl, %cl
	movb	%cl, 21949(%rbx)
	xorl	%ecx, %ecx
	testb	%al, %al
	movzbl	61550(%rbx), %eax
	cmovel	%ecx, %eax
	testb	%sil, %sil
	movzbl	61553(%rbx), %edx
	cmovel	%ecx, %edx
	orl	%eax, %edx
	movb	%dl, 21950(%rbx)
.LBB0_236:                              # %if.end2639
	cmpb	$0, 22052(%rbx)
	je	.LBB0_238
# %bb.237:                              # %if.then2661
	movb	22050(%rbx), %al
	movb	22051(%rbx), %sil
	movb	61549(%rbx), %dl
	andb	%al, %dl
	movb	61552(%rbx), %cl
	andb	%sil, %cl
	orb	%dl, %cl
	movb	%cl, 21975(%rbx)
	xorl	%ecx, %ecx
	testb	%al, %al
	movzbl	61550(%rbx), %eax
	cmovel	%ecx, %eax
	testb	%sil, %sil
	movzbl	61553(%rbx), %edx
	cmovel	%ecx, %edx
	orl	%eax, %edx
	movb	%dl, 21976(%rbx)
.LBB0_238:                              # %if.end2682
	cmpb	$0, 22064(%rbx)
	je	.LBB0_240
# %bb.239:                              # %if.then2704
	movb	22062(%rbx), %al
	movb	22063(%rbx), %sil
	movb	61549(%rbx), %dl
	andb	%al, %dl
	movb	61552(%rbx), %cl
	andb	%sil, %cl
	orb	%dl, %cl
	movb	%cl, 22027(%rbx)
	xorl	%ecx, %ecx
	testb	%al, %al
	movzbl	61550(%rbx), %eax
	cmovel	%ecx, %eax
	testb	%sil, %sil
	movzbl	61553(%rbx), %edx
	cmovel	%ecx, %edx
	orl	%eax, %edx
	movb	%dl, 22028(%rbx)
.LBB0_240:                              # %if.end2725
	cmpb	$0, 22067(%rbx)
	je	.LBB0_242
# %bb.241:                              # %if.then2747
	movb	22065(%rbx), %al
	movb	22066(%rbx), %sil
	movb	61549(%rbx), %dl
	andb	%al, %dl
	movb	61552(%rbx), %cl
	andb	%sil, %cl
	orb	%dl, %cl
	movb	%cl, 22040(%rbx)
	xorl	%ecx, %ecx
	testb	%al, %al
	movzbl	61550(%rbx), %eax
	cmovel	%ecx, %eax
	testb	%sil, %sil
	movzbl	61553(%rbx), %edx
	cmovel	%ecx, %edx
	orl	%eax, %edx
	movb	%dl, 22041(%rbx)
.LBB0_242:                              # %if.end2768
	movb	15470(%rbx), %al
	andb	10624(%rbx), %al
	movb	%al, 10760(%rbx)
	movb	17(%rbx), %r11b
	testb	%r11b, %r11b
	je	.LBB0_244
# %bb.243:
	xorl	%eax, %eax
	jmp	.LBB0_247
.LBB0_244:                              # %if.else2775
	cmpb	$0, 70914(%rbx)
	je	.LBB0_246
# %bb.245:                              # %cond.true2777
	movb	70908(%rbx), %al
	notb	%al
	andb	$1, %al
	jmp	.LBB0_247
.LBB0_246:                              # %cond.false2781
	movb	1497769(%rbx), %al
.LBB0_247:                              # %if.end2788
	movb	%al, 1497769(%rbx)
	testb	%r9b, %r9b
	je	.LBB0_249
# %bb.248:
	xorl	%eax, %eax
	jmp	.LBB0_250
.LBB0_249:                              # %cond.false2793
	movb	68108(%rbx), %al
	andb	$3, %al
.LBB0_250:                              # %cond.end2796
	movb	%al, 68091(%rbx)
	testb	$1, %r15b
	jne	.LBB0_252
# %bb.251:                              # %if.then2808
	movzbl	644(%rbx), %eax
	movl	273892(%rbx,%rax,4), %eax
	movl	%eax, 1498604(%rbx)
	movb	$1, 1491454(%rbx)
	movb	602(%rbx), %al
	movb	%al, 1491453(%rbx)
.LBB0_252:                              # %if.end2813
	testb	%r14b, %r14b
	je	.LBB0_254
# %bb.253:                              # %if.then2831
	movb	$0, 2188(%rbx)
	xorl	%eax, %eax
	jmp	.LBB0_258
.LBB0_254:                              # %if.else2817
	movb	2192(%rbx), %al
	cmpb	2193(%rbx), %al
	jne	.LBB0_256
# %bb.255:                              # %cond.false2823
	movb	2188(%rbx), %al
.LBB0_256:                              # %if.else2832
	movb	%al, 2188(%rbx)
	movb	2200(%rbx), %al
	cmpb	2201(%rbx), %al
	jne	.LBB0_258
# %bb.257:                              # %cond.false2838
	movb	2196(%rbx), %al
.LBB0_258:                              # %if.end2843
	movb	%al, 2196(%rbx)
	movb	579(%rbx), %al
	orb	564(%rbx), %al
	testb	$1, %al
	jne	.LBB0_260
# %bb.259:                              # %if.then2924
	movzbl	576(%rbx), %eax
	movb	273482(%rbx,%rax), %cl
	movb	%cl, 1491394(%rbx)
	movb	$1, 1491395(%rbx)
	movb	559(%rbx), %cl
	movb	%cl, 1491393(%rbx)
	movb	273480(%rbx,%rax), %dl
	movb	%dl, 1491391(%rbx)
	movb	$1, 1491392(%rbx)
	movb	%cl, 1491390(%rbx)
	movq	273512(%rbx,%rax,8), %rdx
	movq	%rdx, 1503544(%rbx)
	movb	$1, 1491389(%rbx)
	movb	%cl, 1491388(%rbx)
	movb	273484(%rbx,%rax), %dl
	movb	%dl, 1491386(%rbx)
	movb	$1, 1491387(%rbx)
	movb	%cl, 1491385(%rbx)
	movq	273488(%rbx,%rax,8), %rdx
	movq	%rdx, 1503536(%rbx)
	movb	$1, 1491383(%rbx)
	movb	%cl, 1491382(%rbx)
	movb	273504(%rbx,%rax), %al
	movb	%al, 1491379(%rbx)
	movb	$1, 1491380(%rbx)
	movb	%cl, 1491378(%rbx)
.LBB0_260:                              # %if.end2929
	movb	1792(%rbx), %al
	orb	1777(%rbx), %al
	testb	$1, %al
	jne	.LBB0_262
# %bb.261:                              # %if.then3010
	movzbl	1789(%rbx), %eax
	movb	277978(%rbx,%rax), %cl
	movb	%cl, 1492834(%rbx)
	movb	$1, 1492835(%rbx)
	movb	1772(%rbx), %cl
	movb	%cl, 1492833(%rbx)
	movb	277976(%rbx,%rax), %dl
	movb	%dl, 1492831(%rbx)
	movb	$1, 1492832(%rbx)
	movb	%cl, 1492830(%rbx)
	movq	278000(%rbx,%rax,8), %rdx
	movq	%rdx, 1503752(%rbx)
	movb	$1, 1492829(%rbx)
	movb	%cl, 1492828(%rbx)
	movb	277984(%rbx,%rax), %dl
	movb	%dl, 1492826(%rbx)
	movb	$1, 1492827(%rbx)
	movb	%cl, 1492825(%rbx)
	movl	277988(%rbx,%rax,4), %edx
	movl	%edx, 1500076(%rbx)
	movb	$1, 1492823(%rbx)
	movb	%cl, 1492822(%rbx)
	movb	277996(%rbx,%rax), %al
	movb	%al, 1492819(%rbx)
	movb	$1, 1492820(%rbx)
	movb	%cl, 1492818(%rbx)
.LBB0_262:                              # %if.end3015
	movb	3803(%rbx), %al
	orb	3788(%rbx), %al
	testb	$1, %al
	jne	.LBB0_264
# %bb.263:                              # %if.then3096
	movzbl	3800(%rbx), %eax
	movb	279930(%rbx,%rax), %cl
	movb	%cl, 1493334(%rbx)
	movb	$1, 1493335(%rbx)
	movb	3783(%rbx), %cl
	movb	%cl, 1493333(%rbx)
	movb	279928(%rbx,%rax), %dl
	movb	%dl, 1493331(%rbx)
	movb	$1, 1493332(%rbx)
	movb	%cl, 1493330(%rbx)
	movq	279952(%rbx,%rax,8), %rdx
	movq	%rdx, 1503960(%rbx)
	movb	$1, 1493329(%rbx)
	movb	%cl, 1493328(%rbx)
	movb	279932(%rbx,%rax), %dl
	movb	%dl, 1493326(%rbx)
	movb	$1, 1493327(%rbx)
	movb	%cl, 1493325(%rbx)
	movl	279936(%rbx,%rax,4), %edx
	movl	%edx, 1500536(%rbx)
	movb	$1, 1493323(%rbx)
	movb	%cl, 1493322(%rbx)
	movb	279944(%rbx,%rax), %al
	movb	%al, 1493319(%rbx)
	movb	$1, 1493320(%rbx)
	movb	%cl, 1493318(%rbx)
.LBB0_264:                              # %if.end3101
	cmpb	$0, 15443(%rbx)
	je	.LBB0_266
# %bb.265:                              # %if.then3184
	movb	237600(%rbx), %dl
	shrb	%dl
	andb	$7, %dl
	leal	2(%rdx), %eax
	shrb	$3, %al
	movb	%al, 1495341(%rbx)
	movb	$1, 1495342(%rbx)
	movb	15444(%rbx), %al
	movb	%al, 1495340(%rbx)
	leal	5(%rdx), %ecx
	shrb	$3, %cl
	movb	%cl, 1495338(%rbx)
	movb	$1, 1495339(%rbx)
	movb	%al, 1495337(%rbx)
	leal	4(%rdx), %ecx
	shrb	$3, %cl
	movb	%cl, 1495335(%rbx)
	movb	$1, 1495336(%rbx)
	movb	%al, 1495334(%rbx)
	leal	3(%rdx), %ecx
	shrb	$3, %cl
	movb	%cl, 1495332(%rbx)
	movb	$1, 1495333(%rbx)
	movb	%al, 1495331(%rbx)
	leal	6(%rdx), %ecx
	shrb	$3, %cl
	movb	%cl, 1495329(%rbx)
	movb	$1, 1495330(%rbx)
	movb	%al, 1495328(%rbx)
	leal	7(%rdx), %ecx
	shrb	$3, %cl
	movb	%cl, 1495326(%rbx)
	movb	$1, 1495327(%rbx)
	movb	%al, 1495325(%rbx)
	movw	$256, 1495316(%rbx)     # imm = 0x100
	movb	%al, 1495315(%rbx)
	addb	$1, %dl
	shrb	$3, %dl
	movb	%dl, 1495313(%rbx)
	movb	$1, 1495314(%rbx)
	movb	%al, 1495312(%rbx)
.LBB0_266:                              # %if.end3194
	testb	%r14b, %r14b
	je	.LBB0_268
# %bb.267:
	xorl	%eax, %eax
	jmp	.LBB0_270
.LBB0_268:                              # %if.else3198
	movb	304(%rbx), %al
	cmpb	305(%rbx), %al
	jne	.LBB0_270
# %bb.269:                              # %cond.false3204
	movb	300(%rbx), %al
.LBB0_270:                              # %if.end3209
	movb	%al, 300(%rbx)
	testb	%r9b, %r9b
	je	.LBB0_272
# %bb.271:
	xorl	%eax, %eax
	jmp	.LBB0_274
.LBB0_272:                              # %if.else3213
	movb	68353(%rbx), %al
	cmpb	68354(%rbx), %al
	jne	.LBB0_274
# %bb.273:                              # %cond.false3219
	movb	68349(%rbx), %al
.LBB0_274:                              # %if.end3224
	movb	%al, 68349(%rbx)
	testb	%r14b, %r14b
	je	.LBB0_276
# %bb.275:
	xorl	%eax, %eax
	jmp	.LBB0_278
.LBB0_276:                              # %if.else3228
	movb	2184(%rbx), %al
	cmpb	2185(%rbx), %al
	jne	.LBB0_278
# %bb.277:                              # %cond.false3234
	movb	2180(%rbx), %al
.LBB0_278:                              # %if.end3239
	movb	%al, 2180(%rbx)
	movb	2173(%rbx), %dl
	notb	%dl
	andb	71(%rbx), %dl
	je	.LBB0_280
# %bb.279:                              # %if.then3245
	movb	70897(%rbx), %al
	movb	%al, 1493063(%rbx)
	movb	$1, 1493064(%rbx)
	movb	2168(%rbx), %al
	movb	%al, 1493062(%rbx)
.LBB0_280:                              # %if.end3246
	testb	$1, %r15b
	jne	.LBB0_282
# %bb.281:                              # %if.then3256
	movzbl	644(%rbx), %eax
	movb	273900(%rbx,%rax), %al
	movb	%al, 1491448(%rbx)
	movb	$1, 1491449(%rbx)
	movb	602(%rbx), %al
	movb	%al, 1491447(%rbx)
.LBB0_282:                              # %if.end3261
	testb	%r14b, %r14b
	je	.LBB0_284
# %bb.283:                              # %if.then3279
	movb	$0, 1661(%rbx)
	xorl	%eax, %eax
	jmp	.LBB0_288
.LBB0_284:                              # %if.else3265
	movb	1665(%rbx), %al
	cmpb	1666(%rbx), %al
	jne	.LBB0_286
# %bb.285:                              # %cond.false3271
	movb	1661(%rbx), %al
.LBB0_286:                              # %if.else3280
	movb	%al, 1661(%rbx)
	movb	2083(%rbx), %al
	cmpb	2084(%rbx), %al
	jne	.LBB0_288
# %bb.287:                              # %cond.false3286
	movb	2079(%rbx), %al
.LBB0_288:                              # %if.end3291
	movb	%al, 2079(%rbx)
	testb	%dl, %dl
	je	.LBB0_290
# %bb.289:                              # %if.then3359
	movups	230040(%rbx), %xmm0
	movups	%xmm0, 1500192(%rbx)
	movups	230056(%rbx), %xmm0
	movups	%xmm0, 1500208(%rbx)
	movb	$1, 1493072(%rbx)
	movb	2168(%rbx), %al
	movb	%al, 1493071(%rbx)
	movb	70898(%rbx), %cl
	movb	%cl, 1493060(%rbx)
	movb	$1, 1493061(%rbx)
	movb	%al, 1493059(%rbx)
	movb	70894(%rbx), %cl
	movb	%cl, 1493056(%rbx)
	movb	$1, 1493057(%rbx)
	movb	%al, 1493055(%rbx)
	movb	70895(%rbx), %cl
	movb	%cl, 1493050(%rbx)
	movb	$1, 1493051(%rbx)
	movb	%al, 1493049(%rbx)
.LBB0_290:                              # %if.end3361
	testb	%r14b, %r14b
	je	.LBB0_292
# %bb.291:                              # %if.then3400
	movw	$0, 1492963(%rbx)
	xorl	%eax, %eax
	jmp	.LBB0_301
.LBB0_292:                              # %if.else3365
	cmpb	$0, 2102(%rbx)
	je	.LBB0_294
# %bb.293:                              # %cond.true3368
	movb	2097(%rbx), %al
	notb	%al
	andb	$1, %al
	jmp	.LBB0_295
.LBB0_294:                              # %cond.false3372
	movb	1492964(%rbx), %al
.LBB0_295:                              # %if.else3383
	movb	%al, 1492964(%rbx)
	cmpb	$0, 2096(%rbx)
	je	.LBB0_297
# %bb.296:                              # %cond.true3386
	movb	2092(%rbx), %al
	notb	%al
	andb	$1, %al
	jmp	.LBB0_298
.LBB0_297:                              # %cond.false3390
	movb	1492963(%rbx), %al
.LBB0_298:                              # %if.else3401
	movb	%al, 1492963(%rbx)
	cmpb	$0, 2114(%rbx)
	je	.LBB0_300
# %bb.299:                              # %cond.true3404
	movb	2109(%rbx), %al
	notb	%al
	andb	$1, %al
	jmp	.LBB0_301
.LBB0_300:                              # %cond.false3408
	movb	1492966(%rbx), %al
.LBB0_301:                              # %if.end3415
	movb	%al, 1492966(%rbx)
	movb	1769(%rbx), %al
	notb	%al
	testb	%al, 93(%rbx)
	je	.LBB0_303
# %bb.302:                              # %if.then3421
	cmpb	$0, 1732(%rbx)
	setne	1492813(%rbx)
	movb	$1, 1492814(%rbx)
	movb	1764(%rbx), %al
	movb	%al, 1492812(%rbx)
.LBB0_303:                              # %if.end3426
	testb	%r14b, %r14b
	je	.LBB0_305
# %bb.304:                              # %if.then3447
	movb	$0, 1492962(%rbx)
	xorl	%eax, %eax
	jmp	.LBB0_311
.LBB0_305:                              # %if.else3430
	cmpb	$0, 2090(%rbx)
	je	.LBB0_307
# %bb.306:                              # %cond.true3433
	movb	2086(%rbx), %al
	notb	%al
	andb	$1, %al
	jmp	.LBB0_308
.LBB0_307:                              # %cond.false3437
	movb	1492962(%rbx), %al
.LBB0_308:                              # %if.else3448
	movb	%al, 1492962(%rbx)
	cmpb	$0, 2108(%rbx)
	je	.LBB0_310
# %bb.309:                              # %cond.true3451
	movb	2104(%rbx), %al
	notb	%al
	andb	$1, %al
	jmp	.LBB0_311
.LBB0_310:                              # %cond.false3455
	movb	1492965(%rbx), %al
.LBB0_311:                              # %if.end3462
	movb	%al, 1492965(%rbx)
	testb	%r9b, %r9b
	je	.LBB0_313
# %bb.312:                              # %if.then3510
	movb	$0, 68143(%rbx)
	movb	$0, 68180(%rbx)
	movb	$0, 68152(%rbx)
	xorl	%eax, %eax
	jmp	.LBB0_321
.LBB0_313:                              # %if.else3466
	movb	68147(%rbx), %al
	cmpb	68148(%rbx), %al
	jne	.LBB0_315
# %bb.314:                              # %cond.false3472
	movb	68143(%rbx), %al
.LBB0_315:                              # %if.else3481
	movb	%al, 68143(%rbx)
	movb	68184(%rbx), %al
	cmpb	68185(%rbx), %al
	jne	.LBB0_317
# %bb.316:                              # %cond.false3487
	movb	68180(%rbx), %al
.LBB0_317:                              # %if.else3496
	movb	%al, 68180(%rbx)
	movb	68156(%rbx), %al
	cmpb	68157(%rbx), %al
	jne	.LBB0_319
# %bb.318:                              # %cond.false3502
	movb	68152(%rbx), %al
.LBB0_319:                              # %if.else3511
	movb	%al, 68152(%rbx)
	movb	68193(%rbx), %al
	cmpb	68194(%rbx), %al
	jne	.LBB0_321
# %bb.320:                              # %cond.false3517
	movb	68189(%rbx), %al
.LBB0_321:                              # %if.end3522
	movb	%al, 68189(%rbx)
	movb	68117(%rbx), %al
	orb	%r9b, %al
	movb	%al, 68092(%rbx)
	movb	2183(%rbx), %al
	notb	%al
	testb	%al, 70(%rbx)
	je	.LBB0_323
# %bb.322:                              # %if.then3533
	movb	70907(%rbx), %al
	andb	$63, %al
	movb	%al, 1493081(%rbx)
	movb	$1, 1493082(%rbx)
	movb	2178(%rbx), %al
	movb	%al, 1493080(%rbx)
.LBB0_323:                              # %if.end3537
	movb	1638(%rbx), %al
	orb	1682(%rbx), %al
	testb	$1, %al
	jne	.LBB0_325
# %bb.324:                              # %if.then3545
	movzbl	1635(%rbx), %eax
	movq	277664(%rbx,%rax,8), %rax
	movq	%rax, 1503712(%rbx)
	movb	$1, 1492739(%rbx)
	movb	1677(%rbx), %al
	movb	%al, 1492738(%rbx)
.LBB0_325:                              # %if.end3548
	testb	%r14b, %r14b
	je	.LBB0_327
# %bb.326:
	xorl	%eax, %eax
	jmp	.LBB0_329
.LBB0_327:                              # %if.else3552
	movb	2174(%rbx), %al
	cmpb	2175(%rbx), %al
	jne	.LBB0_329
# %bb.328:                              # %cond.false3558
	movb	2170(%rbx), %al
.LBB0_329:                              # %if.end3563
	movb	%al, 2170(%rbx)
	testb	$1, %r8b
	jne	.LBB0_331
# %bb.330:                              # %if.then3573
	movzbl	70859(%rbx), %eax
	movb	1009944(%rbx,%rax), %al
	movb	%al, 1497767(%rbx)
	movb	$1, 1497768(%rbx)
	movb	70908(%rbx), %al
	movb	%al, 1497766(%rbx)
.LBB0_331:                              # %if.end3578
	testb	%r14b, %r14b
	je	.LBB0_333
# %bb.332:
	xorl	%eax, %eax
	jmp	.LBB0_335
.LBB0_333:                              # %if.else3582
	movb	557(%rbx), %al
	cmpb	558(%rbx), %al
	jne	.LBB0_335
# %bb.334:                              # %cond.false3588
	movb	553(%rbx), %al
.LBB0_335:                              # %if.end3593
	movb	%al, 553(%rbx)
	movb	3685(%rbx), %r8b
	notb	%r8b
	andb	61(%rbx), %r8b
	je	.LBB0_340
# %bb.336:                              # %if.then3599
	movb	243(%rbx), %dl
	testb	%dl, %dl
	je	.LBB0_338
# %bb.337:                              # %if.then3601
	movl	84972(%rbx), %eax
	movl	%eax, 1500496(%rbx)
	leaq	84976(%rbx), %r12
	leaq	84980(%rbx), %r13
	leaq	84984(%rbx), %rdi
	leaq	84988(%rbx), %rcx
	leaq	84992(%rbx), %rax
	leaq	84996(%rbx), %rsi
	leaq	85000(%rbx), %rbp
	jmp	.LBB0_339
.LBB0_338:                              # %if.else3632
	movl	_ZN7VSimTop12__Vconst1667E(%rip), %eax
	movl	%eax, 1500496(%rbx)
	movl	$_ZN7VSimTop12__Vconst1667E+28, %ebp
	movl	$_ZN7VSimTop12__Vconst1667E+24, %esi
	movl	$_ZN7VSimTop12__Vconst1667E+20, %eax
	movl	$_ZN7VSimTop12__Vconst1667E+16, %ecx
	movl	$_ZN7VSimTop12__Vconst1667E+12, %edi
	movl	$_ZN7VSimTop12__Vconst1667E+8, %r13d
	movl	$_ZN7VSimTop12__Vconst1667E+4, %r12d
.LBB0_339:                              # %if.then3666
	movl	(%rbp), %r15d
	movl	(%rsi), %r10d
	movl	(%rax), %eax
	movl	(%rcx), %ecx
	movl	(%rdi), %edi
	movl	(%r13), %ebp
	movl	(%r12), %esi
	movl	%esi, 1500500(%rbx)
	movl	%ebp, 1500504(%rbx)
	movl	%edi, 1500508(%rbx)
	movl	%ecx, 1500512(%rbx)
	movl	%eax, 1500516(%rbx)
	movl	%r10d, 1500520(%rbx)
	movl	%r15d, 1500524(%rbx)
	movb	$1, 1493245(%rbx)
	movb	3680(%rbx), %al
	movb	%al, 1493244(%rbx)
	andb	2231(%rbx), %dl
	orb	242(%rbx), %dl
	movb	%dl, 1493241(%rbx)
	movb	$1, 1493242(%rbx)
	movb	%al, 1493240(%rbx)
	movabsq	$17179869183, %r10      # imm = 0x3FFFFFFFF
.LBB0_340:                              # %if.end3675
	testb	%r14b, %r14b
	je	.LBB0_342
# %bb.341:                              # %if.then3693
	movb	$0, 1538(%rbx)
	xorl	%eax, %eax
	jmp	.LBB0_346
.LBB0_342:                              # %if.else3679
	movb	1542(%rbx), %al
	cmpb	1543(%rbx), %al
	jne	.LBB0_344
# %bb.343:                              # %cond.false3685
	movb	1538(%rbx), %al
.LBB0_344:                              # %if.else3694
	movb	%al, 1538(%rbx)
	movb	1770(%rbx), %al
	cmpb	1771(%rbx), %al
	jne	.LBB0_346
# %bb.345:                              # %cond.false3700
	movb	1766(%rbx), %al
.LBB0_346:                              # %if.end3705
	movb	%al, 1766(%rbx)
	testb	%r11b, %r11b
	je	.LBB0_348
# %bb.347:
	xorl	%eax, %eax
	jmp	.LBB0_351
.LBB0_348:                              # %if.else3709
	cmpb	$0, 70915(%rbx)
	je	.LBB0_350
# %bb.349:                              # %cond.true3711
	movb	70909(%rbx), %al
	notb	%al
	andb	$1, %al
	jmp	.LBB0_351
.LBB0_350:                              # %cond.false3715
	movb	1497765(%rbx), %al
.LBB0_351:                              # %if.end3722
	movb	%al, 1497765(%rbx)
	movb	68118(%rbx), %al
	orb	%r9b, %al
	movb	%al, 68093(%rbx)
	movb	1559(%rbx), %al
	notb	%al
	testb	%al, 70935(%rbx)
	je	.LBB0_353
# %bb.352:                              # %if.then3733
	movb	70962(%rbx), %al
	andb	71045(%rbx), %al
	movb	70985(%rbx), %cl
	andb	71048(%rbx), %cl
	orb	%al, %cl
	movb	70998(%rbx), %al
	andb	71051(%rbx), %al
	movb	70948(%rbx), %dl
	andb	71054(%rbx), %dl
	orb	%al, %dl
	orb	%cl, %dl
	movb	71012(%rbx), %al
	andb	71057(%rbx), %al
	movb	71027(%rbx), %cl
	andb	71060(%rbx), %cl
	orb	%al, %cl
	orb	%dl, %cl
	movb	%cl, 1492606(%rbx)
	movb	$1, 1492607(%rbx)
	movb	1554(%rbx), %al
	movb	%al, 1492605(%rbx)
.LBB0_353:                              # %if.end3758
	movb	687(%rbx), %al
	orb	648(%rbx), %al
	testb	$1, %al
	jne	.LBB0_355
# %bb.354:                              # %if.then3845
	movzbl	684(%rbx), %eax
	movl	274120(%rbx,%rax,4), %ecx
	movl	%ecx, 1498672(%rbx)
	movb	$1, 1491495(%rbx)
	movb	643(%rbx), %cl
	movb	%cl, 1491494(%rbx)
	movq	%rax, %rdx
	shlq	$5, %rdx
	movl	274056(%rbx,%rdx), %esi
	movl	%esi, 1498640(%rbx)
	movl	274060(%rbx,%rdx), %esi
	movl	%esi, 1498644(%rbx)
	movl	274064(%rbx,%rdx), %esi
	movl	%esi, 1498648(%rbx)
	movl	274068(%rbx,%rdx), %esi
	movl	%esi, 1498652(%rbx)
	movl	274072(%rbx,%rdx), %esi
	movl	%esi, 1498656(%rbx)
	movl	274076(%rbx,%rdx), %esi
	movl	%esi, 1498660(%rbx)
	movl	274080(%rbx,%rdx), %esi
	movl	%esi, 1498664(%rbx)
	movl	274084(%rbx,%rdx), %edx
	movl	%edx, 1498668(%rbx)
	movb	$1, 1491492(%rbx)
	movb	%cl, 1491491(%rbx)
	movb	274128(%rbx,%rax), %al
	movb	%al, 1491489(%rbx)
	movb	$1, 1491490(%rbx)
	movb	%cl, 1491488(%rbx)
.LBB0_355:                              # %if.end3850
	movb	1654(%rbx), %al
	orb	1615(%rbx), %al
	testb	$1, %al
	jne	.LBB0_357
# %bb.356:                              # %if.then3886
	movzbl	1651(%rbx), %eax
	movb	277728(%rbx,%rax), %cl
	movb	%cl, 1492671(%rbx)
	movb	$1, 1492672(%rbx)
	movb	1610(%rbx), %cl
	movb	%cl, 1492670(%rbx)
	movq	277712(%rbx,%rax,8), %rdx
	movq	%rdx, 1503688(%rbx)
	movb	$1, 1492668(%rbx)
	movb	%cl, 1492667(%rbx)
	movb	277736(%rbx,%rax), %al
	movb	%al, 1492665(%rbx)
	movb	$1, 1492666(%rbx)
	movb	%cl, 1492664(%rbx)
.LBB0_357:                              # %if.end3891
	testb	%r9b, %r9b
	je	.LBB0_359
# %bb.358:
	xorl	%eax, %eax
	jmp	.LBB0_361
.LBB0_359:                              # %if.else3895
	movb	68317(%rbx), %al
	cmpb	68318(%rbx), %al
	jne	.LBB0_361
# %bb.360:                              # %cond.false3901
	movb	68313(%rbx), %al
.LBB0_361:                              # %if.end3906
	movb	%al, 68313(%rbx)
	movzbl	68183(%rbx), %eax
	xorl	$1, %eax
	xorl	%ecx, %ecx
	cmpb	$1, 52968(%rbx)
	sete	%cl
	testl	%eax, %ecx
	je	.LBB0_363
# %bb.362:                              # %if.then3914
	movb	$1, 1497128(%rbx)
	movb	68178(%rbx), %al
	movb	%al, 1497127(%rbx)
.LBB0_363:                              # %if.end3915
	testb	%r11b, %r11b
	je	.LBB0_365
# %bb.364:                              # %if.then3935
	movb	$0, 1497732(%rbx)
	xorl	%eax, %eax
	jmp	.LBB0_371
.LBB0_365:                              # %if.else3919
	cmpb	$0, 70892(%rbx)
	je	.LBB0_367
# %bb.366:                              # %cond.true3921
	movb	70886(%rbx), %al
	notb	%al
	andb	$1, %al
	jmp	.LBB0_368
.LBB0_367:                              # %cond.false3925
	movb	1497732(%rbx), %al
.LBB0_368:                              # %if.else3936
	movb	%al, 1497732(%rbx)
	cmpb	$0, 70893(%rbx)
	je	.LBB0_370
# %bb.369:                              # %cond.true3938
	movb	70887(%rbx), %al
	notb	%al
	andb	$1, %al
	jmp	.LBB0_371
.LBB0_370:                              # %cond.false3942
	movb	1497718(%rbx), %al
.LBB0_371:                              # %if.end3949
	movb	%al, 1497718(%rbx)
	testb	%r9b, %r9b
	je	.LBB0_373
# %bb.372:                              # %if.then3982
	movb	$0, 68135(%rbx)
	movb	$0, 68172(%rbx)
	movb	3946(%rbx), %al
	movb	%al, 10484(%rbx)
	xorl	%eax, %eax
	movabsq	$64424509440, %rdx      # imm = 0xF00000000
	jmp	.LBB0_379
.LBB0_373:                              # %if.else3953
	movb	68139(%rbx), %al
	cmpb	68140(%rbx), %al
	movabsq	$64424509440, %rdx      # imm = 0xF00000000
	jne	.LBB0_375
# %bb.374:                              # %cond.false3959
	movb	68135(%rbx), %al
.LBB0_375:                              # %if.else3968
	movb	%al, 68135(%rbx)
	movb	68176(%rbx), %al
	cmpb	68177(%rbx), %al
	jne	.LBB0_377
# %bb.376:                              # %cond.false3974
	movb	68172(%rbx), %al
.LBB0_377:                              # %if.else3983
	movb	%al, 68172(%rbx)
	movb	3946(%rbx), %al
	movb	%al, 10484(%rbx)
	movb	68220(%rbx), %al
	cmpb	68221(%rbx), %al
	jne	.LBB0_379
# %bb.378:                              # %cond.false3989
	movb	68216(%rbx), %al
.LBB0_379:                              # %if.end3994
	movb	%al, 68216(%rbx)
	testb	%r14b, %r14b
	je	.LBB0_381
# %bb.380:
	xorl	%eax, %eax
	jmp	.LBB0_383
.LBB0_381:                              # %if.else3998
	movb	1560(%rbx), %al
	cmpb	1561(%rbx), %al
	jne	.LBB0_383
# %bb.382:                              # %cond.false4004
	movb	1556(%rbx), %al
.LBB0_383:                              # %if.end4009
	movb	%al, 1556(%rbx)
	testb	%r8b, %r8b
	je	.LBB0_385
# %bb.384:                              # %if.then4017
	movb	1811(%rbx), %al
	andb	242(%rbx), %al
	movb	2232(%rbx), %cl
	andb	243(%rbx), %cl
	orb	%al, %cl
	movb	%cl, 1493238(%rbx)
	movb	$1, 1493239(%rbx)
	movb	3680(%rbx), %al
	movb	%al, 1493237(%rbx)
.LBB0_385:                              # %if.end4029
	movq	241512(%rbx), %rax
	andq	%r10, %rax
	movq	%rax, 241264(%rbx)
	movl	134292(%rbx), %eax
	shlq	$32, %rax
	movl	134288(%rbx), %ecx
	andq	%rdx, %rax
	orq	%rcx, %rax
	movq	%rax, 241320(%rbx)
	movl	134100(%rbx), %eax
	shlq	$32, %rax
	movl	134096(%rbx), %ecx
	andq	%rdx, %rax
	orq	%rcx, %rax
	movq	%rax, 241312(%rbx)
	movl	134024(%rbx), %eax
	movl	134028(%rbx), %ecx
	shlq	$32, %rcx
	andq	%rdx, %rcx
	orq	%rax, %rcx
	movq	%rcx, 241304(%rbx)
	movl	134364(%rbx), %eax
	shlq	$32, %rax
	movl	134360(%rbx), %ecx
	andq	%rdx, %rax
	orq	%rcx, %rax
	movq	%rax, 241288(%rbx)
	movl	134148(%rbx), %eax
	shlq	$32, %rax
	movl	134144(%rbx), %ecx
	andq	%rdx, %rax
	orq	%rcx, %rax
	movq	%rax, 241280(%rbx)
	callq	_Z9vl_rand64v
	movl	%eax, 264(%rsp)
	callq	_Z9vl_rand64v
	movl	%eax, 268(%rsp)
	callq	_Z9vl_rand64v
	movl	%eax, 272(%rsp)
	callq	_Z9vl_rand64v
	movl	%eax, 276(%rsp)
	callq	_Z9vl_rand64v
	movl	%eax, 280(%rsp)
	callq	_Z9vl_rand64v
	movl	%eax, 284(%rsp)
	callq	_Z9vl_rand64v
	movl	%eax, 288(%rsp)
	callq	_Z9vl_rand64v
	movl	%eax, 292(%rsp)
	callq	_Z9vl_rand64v
	movl	%eax, 296(%rsp)
	callq	_Z9vl_rand64v
	movl	%eax, 300(%rsp)
	callq	_Z9vl_rand64v
	movl	%eax, 304(%rsp)
	callq	_Z9vl_rand64v
	movl	%eax, 308(%rsp)
	callq	_Z9vl_rand64v
	movl	%eax, 312(%rsp)
	callq	_Z9vl_rand64v
	movl	%eax, 316(%rsp)
	callq	_Z9vl_rand64v
	movl	%eax, 320(%rsp)
	callq	_Z9vl_rand64v
	movl	%eax, 324(%rsp)
	callq	_Z9vl_rand64v
	movl	%eax, 328(%rsp)
	callq	_Z9vl_rand64v
	movl	%eax, 332(%rsp)
	callq	_Z9vl_rand64v
	movl	%eax, 336(%rsp)
	callq	_Z9vl_rand64v
	movl	%eax, 340(%rsp)
	callq	_Z9vl_rand64v
	movl	%eax, 344(%rsp)
	callq	_Z9vl_rand64v
	movl	%eax, 348(%rsp)
	callq	_Z9vl_rand64v
	movl	%eax, 352(%rsp)
	callq	_Z9vl_rand64v
	movl	%eax, 356(%rsp)
	callq	_Z9vl_rand64v
	movl	%eax, 360(%rsp)
	callq	_Z9vl_rand64v
	movl	%eax, 364(%rsp)
	callq	_Z9vl_rand64v
	movl	%eax, 368(%rsp)
	callq	_Z9vl_rand64v
	movl	%eax, 372(%rsp)
	callq	_Z9vl_rand64v
	movl	%eax, 376(%rsp)
	callq	_Z9vl_rand64v
	movl	%eax, 380(%rsp)
	callq	_Z9vl_rand64v
	movl	%eax, 384(%rsp)
	callq	_Z9vl_rand64v
	movl	%eax, 388(%rsp)
	callq	_Z9vl_rand64v
	movl	%eax, 392(%rsp)
	callq	_Z9vl_rand64v
	movl	%eax, 396(%rsp)
	callq	_Z9vl_rand64v
	movl	%eax, 400(%rsp)
	callq	_Z9vl_rand64v
	movl	%eax, 404(%rsp)
	callq	_Z9vl_rand64v
	movl	%eax, 408(%rsp)
	callq	_Z9vl_rand64v
	movl	%eax, 412(%rsp)
	callq	_Z9vl_rand64v
	movl	%eax, 416(%rsp)
	callq	_Z9vl_rand64v
	movl	%eax, 420(%rsp)
	callq	_Z9vl_rand64v
	movl	%eax, 424(%rsp)
	callq	_Z9vl_rand64v
	movl	%eax, 428(%rsp)
	callq	_Z9vl_rand64v
	movl	%eax, 432(%rsp)
	callq	_Z9vl_rand64v
	movl	%eax, 436(%rsp)
	callq	_Z9vl_rand64v
	movl	%eax, 440(%rsp)
	callq	_Z9vl_rand64v
	movl	%eax, 444(%rsp)
	callq	_Z9vl_rand64v
	movl	%eax, 448(%rsp)
	callq	_Z9vl_rand64v
	movl	%eax, 452(%rsp)
	callq	_Z9vl_rand64v
	movl	%eax, 456(%rsp)
	callq	_Z9vl_rand64v
	movl	%eax, 460(%rsp)
	callq	_Z9vl_rand64v
	movl	%eax, 464(%rsp)
	callq	_Z9vl_rand64v
	movl	%eax, 468(%rsp)
	callq	_Z9vl_rand64v
	movl	%eax, 472(%rsp)
	callq	_Z9vl_rand64v
	movl	%eax, 476(%rsp)
	callq	_Z9vl_rand64v
	movl	%eax, 480(%rsp)
	callq	_Z9vl_rand64v
	movl	%eax, 484(%rsp)
	callq	_Z9vl_rand64v
	movl	%eax, 488(%rsp)
	callq	_Z9vl_rand64v
	movl	%eax, 492(%rsp)
	callq	_Z9vl_rand64v
	movl	%eax, 496(%rsp)
	callq	_Z9vl_rand64v
	movl	%eax, 500(%rsp)
	callq	_Z9vl_rand64v
	movl	%eax, 504(%rsp)
	callq	_Z9vl_rand64v
	movl	%eax, 508(%rsp)
	callq	_Z9vl_rand64v
	callq	_Z9vl_rand64v
	movl	%eax, 512(%rsp)
	callq	_Z9vl_rand64v
	movq	%rax, %r14
	callq	_Z9vl_rand64v
	movl	%r14d, 516(%rsp)
	callq	_Z9vl_rand64v
	movl	%eax, 784(%rsp)
	leaq	788(%rsp), %rdi
	leaq	264(%rsp), %rsi
	movl	$252, %edx
	callq	memcpy
	movl	%r14d, 1040(%rsp)
	callq	_Z9vl_rand64v
	movl	%eax, 1312(%rsp)
	leaq	1316(%rsp), %rdi
	leaq	784(%rsp), %rsi
	movl	$256, %edx              # imm = 0x100
	callq	memcpy
	movl	%r14d, 1572(%rsp)
	callq	_Z9vl_rand64v
	movl	%eax, 1848(%rsp)
	leaq	1852(%rsp), %rdi
	leaq	1312(%rsp), %rsi
	movl	$260, %edx              # imm = 0x104
	callq	memcpy
	movl	%r14d, 2112(%rsp)
	callq	_Z9vl_rand64v
	movl	%eax, 2392(%rsp)
	leaq	2396(%rsp), %rdi
	leaq	1848(%rsp), %rsi
	movl	$264, %edx              # imm = 0x108
	callq	memcpy
	movl	%r14d, 2660(%rsp)
	callq	_Z9vl_rand64v
	movl	%eax, 2944(%rsp)
	leaq	2948(%rsp), %rdi
	leaq	2392(%rsp), %rsi
	movl	$268, %edx              # imm = 0x10C
	callq	memcpy
	movl	%r14d, 3216(%rsp)
	callq	_Z9vl_rand64v
	movl	%eax, 3504(%rsp)
	leaq	3508(%rsp), %rdi
	leaq	2944(%rsp), %rsi
	movl	$272, %edx              # imm = 0x110
	callq	memcpy
	movl	%r14d, 3780(%rsp)
	callq	_Z9vl_rand64v
	movl	%eax, 4072(%rsp)
	leaq	4076(%rsp), %rdi
	leaq	3504(%rsp), %rsi
	movl	$276, %edx              # imm = 0x114
	callq	memcpy
	movl	%r14d, 4352(%rsp)
	callq	_Z9vl_rand64v
	movl	%eax, 4648(%rsp)
	leaq	4652(%rsp), %rdi
	leaq	4072(%rsp), %rsi
	movl	$280, %edx              # imm = 0x118
	callq	memcpy
	movl	%r14d, 4932(%rsp)
	callq	_Z9vl_rand64v
	movl	%eax, 5232(%rsp)
	leaq	5236(%rsp), %rdi
	leaq	4648(%rsp), %rsi
	movl	$284, %edx              # imm = 0x11C
	callq	memcpy
	movl	%r14d, 5520(%rsp)
	callq	_Z9vl_rand64v
	movl	%eax, 5824(%rsp)
	leaq	5828(%rsp), %rdi
	leaq	5232(%rsp), %rsi
	movl	$288, %edx              # imm = 0x120
	callq	memcpy
	movl	%r14d, 6116(%rsp)
	callq	_Z9vl_rand64v
	movl	%eax, 6424(%rsp)
	leaq	6428(%rsp), %rdi
	leaq	5824(%rsp), %rsi
	movl	$292, %edx              # imm = 0x124
	callq	memcpy
	movl	%r14d, 6720(%rsp)
	callq	_Z9vl_rand64v
	movl	%eax, 7032(%rsp)
	leaq	7036(%rsp), %rdi
	leaq	6424(%rsp), %rsi
	movl	$296, %edx              # imm = 0x128
	callq	memcpy
	movl	%r14d, 7332(%rsp)
	callq	_Z9vl_rand64v
	movl	%eax, 7648(%rsp)
	leaq	7652(%rsp), %rdi
	leaq	7032(%rsp), %rsi
	movl	$300, %edx              # imm = 0x12C
	callq	memcpy
	movl	%r14d, 7952(%rsp)
	callq	_Z9vl_rand64v
	movl	%eax, 8272(%rsp)
	leaq	8276(%rsp), %rdi
	leaq	7648(%rsp), %rsi
	movl	$304, %edx              # imm = 0x130
	callq	memcpy
	movl	%r14d, 8580(%rsp)
	callq	_Z9vl_rand64v
	movl	%eax, 8904(%rsp)
	leaq	8908(%rsp), %rdi
	leaq	8272(%rsp), %rsi
	movl	$308, %edx              # imm = 0x134
	callq	memcpy
	movl	%r14d, 9216(%rsp)
	callq	_Z9vl_rand64v
	movl	%eax, 9544(%rsp)
	leaq	9548(%rsp), %rdi
	leaq	8904(%rsp), %rsi
	movl	$312, %edx              # imm = 0x138
	callq	memcpy
	movl	%r14d, 9860(%rsp)
	callq	_Z9vl_rand64v
	movl	%eax, 10192(%rsp)
	leaq	10196(%rsp), %rdi
	leaq	9544(%rsp), %rsi
	movl	$316, %edx              # imm = 0x13C
	callq	memcpy
	movl	%r14d, 10512(%rsp)
	callq	_Z9vl_rand64v
	movl	%eax, 10848(%rsp)
	leaq	10852(%rsp), %rdi
	leaq	10192(%rsp), %rsi
	movl	$320, %edx              # imm = 0x140
	callq	memcpy
	movl	%r14d, 11172(%rsp)
	callq	_Z9vl_rand64v
	movl	%eax, 11512(%rsp)
	leaq	11516(%rsp), %rdi
	leaq	10848(%rsp), %rsi
	movl	$324, %edx              # imm = 0x144
	callq	memcpy
	movl	%r14d, 11840(%rsp)
	callq	_Z9vl_rand64v
	movl	%eax, 12184(%rsp)
	leaq	12188(%rsp), %rdi
	leaq	11512(%rsp), %rsi
	movl	$328, %edx              # imm = 0x148
	callq	memcpy
	movl	%r14d, 12516(%rsp)
	callq	_Z9vl_rand64v
	movl	%eax, 12864(%rsp)
	leaq	12868(%rsp), %rdi
	leaq	12184(%rsp), %rsi
	movl	$332, %edx              # imm = 0x14C
	callq	memcpy
	movl	%r14d, 13200(%rsp)
	callq	_Z9vl_rand64v
	movl	%eax, 13552(%rsp)
	leaq	13556(%rsp), %rdi
	leaq	12864(%rsp), %rsi
	movl	$336, %edx              # imm = 0x150
	callq	memcpy
	movl	%r14d, 13892(%rsp)
	callq	_Z9vl_rand64v
	movl	%eax, 14248(%rsp)
	leaq	14252(%rsp), %rdi
	leaq	13552(%rsp), %rsi
	movl	$340, %edx              # imm = 0x154
	callq	memcpy
	movl	%r14d, 14592(%rsp)
	callq	_Z9vl_rand64v
	movl	%eax, 14952(%rsp)
	leaq	14956(%rsp), %rdi
	leaq	14248(%rsp), %rsi
	movl	$344, %edx              # imm = 0x158
	callq	memcpy
	movl	%r14d, 15300(%rsp)
	callq	_Z9vl_rand64v
	movl	%eax, 15664(%rsp)
	leaq	15668(%rsp), %rdi
	leaq	14952(%rsp), %rsi
	movl	$348, %edx              # imm = 0x15C
	callq	memcpy
	movl	%r14d, 16016(%rsp)
	callq	_Z9vl_rand64v
	movl	%eax, 16384(%rsp)
	leaq	16388(%rsp), %rdi
	leaq	15664(%rsp), %rsi
	movl	$352, %edx              # imm = 0x160
	callq	memcpy
	movl	%r14d, 16740(%rsp)
	callq	_Z9vl_rand64v
	movl	%eax, 17112(%rsp)
	leaq	17116(%rsp), %rdi
	leaq	16384(%rsp), %rsi
	movl	$356, %edx              # imm = 0x164
	callq	memcpy
	movl	%r14d, 17472(%rsp)
	callq	_Z9vl_rand64v
	movl	%eax, 17848(%rsp)
	leaq	17852(%rsp), %rdi
	leaq	17112(%rsp), %rsi
	movl	$360, %edx              # imm = 0x168
	callq	memcpy
	movl	%r14d, 18212(%rsp)
	callq	_Z9vl_rand64v
	movl	%eax, 18592(%rsp)
	leaq	18596(%rsp), %rdi
	leaq	17848(%rsp), %rsi
	movl	$364, %edx              # imm = 0x16C
	callq	memcpy
	movl	%r14d, 18960(%rsp)
	callq	_Z9vl_rand64v
	movl	%eax, 19344(%rsp)
	leaq	19348(%rsp), %rdi
	leaq	18592(%rsp), %rsi
	movl	$368, %edx              # imm = 0x170
	callq	memcpy
	movl	%r14d, 19716(%rsp)
	callq	_Z9vl_rand64v
	movl	%eax, 20104(%rsp)
	leaq	20108(%rsp), %rdi
	leaq	19344(%rsp), %rsi
	movl	$372, %edx              # imm = 0x174
	callq	memcpy
	movl	%r14d, 20480(%rsp)
	callq	_Z9vl_rand64v
	movl	%eax, 20872(%rsp)
	leaq	20876(%rsp), %rdi
	leaq	20104(%rsp), %rsi
	movl	$376, %edx              # imm = 0x178
	callq	memcpy
	movl	%r14d, 21252(%rsp)
	callq	_Z9vl_rand64v
	movl	%eax, 21648(%rsp)
	leaq	21652(%rsp), %rdi
	leaq	20872(%rsp), %rsi
	movl	$380, %edx              # imm = 0x17C
	callq	memcpy
	movl	%r14d, 22032(%rsp)
	callq	_Z9vl_rand64v
	movl	%eax, 22432(%rsp)
	leaq	22436(%rsp), %rdi
	leaq	21648(%rsp), %rsi
	movl	$384, %edx              # imm = 0x180
	callq	memcpy
	movl	%r14d, 22820(%rsp)
	callq	_Z9vl_rand64v
	movl	%eax, 23224(%rsp)
	leaq	23228(%rsp), %rdi
	leaq	22432(%rsp), %rsi
	movl	$388, %edx              # imm = 0x184
	callq	memcpy
	movl	%r14d, 23616(%rsp)
	callq	_Z9vl_rand64v
	movl	%eax, 24024(%rsp)
	leaq	24028(%rsp), %rdi
	leaq	23224(%rsp), %rsi
	movl	$392, %edx              # imm = 0x188
	callq	memcpy
	movl	%r14d, 24420(%rsp)
	callq	_Z9vl_rand64v
	movl	%eax, 24832(%rsp)
	leaq	24836(%rsp), %rdi
	leaq	24024(%rsp), %rsi
	movl	$396, %edx              # imm = 0x18C
	callq	memcpy
	movl	%r14d, 25232(%rsp)
	callq	_Z9vl_rand64v
	movl	%eax, 25648(%rsp)
	leaq	25652(%rsp), %rdi
	leaq	24832(%rsp), %rsi
	movl	$400, %edx              # imm = 0x190
	callq	memcpy
	movl	%r14d, 26052(%rsp)
	callq	_Z9vl_rand64v
	movl	%eax, 26472(%rsp)
	leaq	26476(%rsp), %rdi
	leaq	25648(%rsp), %rsi
	movl	$404, %edx              # imm = 0x194
	callq	memcpy
	movl	%r14d, 26880(%rsp)
	callq	_Z9vl_rand64v
	movl	%eax, 27304(%rsp)
	leaq	27308(%rsp), %rdi
	leaq	26472(%rsp), %rsi
	movl	$408, %edx              # imm = 0x198
	callq	memcpy
	movl	%r14d, 27716(%rsp)
	callq	_Z9vl_rand64v
	movl	%eax, 28144(%rsp)
	leaq	28148(%rsp), %rdi
	leaq	27304(%rsp), %rsi
	movl	$412, %edx              # imm = 0x19C
	callq	memcpy
	movl	%r14d, 28560(%rsp)
	callq	_Z9vl_rand64v
	movl	%eax, 28992(%rsp)
	leaq	28996(%rsp), %rdi
	leaq	28144(%rsp), %rsi
	movl	$416, %edx              # imm = 0x1A0
	callq	memcpy
	movl	%r14d, 29412(%rsp)
	callq	_Z9vl_rand64v
	movl	%eax, 29848(%rsp)
	leaq	29852(%rsp), %rdi
	leaq	28992(%rsp), %rsi
	movl	$420, %edx              # imm = 0x1A4
	callq	memcpy
	movl	%r14d, 30272(%rsp)
	callq	_Z9vl_rand64v
	movl	%eax, 30712(%rsp)
	leaq	30716(%rsp), %rdi
	leaq	29848(%rsp), %rsi
	movl	$424, %edx              # imm = 0x1A8
	callq	memcpy
	movl	%r14d, 31140(%rsp)
	callq	_Z9vl_rand64v
	movl	%eax, 31584(%rsp)
	leaq	31588(%rsp), %rdi
	leaq	30712(%rsp), %rsi
	movl	$428, %edx              # imm = 0x1AC
	callq	memcpy
	movl	%r14d, 32016(%rsp)
	callq	_Z9vl_rand64v
	movl	%eax, 32464(%rsp)
	leaq	32468(%rsp), %rdi
	leaq	31584(%rsp), %rsi
	movl	$432, %edx              # imm = 0x1B0
	callq	memcpy
	movl	%r14d, 32900(%rsp)
	callq	_Z9vl_rand64v
	movl	%eax, 33352(%rsp)
	leaq	33356(%rsp), %rdi
	leaq	32464(%rsp), %rsi
	movl	$436, %edx              # imm = 0x1B4
	callq	memcpy
	movl	%r14d, 33792(%rsp)
	callq	_Z9vl_rand64v
	movl	%eax, 34248(%rsp)
	leaq	34252(%rsp), %rdi
	leaq	33352(%rsp), %rsi
	movl	$440, %edx              # imm = 0x1B8
	callq	memcpy
	movl	%r14d, 34692(%rsp)
	callq	_Z9vl_rand64v
	movl	%eax, 35152(%rsp)
	leaq	35156(%rsp), %rdi
	leaq	34248(%rsp), %rsi
	movl	$444, %edx              # imm = 0x1BC
	callq	memcpy
	movl	%r14d, 35600(%rsp)
	callq	_Z9vl_rand64v
	movl	%eax, 36064(%rsp)
	leaq	36068(%rsp), %rdi
	leaq	35152(%rsp), %rsi
	movl	$448, %edx              # imm = 0x1C0
	callq	memcpy
	movl	%r14d, 36516(%rsp)
	callq	_Z9vl_rand64v
	movl	%eax, 36984(%rsp)
	leaq	36988(%rsp), %rdi
	leaq	36064(%rsp), %rsi
	movl	$452, %edx              # imm = 0x1C4
	callq	memcpy
	movl	%r14d, 37440(%rsp)
	callq	_Z9vl_rand64v
	movl	%eax, 37912(%rsp)
	leaq	37916(%rsp), %rdi
	leaq	36984(%rsp), %rsi
	movl	$456, %edx              # imm = 0x1C8
	callq	memcpy
	movl	%r14d, 38372(%rsp)
	callq	_Z9vl_rand64v
	movl	%eax, 38848(%rsp)
	leaq	38852(%rsp), %rdi
	leaq	37912(%rsp), %rsi
	movl	$460, %edx              # imm = 0x1CC
	callq	memcpy
	movl	%r14d, 39312(%rsp)
	callq	_Z9vl_rand64v
	movl	%eax, 39792(%rsp)
	leaq	39796(%rsp), %rdi
	leaq	38848(%rsp), %rsi
	movl	$464, %edx              # imm = 0x1D0
	callq	memcpy
	movl	%r14d, 40260(%rsp)
	callq	_Z9vl_rand64v
	movl	%eax, 40744(%rsp)
	leaq	40748(%rsp), %rdi
	leaq	39792(%rsp), %rsi
	movl	$468, %edx              # imm = 0x1D4
	callq	memcpy
	movl	%r14d, 41216(%rsp)
	callq	_Z9vl_rand64v
	movl	%eax, 41704(%rsp)
	leaq	41708(%rsp), %rdi
	leaq	40744(%rsp), %rsi
	movl	$472, %edx              # imm = 0x1D8
	callq	memcpy
	movl	%r14d, 42180(%rsp)
	callq	_Z9vl_rand64v
	movl	%eax, 42672(%rsp)
	leaq	42676(%rsp), %rdi
	leaq	41704(%rsp), %rsi
	movl	$476, %edx              # imm = 0x1DC
	callq	memcpy
	movl	%r14d, 43152(%rsp)
	callq	_Z9vl_rand64v
	movl	%eax, 43648(%rsp)
	leaq	43652(%rsp), %rdi
	leaq	42672(%rsp), %rsi
	movl	$480, %edx              # imm = 0x1E0
	callq	memcpy
	movl	%r14d, 44132(%rsp)
	callq	_Z9vl_rand64v
	movl	%eax, 44632(%rsp)
	leaq	44636(%rsp), %rdi
	leaq	43648(%rsp), %rsi
	movl	$484, %edx              # imm = 0x1E4
	callq	memcpy
	movl	%r14d, 45120(%rsp)
	callq	_Z9vl_rand64v
	movl	%eax, 45624(%rsp)
	leaq	45628(%rsp), %rdi
	leaq	44632(%rsp), %rsi
	movl	$488, %edx              # imm = 0x1E8
	callq	memcpy
	movl	%r14d, 46116(%rsp)
	callq	_Z9vl_rand64v
	movl	%eax, 46624(%rsp)
	leaq	46628(%rsp), %rdi
	leaq	45624(%rsp), %rsi
	movl	$492, %edx              # imm = 0x1EC
	callq	memcpy
	movl	%r14d, 47120(%rsp)
	callq	_Z9vl_rand64v
	movl	%eax, 47632(%rsp)
	leaq	47636(%rsp), %rdi
	leaq	46624(%rsp), %rsi
	movl	$496, %edx              # imm = 0x1F0
	callq	memcpy
	movl	%r14d, 48132(%rsp)
	callq	_Z9vl_rand64v
	movl	%eax, 48648(%rsp)
	leaq	48652(%rsp), %rdi
	leaq	47632(%rsp), %rsi
	movl	$500, %edx              # imm = 0x1F4
	callq	memcpy
	movl	%r14d, 49152(%rsp)
	callq	_Z9vl_rand64v
	movl	%eax, 49672(%rsp)
	leaq	49676(%rsp), %rdi
	leaq	48648(%rsp), %rsi
	movl	$504, %edx              # imm = 0x1F8
	callq	memcpy
	movl	%r14d, 50180(%rsp)
	leaq	93500(%rbx), %rdi
	leaq	49672(%rsp), %rsi
	movl	$512, %edx              # imm = 0x200
	callq	memcpy
	callq	_Z9vl_rand64v
	movl	%eax, 8(%rsp)
	callq	_Z9vl_rand64v
	movl	%eax, 12(%rsp)
	callq	_Z9vl_rand64v
	movl	%eax, 16(%rsp)
	callq	_Z9vl_rand64v
	movl	%eax, 20(%rsp)
	callq	_Z9vl_rand64v
	movl	%eax, 24(%rsp)
	callq	_Z9vl_rand64v
	movl	%eax, 28(%rsp)
	callq	_Z9vl_rand64v
	movl	%eax, 32(%rsp)
	callq	_Z9vl_rand64v
	movl	%eax, 36(%rsp)
	callq	_Z9vl_rand64v
	movl	%eax, 40(%rsp)
	callq	_Z9vl_rand64v
	movl	%eax, 44(%rsp)
	callq	_Z9vl_rand64v
	movl	%eax, 48(%rsp)
	callq	_Z9vl_rand64v
	movl	%eax, 52(%rsp)
	callq	_Z9vl_rand64v
	movl	%eax, 56(%rsp)
	callq	_Z9vl_rand64v
	movl	%eax, 60(%rsp)
	callq	_Z9vl_rand64v
	movl	%eax, 64(%rsp)
	callq	_Z9vl_rand64v
	movl	%eax, 68(%rsp)
	callq	_Z9vl_rand64v
	movl	%eax, 72(%rsp)
	callq	_Z9vl_rand64v
	movl	%eax, 76(%rsp)
	callq	_Z9vl_rand64v
	movl	%eax, 80(%rsp)
	callq	_Z9vl_rand64v
	movl	%eax, 84(%rsp)
	callq	_Z9vl_rand64v
	movl	%eax, 88(%rsp)
	callq	_Z9vl_rand64v
	movl	%eax, 92(%rsp)
	callq	_Z9vl_rand64v
	movl	%eax, 96(%rsp)
	callq	_Z9vl_rand64v
	movl	%eax, 100(%rsp)
	callq	_Z9vl_rand64v
	movl	%eax, 104(%rsp)
	callq	_Z9vl_rand64v
	movl	%eax, 108(%rsp)
	callq	_Z9vl_rand64v
	movl	%eax, 112(%rsp)
	callq	_Z9vl_rand64v
	movl	%eax, 116(%rsp)
	callq	_Z9vl_rand64v
	movl	%eax, 120(%rsp)
	callq	_Z9vl_rand64v
	movl	%eax, 124(%rsp)
	callq	_Z9vl_rand64v
	movl	%eax, 128(%rsp)
	callq	_Z9vl_rand64v
	movl	%eax, 132(%rsp)
	callq	_Z9vl_rand64v
	movl	%eax, 136(%rsp)
	callq	_Z9vl_rand64v
	movl	%eax, 140(%rsp)
	callq	_Z9vl_rand64v
	movl	%eax, 144(%rsp)
	callq	_Z9vl_rand64v
	movl	%eax, 148(%rsp)
	callq	_Z9vl_rand64v
	movl	%eax, 152(%rsp)
	callq	_Z9vl_rand64v
	movl	%eax, 156(%rsp)
	callq	_Z9vl_rand64v
	movl	%eax, 160(%rsp)
	callq	_Z9vl_rand64v
	movl	%eax, 164(%rsp)
	callq	_Z9vl_rand64v
	movl	%eax, 168(%rsp)
	callq	_Z9vl_rand64v
	movl	%eax, 172(%rsp)
	callq	_Z9vl_rand64v
	movl	%eax, 176(%rsp)
	callq	_Z9vl_rand64v
	movl	%eax, 180(%rsp)
	callq	_Z9vl_rand64v
	movl	%eax, 184(%rsp)
	callq	_Z9vl_rand64v
	movl	%eax, 188(%rsp)
	callq	_Z9vl_rand64v
	movl	%eax, 192(%rsp)
	callq	_Z9vl_rand64v
	movl	%eax, 196(%rsp)
	callq	_Z9vl_rand64v
	movl	%eax, 200(%rsp)
	callq	_Z9vl_rand64v
	movl	%eax, 204(%rsp)
	callq	_Z9vl_rand64v
	movl	%eax, 208(%rsp)
	callq	_Z9vl_rand64v
	movl	%eax, 212(%rsp)
	callq	_Z9vl_rand64v
	movl	%eax, 216(%rsp)
	callq	_Z9vl_rand64v
	movl	%eax, 220(%rsp)
	callq	_Z9vl_rand64v
	movl	%eax, 224(%rsp)
	callq	_Z9vl_rand64v
	movl	%eax, 228(%rsp)
	callq	_Z9vl_rand64v
	movl	%eax, 232(%rsp)
	callq	_Z9vl_rand64v
	movl	%eax, 236(%rsp)
	callq	_Z9vl_rand64v
	movl	%eax, 240(%rsp)
	callq	_Z9vl_rand64v
	movl	%eax, 244(%rsp)
	callq	_Z9vl_rand64v
	movl	%eax, 248(%rsp)
	callq	_Z9vl_rand64v
	movl	%eax, 252(%rsp)
	callq	_Z9vl_rand64v
	callq	_Z9vl_rand64v
	movl	%eax, 256(%rsp)
	callq	_Z9vl_rand64v
	movq	%rax, %r14
	callq	_Z9vl_rand64v
	movl	%r14d, 260(%rsp)
	callq	_Z9vl_rand64v
	movl	%eax, 520(%rsp)
	leaq	524(%rsp), %rdi
	leaq	8(%rsp), %rsi
	movl	$252, %edx
	callq	memcpy
	movl	%r14d, 776(%rsp)
	callq	_Z9vl_rand64v
	movl	%eax, 1048(%rsp)
	leaq	1052(%rsp), %rdi
	leaq	520(%rsp), %rsi
	movl	$256, %edx              # imm = 0x100
	callq	memcpy
	movl	%r14d, 1308(%rsp)
	callq	_Z9vl_rand64v
	movl	%eax, 1576(%rsp)
	leaq	1580(%rsp), %rdi
	leaq	1048(%rsp), %rsi
	movl	$260, %edx              # imm = 0x104
	callq	memcpy
	movl	%r14d, 1840(%rsp)
	callq	_Z9vl_rand64v
	movl	%eax, 2120(%rsp)
	leaq	2124(%rsp), %rdi
	leaq	1576(%rsp), %rsi
	movl	$264, %edx              # imm = 0x108
	callq	memcpy
	movl	%r14d, 2388(%rsp)
	callq	_Z9vl_rand64v
	movl	%eax, 2664(%rsp)
	leaq	2668(%rsp), %rdi
	leaq	2120(%rsp), %rsi
	movl	$268, %edx              # imm = 0x10C
	callq	memcpy
	movl	%r14d, 2936(%rsp)
	callq	_Z9vl_rand64v
	movl	%eax, 3224(%rsp)
	leaq	3228(%rsp), %rdi
	leaq	2664(%rsp), %rsi
	movl	$272, %edx              # imm = 0x110
	callq	memcpy
	movl	%r14d, 3500(%rsp)
	callq	_Z9vl_rand64v
	movl	%eax, 3784(%rsp)
	leaq	3788(%rsp), %rdi
	leaq	3224(%rsp), %rsi
	movl	$276, %edx              # imm = 0x114
	callq	memcpy
	movl	%r14d, 4064(%rsp)
	callq	_Z9vl_rand64v
	movl	%eax, 4360(%rsp)
	leaq	4364(%rsp), %rdi
	leaq	3784(%rsp), %rsi
	movl	$280, %edx              # imm = 0x118
	callq	memcpy
	movl	%r14d, 4644(%rsp)
	callq	_Z9vl_rand64v
	movl	%eax, 4936(%rsp)
	leaq	4940(%rsp), %rdi
	leaq	4360(%rsp), %rsi
	movl	$284, %edx              # imm = 0x11C
	callq	memcpy
	movl	%r14d, 5224(%rsp)
	callq	_Z9vl_rand64v
	movl	%eax, 5528(%rsp)
	leaq	5532(%rsp), %rdi
	leaq	4936(%rsp), %rsi
	movl	$288, %edx              # imm = 0x120
	callq	memcpy
	movl	%r14d, 5820(%rsp)
	callq	_Z9vl_rand64v
	movl	%eax, 6120(%rsp)
	leaq	6124(%rsp), %rdi
	leaq	5528(%rsp), %rsi
	movl	$292, %edx              # imm = 0x124
	callq	memcpy
	movl	%r14d, 6416(%rsp)
	callq	_Z9vl_rand64v
	movl	%eax, 6728(%rsp)
	leaq	6732(%rsp), %rdi
	leaq	6120(%rsp), %rsi
	movl	$296, %edx              # imm = 0x128
	callq	memcpy
	movl	%r14d, 7028(%rsp)
	callq	_Z9vl_rand64v
	movl	%eax, 7336(%rsp)
	leaq	7340(%rsp), %rdi
	leaq	6728(%rsp), %rsi
	movl	$300, %edx              # imm = 0x12C
	callq	memcpy
	movl	%r14d, 7640(%rsp)
	callq	_Z9vl_rand64v
	movl	%eax, 7960(%rsp)
	leaq	7964(%rsp), %rdi
	leaq	7336(%rsp), %rsi
	movl	$304, %edx              # imm = 0x130
	callq	memcpy
	movl	%r14d, 8268(%rsp)
	callq	_Z9vl_rand64v
	movl	%eax, 8584(%rsp)
	leaq	8588(%rsp), %rdi
	leaq	7960(%rsp), %rsi
	movl	$308, %edx              # imm = 0x134
	callq	memcpy
	movl	%r14d, 8896(%rsp)
	callq	_Z9vl_rand64v
	movl	%eax, 9224(%rsp)
	leaq	9228(%rsp), %rdi
	leaq	8584(%rsp), %rsi
	movl	$312, %edx              # imm = 0x138
	callq	memcpy
	movl	%r14d, 9540(%rsp)
	callq	_Z9vl_rand64v
	movl	%eax, 9864(%rsp)
	leaq	9868(%rsp), %rdi
	leaq	9224(%rsp), %rsi
	movl	$316, %edx              # imm = 0x13C
	callq	memcpy
	movl	%r14d, 10184(%rsp)
	callq	_Z9vl_rand64v
	movl	%eax, 10520(%rsp)
	leaq	10524(%rsp), %rdi
	leaq	9864(%rsp), %rsi
	movl	$320, %edx              # imm = 0x140
	callq	memcpy
	movl	%r14d, 10844(%rsp)
	callq	_Z9vl_rand64v
	movl	%eax, 11176(%rsp)
	leaq	11180(%rsp), %rdi
	leaq	10520(%rsp), %rsi
	movl	$324, %edx              # imm = 0x144
	callq	memcpy
	movl	%r14d, 11504(%rsp)
	callq	_Z9vl_rand64v
	movl	%eax, 11848(%rsp)
	leaq	11852(%rsp), %rdi
	leaq	11176(%rsp), %rsi
	movl	$328, %edx              # imm = 0x148
	callq	memcpy
	movl	%r14d, 12180(%rsp)
	callq	_Z9vl_rand64v
	movl	%eax, 12520(%rsp)
	leaq	12524(%rsp), %rdi
	leaq	11848(%rsp), %rsi
	movl	$332, %edx              # imm = 0x14C
	callq	memcpy
	movl	%r14d, 12856(%rsp)
	callq	_Z9vl_rand64v
	movl	%eax, 13208(%rsp)
	leaq	13212(%rsp), %rdi
	leaq	12520(%rsp), %rsi
	movl	$336, %edx              # imm = 0x150
	callq	memcpy
	movl	%r14d, 13548(%rsp)
	callq	_Z9vl_rand64v
	movl	%eax, 13896(%rsp)
	leaq	13900(%rsp), %rdi
	leaq	13208(%rsp), %rsi
	movl	$340, %edx              # imm = 0x154
	callq	memcpy
	movl	%r14d, 14240(%rsp)
	callq	_Z9vl_rand64v
	movl	%eax, 14600(%rsp)
	leaq	14604(%rsp), %rdi
	leaq	13896(%rsp), %rsi
	movl	$344, %edx              # imm = 0x158
	callq	memcpy
	movl	%r14d, 14948(%rsp)
	callq	_Z9vl_rand64v
	movl	%eax, 15304(%rsp)
	leaq	15308(%rsp), %rdi
	leaq	14600(%rsp), %rsi
	movl	$348, %edx              # imm = 0x15C
	callq	memcpy
	movl	%r14d, 15656(%rsp)
	callq	_Z9vl_rand64v
	movl	%eax, 16024(%rsp)
	leaq	16028(%rsp), %rdi
	leaq	15304(%rsp), %rsi
	movl	$352, %edx              # imm = 0x160
	callq	memcpy
	movl	%r14d, 16380(%rsp)
	callq	_Z9vl_rand64v
	movl	%eax, 16744(%rsp)
	leaq	16748(%rsp), %rdi
	leaq	16024(%rsp), %rsi
	movl	$356, %edx              # imm = 0x164
	callq	memcpy
	movl	%r14d, 17104(%rsp)
	callq	_Z9vl_rand64v
	movl	%eax, 17480(%rsp)
	leaq	17484(%rsp), %rdi
	leaq	16744(%rsp), %rsi
	movl	$360, %edx              # imm = 0x168
	callq	memcpy
	movl	%r14d, 17844(%rsp)
	callq	_Z9vl_rand64v
	movl	%eax, 18216(%rsp)
	leaq	18220(%rsp), %rdi
	leaq	17480(%rsp), %rsi
	movl	$364, %edx              # imm = 0x16C
	callq	memcpy
	movl	%r14d, 18584(%rsp)
	callq	_Z9vl_rand64v
	movl	%eax, 18968(%rsp)
	leaq	18972(%rsp), %rdi
	leaq	18216(%rsp), %rsi
	movl	$368, %edx              # imm = 0x170
	callq	memcpy
	movl	%r14d, 19340(%rsp)
	callq	_Z9vl_rand64v
	movl	%eax, 19720(%rsp)
	leaq	19724(%rsp), %rdi
	leaq	18968(%rsp), %rsi
	movl	$372, %edx              # imm = 0x174
	callq	memcpy
	movl	%r14d, 20096(%rsp)
	callq	_Z9vl_rand64v
	movl	%eax, 20488(%rsp)
	leaq	20492(%rsp), %rdi
	leaq	19720(%rsp), %rsi
	movl	$376, %edx              # imm = 0x178
	callq	memcpy
	movl	%r14d, 20868(%rsp)
	callq	_Z9vl_rand64v
	movl	%eax, 21256(%rsp)
	leaq	21260(%rsp), %rdi
	leaq	20488(%rsp), %rsi
	movl	$380, %edx              # imm = 0x17C
	callq	memcpy
	movl	%r14d, 21640(%rsp)
	callq	_Z9vl_rand64v
	movl	%eax, 22040(%rsp)
	leaq	22044(%rsp), %rdi
	leaq	21256(%rsp), %rsi
	movl	$384, %edx              # imm = 0x180
	callq	memcpy
	movl	%r14d, 22428(%rsp)
	callq	_Z9vl_rand64v
	movl	%eax, 22824(%rsp)
	leaq	22828(%rsp), %rdi
	leaq	22040(%rsp), %rsi
	movl	$388, %edx              # imm = 0x184
	callq	memcpy
	movl	%r14d, 23216(%rsp)
	callq	_Z9vl_rand64v
	movl	%eax, 23624(%rsp)
	leaq	23628(%rsp), %rdi
	leaq	22824(%rsp), %rsi
	movl	$392, %edx              # imm = 0x188
	callq	memcpy
	movl	%r14d, 24020(%rsp)
	callq	_Z9vl_rand64v
	movl	%eax, 24424(%rsp)
	leaq	24428(%rsp), %rdi
	leaq	23624(%rsp), %rsi
	movl	$396, %edx              # imm = 0x18C
	callq	memcpy
	movl	%r14d, 24824(%rsp)
	callq	_Z9vl_rand64v
	movl	%eax, 25240(%rsp)
	leaq	25244(%rsp), %rdi
	leaq	24424(%rsp), %rsi
	movl	$400, %edx              # imm = 0x190
	callq	memcpy
	movl	%r14d, 25644(%rsp)
	callq	_Z9vl_rand64v
	movl	%eax, 26056(%rsp)
	leaq	26060(%rsp), %rdi
	leaq	25240(%rsp), %rsi
	movl	$404, %edx              # imm = 0x194
	callq	memcpy
	movl	%r14d, 26464(%rsp)
	callq	_Z9vl_rand64v
	movl	%eax, 26888(%rsp)
	leaq	26892(%rsp), %rdi
	leaq	26056(%rsp), %rsi
	movl	$408, %edx              # imm = 0x198
	callq	memcpy
	movl	%r14d, 27300(%rsp)
	callq	_Z9vl_rand64v
	movl	%eax, 27720(%rsp)
	leaq	27724(%rsp), %rdi
	leaq	26888(%rsp), %rsi
	movl	$412, %edx              # imm = 0x19C
	callq	memcpy
	movl	%r14d, 28136(%rsp)
	callq	_Z9vl_rand64v
	movl	%eax, 28568(%rsp)
	leaq	28572(%rsp), %rdi
	leaq	27720(%rsp), %rsi
	movl	$416, %edx              # imm = 0x1A0
	callq	memcpy
	movl	%r14d, 28988(%rsp)
	callq	_Z9vl_rand64v
	movl	%eax, 29416(%rsp)
	leaq	29420(%rsp), %rdi
	leaq	28568(%rsp), %rsi
	movl	$420, %edx              # imm = 0x1A4
	callq	memcpy
	movl	%r14d, 29840(%rsp)
	callq	_Z9vl_rand64v
	movl	%eax, 30280(%rsp)
	leaq	30284(%rsp), %rdi
	leaq	29416(%rsp), %rsi
	movl	$424, %edx              # imm = 0x1A8
	callq	memcpy
	movl	%r14d, 30708(%rsp)
	callq	_Z9vl_rand64v
	movl	%eax, 31144(%rsp)
	leaq	31148(%rsp), %rdi
	leaq	30280(%rsp), %rsi
	movl	$428, %edx              # imm = 0x1AC
	callq	memcpy
	movl	%r14d, 31576(%rsp)
	callq	_Z9vl_rand64v
	movl	%eax, 32024(%rsp)
	leaq	32028(%rsp), %rdi
	leaq	31144(%rsp), %rsi
	movl	$432, %edx              # imm = 0x1B0
	callq	memcpy
	movl	%r14d, 32460(%rsp)
	callq	_Z9vl_rand64v
	movl	%eax, 32904(%rsp)
	leaq	32908(%rsp), %rdi
	leaq	32024(%rsp), %rsi
	movl	$436, %edx              # imm = 0x1B4
	callq	memcpy
	movl	%r14d, 33344(%rsp)
	callq	_Z9vl_rand64v
	movl	%eax, 33800(%rsp)
	leaq	33804(%rsp), %rdi
	leaq	32904(%rsp), %rsi
	movl	$440, %edx              # imm = 0x1B8
	callq	memcpy
	movl	%r14d, 34244(%rsp)
	callq	_Z9vl_rand64v
	movl	%eax, 34696(%rsp)
	leaq	34700(%rsp), %rdi
	leaq	33800(%rsp), %rsi
	movl	$444, %edx              # imm = 0x1BC
	callq	memcpy
	movl	%r14d, 35144(%rsp)
	callq	_Z9vl_rand64v
	movl	%eax, 35608(%rsp)
	leaq	35612(%rsp), %rdi
	leaq	34696(%rsp), %rsi
	movl	$448, %edx              # imm = 0x1C0
	callq	memcpy
	movl	%r14d, 36060(%rsp)
	callq	_Z9vl_rand64v
	movl	%eax, 36520(%rsp)
	leaq	36524(%rsp), %rdi
	leaq	35608(%rsp), %rsi
	movl	$452, %edx              # imm = 0x1C4
	callq	memcpy
	movl	%r14d, 36976(%rsp)
	callq	_Z9vl_rand64v
	movl	%eax, 37448(%rsp)
	leaq	37452(%rsp), %rdi
	leaq	36520(%rsp), %rsi
	movl	$456, %edx              # imm = 0x1C8
	callq	memcpy
	movl	%r14d, 37908(%rsp)
	callq	_Z9vl_rand64v
	movl	%eax, 38376(%rsp)
	leaq	38380(%rsp), %rdi
	leaq	37448(%rsp), %rsi
	movl	$460, %edx              # imm = 0x1CC
	callq	memcpy
	movl	%r14d, 38840(%rsp)
	callq	_Z9vl_rand64v
	movl	%eax, 39320(%rsp)
	leaq	39324(%rsp), %rdi
	leaq	38376(%rsp), %rsi
	movl	$464, %edx              # imm = 0x1D0
	callq	memcpy
	movl	%r14d, 39788(%rsp)
	callq	_Z9vl_rand64v
	movl	%eax, 40264(%rsp)
	leaq	40268(%rsp), %rdi
	leaq	39320(%rsp), %rsi
	movl	$468, %edx              # imm = 0x1D4
	callq	memcpy
	movl	%r14d, 40736(%rsp)
	callq	_Z9vl_rand64v
	movl	%eax, 41224(%rsp)
	leaq	41228(%rsp), %rdi
	leaq	40264(%rsp), %rsi
	movl	$472, %edx              # imm = 0x1D8
	callq	memcpy
	movl	%r14d, 41700(%rsp)
	callq	_Z9vl_rand64v
	movl	%eax, 42184(%rsp)
	leaq	42188(%rsp), %rdi
	leaq	41224(%rsp), %rsi
	movl	$476, %edx              # imm = 0x1DC
	callq	memcpy
	movl	%r14d, 42664(%rsp)
	callq	_Z9vl_rand64v
	movl	%eax, 43160(%rsp)
	leaq	43164(%rsp), %rdi
	leaq	42184(%rsp), %rsi
	movl	$480, %edx              # imm = 0x1E0
	callq	memcpy
	movl	%r14d, 43644(%rsp)
	callq	_Z9vl_rand64v
	movl	%eax, 44136(%rsp)
	leaq	44140(%rsp), %rdi
	leaq	43160(%rsp), %rsi
	movl	$484, %edx              # imm = 0x1E4
	callq	memcpy
	movl	%r14d, 44624(%rsp)
	callq	_Z9vl_rand64v
	movl	%eax, 45128(%rsp)
	leaq	45132(%rsp), %rdi
	leaq	44136(%rsp), %rsi
	movl	$488, %edx              # imm = 0x1E8
	callq	memcpy
	movl	%r14d, 45620(%rsp)
	callq	_Z9vl_rand64v
	movl	%eax, 46120(%rsp)
	leaq	46124(%rsp), %rdi
	leaq	45128(%rsp), %rsi
	movl	$492, %edx              # imm = 0x1EC
	callq	memcpy
	movl	%r14d, 46616(%rsp)
	callq	_Z9vl_rand64v
	movl	%eax, 47128(%rsp)
	leaq	47132(%rsp), %rdi
	leaq	46120(%rsp), %rsi
	movl	$496, %edx              # imm = 0x1F0
	callq	memcpy
	movl	%r14d, 47628(%rsp)
	callq	_Z9vl_rand64v
	movl	%eax, 48136(%rsp)
	leaq	48140(%rsp), %rdi
	leaq	47128(%rsp), %rsi
	movl	$500, %edx              # imm = 0x1F4
	callq	memcpy
	movl	%r14d, 48640(%rsp)
	callq	_Z9vl_rand64v
	movl	%eax, 49160(%rsp)
	leaq	49164(%rsp), %rdi
	leaq	48136(%rsp), %rsi
	movl	$504, %edx              # imm = 0x1F8
	callq	memcpy
	movl	%r14d, 49668(%rsp)
	leaq	96072(%rbx), %rdi
	leaq	49160(%rsp), %rsi
	movl	$512, %edx              # imm = 0x200
	callq	memcpy
	movb	70933(%rbx), %r9b
	testb	%r9b, %r9b
	je	.LBB0_387
# %bb.386:
	xorl	%eax, %eax
	jmp	.LBB0_389
.LBB0_387:                              # %if.else4874
	movb	3686(%rbx), %al
	cmpb	3687(%rbx), %al
	jne	.LBB0_389
# %bb.388:                              # %cond.false4880
	movb	3682(%rbx), %al
.LBB0_389:                              # %if.end4885
	movb	%al, 3682(%rbx)
	movb	17(%rbx), %sil
	testb	%sil, %sil
	je	.LBB0_391
# %bb.390:
	xorl	%eax, %eax
	jmp	.LBB0_393
.LBB0_391:                              # %if.else4889
	movb	70883(%rbx), %dl
	movb	70885(%rbx), %al
	notb	%dl
	andb	$1, %dl
	cmpb	%dl, %al
	jne	.LBB0_393
# %bb.392:                              # %cond.false4897
	movb	70881(%rbx), %al
.LBB0_393:                              # %if.end4902
	movb	%al, 70881(%rbx)
	movb	4169(%rbx), %al
	notb	%al
	andb	4168(%rbx), %al
	movb	%al, 4176(%rbx)
	movb	4180(%rbx), %dl
	notb	%dl
	andb	4179(%rbx), %dl
	movb	%dl, 4187(%rbx)
	movb	2198(%rbx), %cl
	orb	70929(%rbx), %cl
	testb	$1, %cl
	jne	.LBB0_395
# %bb.394:                              # %if.then4920
	movzbl	2195(%rbx), %ecx
	movb	279104(%rbx,%rcx), %cl
	movb	%cl, 1497795(%rbx)
	movb	$1, 1497796(%rbx)
	movb	70924(%rbx), %cl
	movb	%cl, 1497794(%rbx)
.LBB0_395:                              # %if.end4923
	testb	%al, %al
	movl	$4177, %eax             # imm = 0x1051
	movl	$4167, %ecx             # imm = 0x1047
	cmoveq	%rax, %rcx
	testb	%dl, %dl
	movl	$4188, %eax             # imm = 0x105C
	movl	$4178, %edx             # imm = 0x1052
	cmoveq	%rax, %rdx
	movb	(%rbx,%rcx), %al
	movb	%al, 4177(%rbx)
	movb	(%rbx,%rdx), %al
	movb	%al, 4188(%rbx)
	testb	%r9b, %r9b
	je	.LBB0_397
# %bb.396:
	xorl	%eax, %eax
	jmp	.LBB0_399
.LBB0_397:                              # %if.else4951
	movb	3757(%rbx), %al
	cmpb	3758(%rbx), %al
	jne	.LBB0_399
# %bb.398:                              # %cond.false4957
	movb	3753(%rbx), %al
.LBB0_399:                              # %if.end4962
	movb	%al, 3753(%rbx)
	movb	1638(%rbx), %al
	orb	1682(%rbx), %al
	testb	$1, %al
	jne	.LBB0_401
# %bb.400:                              # %if.then4987
	movzbl	1635(%rbx), %eax
	movb	277662(%rbx,%rax), %cl
	movb	%cl, 1492735(%rbx)
	movb	$1, 1492736(%rbx)
	movb	1677(%rbx), %cl
	movb	%cl, 1492734(%rbx)
	movb	277680(%rbx,%rax), %al
	movb	%al, 1492732(%rbx)
	movb	$1, 1492733(%rbx)
	movb	%cl, 1492731(%rbx)
.LBB0_401:                              # %if.end4992
	movb	46887(%rbx), %r10b
	movb	%r10b, 60278(%rbx)
	movb	46888(%rbx), %r8b
	movb	%r8b, 60518(%rbx)
	movb	2190(%rbx), %al
	orb	70921(%rbx), %al
	testb	$1, %al
	jne	.LBB0_403
# %bb.402:                              # %if.then5124
	movzbl	2187(%rbx), %eax
	movb	279018(%rbx,%rax), %cl
	movb	%cl, 1497791(%rbx)
	movb	$1, 1497792(%rbx)
	movb	70916(%rbx), %cl
	movb	%cl, 1497790(%rbx)
	movb	279016(%rbx,%rax), %dl
	movb	%dl, 1497788(%rbx)
	movb	$1, 1497789(%rbx)
	movb	%cl, 1497787(%rbx)
	movq	%rax, %rdx
	shlq	$5, %rdx
	movups	279040(%rbx,%rdx), %xmm0
	movups	%xmm0, 1503344(%rbx)
	movups	279056(%rbx,%rdx), %xmm0
	movups	%xmm0, 1503360(%rbx)
	movb	$1, 1497786(%rbx)
	movb	%cl, 1497785(%rbx)
	movb	279020(%rbx,%rax), %dl
	movb	%dl, 1497783(%rbx)
	movb	$1, 1497784(%rbx)
	movb	%cl, 1497782(%rbx)
	movb	279022(%rbx,%rax), %dl
	movb	%dl, 1497779(%rbx)
	movb	$1, 1497780(%rbx)
	movb	%cl, 1497778(%rbx)
	movq	279024(%rbx,%rax,8), %rax
	movq	%rax, 1505232(%rbx)
	movb	$1, 1497776(%rbx)
	movb	%cl, 1497775(%rbx)
.LBB0_403:                              # %if.end5129
	testb	%r9b, %r9b
	je	.LBB0_405
# %bb.404:                              # %if.then5162
	movb	$0, 1644(%rbx)
	movb	$0, 1669(%rbx)
	xorl	%edi, %edi
	jmp	.LBB0_411
.LBB0_405:                              # %if.else5133
	movb	1648(%rbx), %al
	cmpb	1649(%rbx), %al
	jne	.LBB0_407
# %bb.406:                              # %cond.false5139
	movb	1644(%rbx), %al
.LBB0_407:                              # %if.else5148
	movb	%al, 1644(%rbx)
	movb	1673(%rbx), %al
	cmpb	1674(%rbx), %al
	jne	.LBB0_409
# %bb.408:                              # %cond.false5154
	movb	1669(%rbx), %al
.LBB0_409:                              # %if.else5163
	movb	%al, 1669(%rbx)
	movb	1515(%rbx), %dil
	cmpb	1516(%rbx), %dil
	jne	.LBB0_411
# %bb.410:                              # %cond.false5169
	movb	1511(%rbx), %dil
.LBB0_411:                              # %if.end5174
	movb	%dil, 1511(%rbx)
	cmpb	$0, 68358(%rbx)
	je	.LBB0_413
# %bb.412:
	xorl	%edi, %edi
	jmp	.LBB0_415
.LBB0_413:                              # %if.else5177
	movb	68852(%rbx), %dil
	cmpb	68853(%rbx), %dil
	jne	.LBB0_415
# %bb.414:                              # %cond.false5183
	movb	68849(%rbx), %dil
.LBB0_415:                              # %if.end5188
	movb	%dil, 68849(%rbx)
	movzbl	68183(%rbx), %eax
	xorl	$1, %eax
	xorl	%ecx, %ecx
	cmpb	$1, 52968(%rbx)
	sete	%cl
	testl	%eax, %ecx
	je	.LBB0_417
# %bb.416:                              # %if.then5198
	movb	52974(%rbx), %al
	movb	%al, 1497139(%rbx)
	movb	$1, 1497140(%rbx)
	movb	68178(%rbx), %al
	movb	%al, 1497138(%rbx)
.LBB0_417:                              # %if.end5200
	movb	1647(%rbx), %al
	notb	%al
	testb	%al, 91(%rbx)
	je	.LBB0_419
# %bb.418:                              # %if.then5206
	movl	83260(%rbx), %eax
	movl	%eax, 1500060(%rbx)
	movb	$1, 1492699(%rbx)
	movb	1642(%rbx), %al
	movb	%al, 1492698(%rbx)
.LBB0_419:                              # %if.end5207
	movb	1697(%rbx), %al
	notb	%al
	testb	%al, 1687(%rbx)
	je	.LBB0_421
# %bb.420:                              # %if.then5222
	movb	1719(%rbx), %al
	movb	1720(%rbx), %cl
	movb	%al, 1492750(%rbx)
	movb	$1, 1492751(%rbx)
	movb	%cl, 1492748(%rbx)
	movb	$1, 1492749(%rbx)
.LBB0_421:                              # %if.end5223
	movb	1700(%rbx), %al
	notb	%al
	testb	%al, 1688(%rbx)
	je	.LBB0_423
# %bb.422:                              # %if.then5239
	movb	1719(%rbx), %al
	movb	1720(%rbx), %cl
	movb	%al, 1492754(%rbx)
	movb	$1, 1492755(%rbx)
	movb	%cl, 1492752(%rbx)
	movb	$1, 1492753(%rbx)
.LBB0_423:                              # %if.end5241
	movb	1672(%rbx), %al
	notb	%al
	testb	%al, 92(%rbx)
	je	.LBB0_425
# %bb.424:                              # %if.then5256
	movb	1667(%rbx), %al
	movb	1718(%rbx), %cl
	movb	%cl, 1492721(%rbx)
	movb	$1, 1492722(%rbx)
	movb	%al, 1492720(%rbx)
	movl	83260(%rbx), %ecx
	movl	%ecx, 1500064(%rbx)
	movb	$1, 1492724(%rbx)
	movb	%al, 1492723(%rbx)
.LBB0_425:                              # %if.end5259
	movl	%r9d, %eax
	notb	%al
	movb	3709(%rbx), %cl
	andb	%al, %cl
	movb	%cl, 3708(%rbx)
	movb	3718(%rbx), %cl
	andb	%al, %cl
	movb	%cl, 3717(%rbx)
	movb	3693(%rbx), %cl
	andb	%al, %cl
	movb	%cl, 3692(%rbx)
	andb	3729(%rbx), %al
	movb	%al, 3728(%rbx)
	movb	1691(%rbx), %al
	notb	%al
	testb	%al, 1685(%rbx)
	je	.LBB0_427
# %bb.426:                              # %if.then5299
	movb	1719(%rbx), %al
	movb	1720(%rbx), %cl
	movb	%al, 1492742(%rbx)
	movb	$1, 1492743(%rbx)
	movb	%cl, 1492740(%rbx)
	movb	$1, 1492741(%rbx)
.LBB0_427:                              # %if.end5301
	movb	1694(%rbx), %al
	notb	%al
	testb	%al, 1686(%rbx)
	je	.LBB0_429
# %bb.428:                              # %if.then5317
	movb	1719(%rbx), %al
	movb	1720(%rbx), %cl
	movb	%al, 1492746(%rbx)
	movb	$1, 1492747(%rbx)
	movb	%cl, 1492744(%rbx)
	movb	$1, 1492745(%rbx)
.LBB0_429:                              # %if.end5319
	testb	%r9b, %r9b
	je	.LBB0_431
# %bb.430:                              # %if.then5376
	movb	$0, 1492635(%rbx)
	movb	$0, 1492631(%rbx)
	movb	$0, 1492677(%rbx)
	xorl	%edi, %edi
	jmp	.LBB0_443
.LBB0_431:                              # %if.else5323
	cmpb	$0, 1584(%rbx)
	je	.LBB0_433
# %bb.432:                              # %cond.true5326
	movb	1578(%rbx), %al
	notb	%al
	andb	$1, %al
	jmp	.LBB0_434
.LBB0_433:                              # %cond.false5330
	movb	1492635(%rbx), %al
.LBB0_434:                              # %if.else5341
	movb	%al, 1492635(%rbx)
	cmpb	$0, 1585(%rbx)
	je	.LBB0_436
# %bb.435:                              # %cond.true5344
	movb	1579(%rbx), %al
	notb	%al
	andb	$1, %al
	jmp	.LBB0_437
.LBB0_436:                              # %cond.false5348
	movb	1492631(%rbx), %al
.LBB0_437:                              # %if.else5359
	movb	%al, 1492631(%rbx)
	cmpb	$0, 1624(%rbx)
	je	.LBB0_439
# %bb.438:                              # %cond.true5362
	movb	1618(%rbx), %al
	notb	%al
	andb	$1, %al
	jmp	.LBB0_440
.LBB0_439:                              # %cond.false5366
	movb	1492677(%rbx), %al
.LBB0_440:                              # %if.else5377
	movb	%al, 1492677(%rbx)
	cmpb	$0, 1625(%rbx)
	je	.LBB0_442
# %bb.441:                              # %cond.true5380
	movb	1619(%rbx), %dil
	notb	%dil
	andb	$1, %dil
	jmp	.LBB0_443
.LBB0_442:                              # %cond.false5384
	movb	1492673(%rbx), %dil
.LBB0_443:                              # %if.end5391
	movb	%dil, 1492673(%rbx)
	cmpb	$0, 46873(%rbx)
	je	.LBB0_445
# %bb.444:                              # %cond.true5393
	movq	262752(%rbx), %rdi
	shrq	$12, %rdi
	andl	$134217727, %edi        # imm = 0x7FFFFFF
	jmp	.LBB0_446
.LBB0_445:                              # %cond.false5397
	movl	205412(%rbx), %edi
.LBB0_446:                              # %cond.end5398
	movl	%edi, 205412(%rbx)
	testb	%r9b, %r9b
	je	.LBB0_448
# %bb.447:                              # %if.then5898
	movw	$0, 1491455(%rbx)
	movw	$0, 1491496(%rbx)
	movb	$0, 1491493(%rbx)
	movb	$0, 1491487(%rbx)
	movb	$0, 1492627(%rbx)
	movb	$0, 1492621(%rbx)
	movb	$0, 1492653(%rbx)
	movb	$0, 1492646(%rbx)
	movb	$0, 1492669(%rbx)
	movb	$0, 1492663(%rbx)
	movb	$0, 1492695(%rbx)
	movb	$0, 1492688(%rbx)
	movb	$0, 1491402(%rbx)
	movb	$0, 1491396(%rbx)
	movb	$0, 1491476(%rbx)
	movb	$0, 1491470(%rbx)
	movb	$0, 1491519(%rbx)
	movb	$0, 1491512(%rbx)
	movb	$0, 1492842(%rbx)
	movb	$0, 1492836(%rbx)
	movb	$0, 1493022(%rbx)
	movb	$0, 1493016(%rbx)
	movb	$0, 1493311(%rbx)
	movb	$0, 1493305(%rbx)
	movb	$0, 1493342(%rbx)
	xorl	%edi, %edi
	jmp	.LBB0_532
.LBB0_448:                              # %if.else5404
	cmpb	$0, 616(%rbx)
	je	.LBB0_450
# %bb.449:                              # %cond.true5407
	movb	610(%rbx), %al
	notb	%al
	andb	$1, %al
	jmp	.LBB0_451
.LBB0_450:                              # %cond.false5412
	movb	1491456(%rbx), %al
.LBB0_451:                              # %if.else5423
	movb	%al, 1491456(%rbx)
	cmpb	$0, 617(%rbx)
	je	.LBB0_453
# %bb.452:                              # %cond.true5426
	movb	611(%rbx), %al
	notb	%al
	andb	$1, %al
	jmp	.LBB0_454
.LBB0_453:                              # %cond.false5430
	movb	1491455(%rbx), %al
.LBB0_454:                              # %if.else5441
	movb	%al, 1491455(%rbx)
	cmpb	$0, 657(%rbx)
	je	.LBB0_456
# %bb.455:                              # %cond.true5444
	movb	651(%rbx), %al
	notb	%al
	andb	$1, %al
	jmp	.LBB0_457
.LBB0_456:                              # %cond.false5448
	movb	1491497(%rbx), %al
.LBB0_457:                              # %if.else5459
	movb	%al, 1491497(%rbx)
	cmpb	$0, 658(%rbx)
	je	.LBB0_459
# %bb.458:                              # %cond.true5462
	movb	652(%rbx), %al
	notb	%al
	andb	$1, %al
	jmp	.LBB0_460
.LBB0_459:                              # %cond.false5466
	movb	1491496(%rbx), %al
.LBB0_460:                              # %if.else5477
	movb	%al, 1491496(%rbx)
	cmpb	$0, 650(%rbx)
	je	.LBB0_462
# %bb.461:                              # %cond.true5480
	movb	644(%rbx), %al
	notb	%al
	andb	$1, %al
	jmp	.LBB0_463
.LBB0_462:                              # %cond.false5485
	movb	1491493(%rbx), %al
.LBB0_463:                              # %if.else5496
	movb	%al, 1491493(%rbx)
	cmpb	$0, 649(%rbx)
	je	.LBB0_465
# %bb.464:                              # %cond.true5499
	movb	643(%rbx), %al
	notb	%al
	andb	$1, %al
	jmp	.LBB0_466
.LBB0_465:                              # %cond.false5504
	movb	1491487(%rbx), %al
.LBB0_466:                              # %if.else5515
	movb	%al, 1491487(%rbx)
	cmpb	$0, 1577(%rbx)
	je	.LBB0_468
# %bb.467:                              # %cond.true5518
	movb	1571(%rbx), %al
	notb	%al
	andb	$1, %al
	jmp	.LBB0_469
.LBB0_468:                              # %cond.false5522
	movb	1492627(%rbx), %al
.LBB0_469:                              # %if.else5533
	movb	%al, 1492627(%rbx)
	cmpb	$0, 1576(%rbx)
	je	.LBB0_471
# %bb.470:                              # %cond.true5536
	movb	1570(%rbx), %al
	notb	%al
	andb	$1, %al
	jmp	.LBB0_472
.LBB0_471:                              # %cond.false5540
	movb	1492621(%rbx), %al
.LBB0_472:                              # %if.else5551
	movb	%al, 1492621(%rbx)
	cmpb	$0, 1601(%rbx)
	je	.LBB0_474
# %bb.473:                              # %cond.true5554
	movb	1595(%rbx), %al
	notb	%al
	andb	$1, %al
	jmp	.LBB0_475
.LBB0_474:                              # %cond.false5558
	movb	1492653(%rbx), %al
.LBB0_475:                              # %if.else5569
	movb	%al, 1492653(%rbx)
	cmpb	$0, 1600(%rbx)
	je	.LBB0_477
# %bb.476:                              # %cond.true5572
	movb	1594(%rbx), %al
	notb	%al
	andb	$1, %al
	jmp	.LBB0_478
.LBB0_477:                              # %cond.false5576
	movb	1492646(%rbx), %al
.LBB0_478:                              # %if.else5587
	movb	%al, 1492646(%rbx)
	cmpb	$0, 1617(%rbx)
	je	.LBB0_480
# %bb.479:                              # %cond.true5590
	movb	1611(%rbx), %al
	notb	%al
	andb	$1, %al
	jmp	.LBB0_481
.LBB0_480:                              # %cond.false5594
	movb	1492669(%rbx), %al
.LBB0_481:                              # %if.else5605
	movb	%al, 1492669(%rbx)
	cmpb	$0, 1616(%rbx)
	je	.LBB0_483
# %bb.482:                              # %cond.true5608
	movb	1610(%rbx), %al
	notb	%al
	andb	$1, %al
	jmp	.LBB0_484
.LBB0_483:                              # %cond.false5613
	movb	1492663(%rbx), %al
.LBB0_484:                              # %if.else5624
	movb	%al, 1492663(%rbx)
	cmpb	$0, 1641(%rbx)
	je	.LBB0_486
# %bb.485:                              # %cond.true5627
	movb	1635(%rbx), %al
	notb	%al
	andb	$1, %al
	jmp	.LBB0_487
.LBB0_486:                              # %cond.false5632
	movb	1492695(%rbx), %al
.LBB0_487:                              # %if.else5643
	movb	%al, 1492695(%rbx)
	cmpb	$0, 1640(%rbx)
	je	.LBB0_489
# %bb.488:                              # %cond.true5646
	movb	1634(%rbx), %al
	notb	%al
	andb	$1, %al
	jmp	.LBB0_490
.LBB0_489:                              # %cond.false5650
	movb	1492688(%rbx), %al
.LBB0_490:                              # %if.else5661
	movb	%al, 1492688(%rbx)
	cmpb	$0, 574(%rbx)
	je	.LBB0_492
# %bb.491:                              # %cond.true5664
	movb	568(%rbx), %al
	notb	%al
	andb	$1, %al
	jmp	.LBB0_493
.LBB0_492:                              # %cond.false5668
	movb	1491402(%rbx), %al
.LBB0_493:                              # %if.else5679
	movb	%al, 1491402(%rbx)
	cmpb	$0, 573(%rbx)
	je	.LBB0_495
# %bb.494:                              # %cond.true5682
	movb	567(%rbx), %al
	notb	%al
	andb	$1, %al
	jmp	.LBB0_496
.LBB0_495:                              # %cond.false5686
	movb	1491396(%rbx), %al
.LBB0_496:                              # %if.else5697
	movb	%al, 1491396(%rbx)
	cmpb	$0, 634(%rbx)
	je	.LBB0_498
# %bb.497:                              # %cond.true5700
	movb	628(%rbx), %al
	notb	%al
	andb	$1, %al
	jmp	.LBB0_499
.LBB0_498:                              # %cond.false5705
	movb	1491476(%rbx), %al
.LBB0_499:                              # %if.else5716
	movb	%al, 1491476(%rbx)
	cmpb	$0, 633(%rbx)
	je	.LBB0_501
# %bb.500:                              # %cond.true5719
	movb	627(%rbx), %al
	notb	%al
	andb	$1, %al
	jmp	.LBB0_502
.LBB0_501:                              # %cond.false5724
	movb	1491470(%rbx), %al
.LBB0_502:                              # %if.else5735
	movb	%al, 1491470(%rbx)
	cmpb	$0, 674(%rbx)
	je	.LBB0_504
# %bb.503:                              # %cond.true5738
	movb	668(%rbx), %al
	notb	%al
	andb	$1, %al
	jmp	.LBB0_505
.LBB0_504:                              # %cond.false5742
	movb	1491519(%rbx), %al
.LBB0_505:                              # %if.else5753
	movb	%al, 1491519(%rbx)
	cmpb	$0, 673(%rbx)
	je	.LBB0_507
# %bb.506:                              # %cond.true5756
	movb	667(%rbx), %al
	notb	%al
	andb	$1, %al
	jmp	.LBB0_508
.LBB0_507:                              # %cond.false5761
	movb	1491512(%rbx), %al
.LBB0_508:                              # %if.else5772
	movb	%al, 1491512(%rbx)
	cmpb	$0, 1787(%rbx)
	je	.LBB0_510
# %bb.509:                              # %cond.true5775
	movb	1781(%rbx), %al
	notb	%al
	andb	$1, %al
	jmp	.LBB0_511
.LBB0_510:                              # %cond.false5779
	movb	1492842(%rbx), %al
.LBB0_511:                              # %if.else5790
	movb	%al, 1492842(%rbx)
	cmpb	$0, 1786(%rbx)
	je	.LBB0_513
# %bb.512:                              # %cond.true5793
	movb	1780(%rbx), %al
	notb	%al
	andb	$1, %al
	jmp	.LBB0_514
.LBB0_513:                              # %cond.false5797
	movb	1492836(%rbx), %al
.LBB0_514:                              # %if.else5808
	movb	%al, 1492836(%rbx)
	cmpb	$0, 2150(%rbx)
	je	.LBB0_516
# %bb.515:                              # %cond.true5811
	movb	2144(%rbx), %al
	notb	%al
	andb	$1, %al
	jmp	.LBB0_517
.LBB0_516:                              # %cond.false5815
	movb	1493022(%rbx), %al
.LBB0_517:                              # %if.else5826
	movb	%al, 1493022(%rbx)
	cmpb	$0, 2149(%rbx)
	je	.LBB0_519
# %bb.518:                              # %cond.true5829
	movb	2143(%rbx), %al
	notb	%al
	andb	$1, %al
	jmp	.LBB0_520
.LBB0_519:                              # %cond.false5833
	movb	1493016(%rbx), %al
.LBB0_520:                              # %if.else5844
	movb	%al, 1493016(%rbx)
	cmpb	$0, 3782(%rbx)
	je	.LBB0_522
# %bb.521:                              # %cond.true5847
	movb	3776(%rbx), %al
	notb	%al
	andb	$1, %al
	jmp	.LBB0_523
.LBB0_522:                              # %cond.false5852
	movb	1493311(%rbx), %al
.LBB0_523:                              # %if.else5863
	movb	%al, 1493311(%rbx)
	cmpb	$0, 3781(%rbx)
	je	.LBB0_525
# %bb.524:                              # %cond.true5866
	movb	3775(%rbx), %al
	notb	%al
	andb	$1, %al
	jmp	.LBB0_526
.LBB0_525:                              # %cond.false5870
	movb	1493305(%rbx), %al
.LBB0_526:                              # %if.else5881
	movb	%al, 1493305(%rbx)
	cmpb	$0, 3798(%rbx)
	je	.LBB0_528
# %bb.527:                              # %cond.true5884
	movb	3792(%rbx), %al
	notb	%al
	andb	$1, %al
	jmp	.LBB0_529
.LBB0_528:                              # %cond.false5888
	movb	1493342(%rbx), %al
.LBB0_529:                              # %if.else5899
	movb	%al, 1493342(%rbx)
	cmpb	$0, 3797(%rbx)
	je	.LBB0_531
# %bb.530:                              # %cond.true5902
	movb	3791(%rbx), %dil
	notb	%dil
	andb	$1, %dil
	jmp	.LBB0_532
.LBB0_531:                              # %cond.false5907
	movb	1493336(%rbx), %dil
.LBB0_532:                              # %if.end5914
	movb	%dil, 1493336(%rbx)
	movb	11403(%rbx), %al
	movb	%al, 11453(%rbx)
	movb	11401(%rbx), %al
	movb	%al, 11452(%rbx)
	movb	11399(%rbx), %al
	movb	%al, 11451(%rbx)
	movb	11397(%rbx), %al
	movb	%al, 11450(%rbx)
	movb	11395(%rbx), %al
	movb	%al, 11449(%rbx)
	movb	11405(%rbx), %al
	movb	%al, 11454(%rbx)
	movb	11391(%rbx), %al
	movb	11393(%rbx), %cl
	movb	%cl, 11448(%rbx)
	movb	%al, 11447(%rbx)
	movb	11944(%rbx), %al
	movb	%al, 11994(%rbx)
	movb	11942(%rbx), %al
	movb	%al, 11993(%rbx)
	movb	11940(%rbx), %al
	movb	%al, 11992(%rbx)
	movb	11938(%rbx), %al
	movb	%al, 11991(%rbx)
	movb	11936(%rbx), %al
	movb	%al, 11990(%rbx)
	movb	11946(%rbx), %al
	movb	%al, 11995(%rbx)
	movb	11932(%rbx), %al
	movb	11934(%rbx), %cl
	movb	%cl, 11989(%rbx)
	movb	%al, 11988(%rbx)
	movb	12485(%rbx), %al
	movb	%al, 12535(%rbx)
	movb	12483(%rbx), %al
	movb	%al, 12534(%rbx)
	movb	12481(%rbx), %al
	movb	%al, 12533(%rbx)
	movb	12479(%rbx), %al
	movb	%al, 12532(%rbx)
	movb	12477(%rbx), %al
	movb	%al, 12531(%rbx)
	movb	12487(%rbx), %al
	movb	%al, 12536(%rbx)
	movb	12473(%rbx), %al
	movb	12475(%rbx), %cl
	movb	%cl, 12530(%rbx)
	movb	%al, 12529(%rbx)
	testb	%r9b, %r9b
	je	.LBB0_534
# %bb.533:                              # %if.then6431
	movb	$0, 1491384(%rbx)
	movb	$0, 1491381(%rbx)
	movw	$0, 1491485(%rbx)
	movw	$0, 1492619(%rbx)
	movw	$0, 1492661(%rbx)
	movb	$0, 1492824(%rbx)
	movb	$0, 1492821(%rbx)
	movb	$0, 1493004(%rbx)
	movb	$0, 1493001(%rbx)
	movb	$0, 1493293(%rbx)
	movb	$0, 1493290(%rbx)
	movb	$0, 1493324(%rbx)
	movb	$0, 1493321(%rbx)
	movw	$0, 1491510(%rbx)
	movw	$0, 1492644(%rbx)
	movw	$0, 1492686(%rbx)
	movb	$0, 1500(%rbx)
	movb	$0, 1491444(%rbx)
	movb	%r10b, 60158(%rbx)
	movb	%r8b, 60398(%rbx)
	movb	$0, 1491445(%rbx)
	movb	$0, 1491267(%rbx)
	movb	$0, 1491263(%rbx)
	movb	$0, 1493138(%rbx)
	xorl	%eax, %eax
	jmp	.LBB0_620
.LBB0_534:                              # %if.else5918
	cmpb	$0, 565(%rbx)
	je	.LBB0_536
# %bb.535:                              # %cond.true5921
	movb	559(%rbx), %al
	notb	%al
	andb	$1, %al
	jmp	.LBB0_537
.LBB0_536:                              # %cond.false5926
	movb	1491384(%rbx), %al
.LBB0_537:                              # %if.else5937
	movb	%al, 1491384(%rbx)
	cmpb	$0, 566(%rbx)
	je	.LBB0_539
# %bb.538:                              # %cond.true5940
	movb	560(%rbx), %al
	notb	%al
	andb	$1, %al
	jmp	.LBB0_540
.LBB0_539:                              # %cond.false5944
	movb	1491381(%rbx), %al
.LBB0_540:                              # %if.else5955
	movb	%al, 1491381(%rbx)
	cmpb	$0, 642(%rbx)
	je	.LBB0_542
# %bb.541:                              # %cond.true5958
	movb	636(%rbx), %al
	notb	%al
	andb	$1, %al
	jmp	.LBB0_543
.LBB0_542:                              # %cond.false5963
	movb	1491486(%rbx), %al
.LBB0_543:                              # %if.else5974
	movb	%al, 1491486(%rbx)
	cmpb	$0, 641(%rbx)
	je	.LBB0_545
# %bb.544:                              # %cond.true5977
	movb	635(%rbx), %al
	notb	%al
	andb	$1, %al
	jmp	.LBB0_546
.LBB0_545:                              # %cond.false5981
	movb	1491485(%rbx), %al
.LBB0_546:                              # %if.else5992
	movb	%al, 1491485(%rbx)
	cmpb	$0, 1569(%rbx)
	je	.LBB0_548
# %bb.547:                              # %cond.true5995
	movb	1563(%rbx), %al
	notb	%al
	andb	$1, %al
	jmp	.LBB0_549
.LBB0_548:                              # %cond.false5999
	movb	1492620(%rbx), %al
.LBB0_549:                              # %if.else6010
	movb	%al, 1492620(%rbx)
	cmpb	$0, 1568(%rbx)
	je	.LBB0_551
# %bb.550:                              # %cond.true6013
	movb	1562(%rbx), %al
	notb	%al
	andb	$1, %al
	jmp	.LBB0_552
.LBB0_551:                              # %cond.false6018
	movb	1492619(%rbx), %al
.LBB0_552:                              # %if.else6029
	movb	%al, 1492619(%rbx)
	cmpb	$0, 1609(%rbx)
	je	.LBB0_554
# %bb.553:                              # %cond.true6032
	movb	1603(%rbx), %al
	notb	%al
	andb	$1, %al
	jmp	.LBB0_555
.LBB0_554:                              # %cond.false6037
	movb	1492662(%rbx), %al
.LBB0_555:                              # %if.else6048
	movb	%al, 1492662(%rbx)
	cmpb	$0, 1608(%rbx)
	je	.LBB0_557
# %bb.556:                              # %cond.true6051
	movb	1602(%rbx), %al
	notb	%al
	andb	$1, %al
	jmp	.LBB0_558
.LBB0_557:                              # %cond.false6055
	movb	1492661(%rbx), %al
.LBB0_558:                              # %if.else6066
	movb	%al, 1492661(%rbx)
	cmpb	$0, 1778(%rbx)
	je	.LBB0_560
# %bb.559:                              # %cond.true6069
	movb	1772(%rbx), %al
	notb	%al
	andb	$1, %al
	jmp	.LBB0_561
.LBB0_560:                              # %cond.false6074
	movb	1492824(%rbx), %al
.LBB0_561:                              # %if.else6085
	movb	%al, 1492824(%rbx)
	cmpb	$0, 1779(%rbx)
	je	.LBB0_563
# %bb.562:                              # %cond.true6088
	movb	1773(%rbx), %al
	notb	%al
	andb	$1, %al
	jmp	.LBB0_564
.LBB0_563:                              # %cond.false6092
	movb	1492821(%rbx), %al
.LBB0_564:                              # %if.else6103
	movb	%al, 1492821(%rbx)
	cmpb	$0, 2141(%rbx)
	je	.LBB0_566
# %bb.565:                              # %cond.true6106
	movb	2135(%rbx), %al
	notb	%al
	andb	$1, %al
	jmp	.LBB0_567
.LBB0_566:                              # %cond.false6110
	movb	1493004(%rbx), %al
.LBB0_567:                              # %if.else6121
	movb	%al, 1493004(%rbx)
	cmpb	$0, 2142(%rbx)
	je	.LBB0_569
# %bb.568:                              # %cond.true6124
	movb	2136(%rbx), %al
	notb	%al
	andb	$1, %al
	jmp	.LBB0_570
.LBB0_569:                              # %cond.false6128
	movb	1493001(%rbx), %al
.LBB0_570:                              # %if.else6139
	movb	%al, 1493001(%rbx)
	cmpb	$0, 3773(%rbx)
	je	.LBB0_572
# %bb.571:                              # %cond.true6142
	movb	3767(%rbx), %al
	notb	%al
	andb	$1, %al
	jmp	.LBB0_573
.LBB0_572:                              # %cond.false6147
	movb	1493293(%rbx), %al
.LBB0_573:                              # %if.else6158
	movb	%al, 1493293(%rbx)
	cmpb	$0, 3774(%rbx)
	je	.LBB0_575
# %bb.574:                              # %cond.true6161
	movb	3768(%rbx), %al
	notb	%al
	andb	$1, %al
	jmp	.LBB0_576
.LBB0_575:                              # %cond.false6165
	movb	1493290(%rbx), %al
.LBB0_576:                              # %if.else6176
	movb	%al, 1493290(%rbx)
	cmpb	$0, 3789(%rbx)
	je	.LBB0_578
# %bb.577:                              # %cond.true6179
	movb	3783(%rbx), %al
	notb	%al
	andb	$1, %al
	jmp	.LBB0_579
.LBB0_578:                              # %cond.false6184
	movb	1493324(%rbx), %al
.LBB0_579:                              # %if.else6195
	movb	%al, 1493324(%rbx)
	cmpb	$0, 3790(%rbx)
	je	.LBB0_581
# %bb.580:                              # %cond.true6198
	movb	3784(%rbx), %al
	notb	%al
	andb	$1, %al
	jmp	.LBB0_582
.LBB0_581:                              # %cond.false6203
	movb	1493321(%rbx), %al
.LBB0_582:                              # %if.else6214
	movb	%al, 1493321(%rbx)
	cmpb	$0, 666(%rbx)
	je	.LBB0_584
# %bb.583:                              # %cond.true6217
	movb	660(%rbx), %al
	notb	%al
	andb	$1, %al
	jmp	.LBB0_585
.LBB0_584:                              # %cond.false6221
	movb	1491511(%rbx), %al
.LBB0_585:                              # %if.else6232
	movb	%al, 1491511(%rbx)
	cmpb	$0, 665(%rbx)
	je	.LBB0_587
# %bb.586:                              # %cond.true6235
	movb	659(%rbx), %al
	notb	%al
	andb	$1, %al
	jmp	.LBB0_588
.LBB0_587:                              # %cond.false6239
	movb	1491510(%rbx), %al
.LBB0_588:                              # %if.else6250
	movb	%al, 1491510(%rbx)
	cmpb	$0, 1593(%rbx)
	je	.LBB0_590
# %bb.589:                              # %cond.true6253
	movb	1587(%rbx), %al
	notb	%al
	andb	$1, %al
	jmp	.LBB0_591
.LBB0_590:                              # %cond.false6257
	movb	1492645(%rbx), %al
.LBB0_591:                              # %if.else6268
	movb	%al, 1492645(%rbx)
	cmpb	$0, 1592(%rbx)
	je	.LBB0_593
# %bb.592:                              # %cond.true6271
	movb	1586(%rbx), %al
	notb	%al
	andb	$1, %al
	jmp	.LBB0_594
.LBB0_593:                              # %cond.false6276
	movb	1492644(%rbx), %al
.LBB0_594:                              # %if.else6287
	movb	%al, 1492644(%rbx)
	cmpb	$0, 1633(%rbx)
	je	.LBB0_596
# %bb.595:                              # %cond.true6290
	movb	1627(%rbx), %al
	notb	%al
	andb	$1, %al
	jmp	.LBB0_597
.LBB0_596:                              # %cond.false6295
	movb	1492687(%rbx), %al
.LBB0_597:                              # %if.else6306
	movb	%al, 1492687(%rbx)
	cmpb	$0, 1632(%rbx)
	je	.LBB0_599
# %bb.598:                              # %cond.true6309
	movb	1626(%rbx), %al
	notb	%al
	andb	$1, %al
	jmp	.LBB0_600
.LBB0_599:                              # %cond.false6313
	movb	1492686(%rbx), %al
.LBB0_600:                              # %if.else6324
	movb	%al, 1492686(%rbx)
	movb	1504(%rbx), %al
	cmpb	1505(%rbx), %al
	jne	.LBB0_602
# %bb.601:                              # %cond.false6330
	movb	1500(%rbx), %al
.LBB0_602:                              # %if.else6339
	movb	%al, 1500(%rbx)
	cmpb	$0, 599(%rbx)
	je	.LBB0_604
# %bb.603:                              # %cond.true6342
	movb	593(%rbx), %al
	notb	%al
	andb	$1, %al
	jmp	.LBB0_605
.LBB0_604:                              # %cond.false6347
	movb	1491444(%rbx), %al
.LBB0_605:                              # %if.else6360
	movb	%al, 1491444(%rbx)
	movb	%r10b, 60158(%rbx)
	movb	%r8b, 60398(%rbx)
	cmpb	$0, 600(%rbx)
	je	.LBB0_607
# %bb.606:                              # %cond.true6363
	movb	594(%rbx), %al
	notb	%al
	andb	$1, %al
	jmp	.LBB0_608
.LBB0_607:                              # %cond.false6367
	movb	1491445(%rbx), %al
.LBB0_608:                              # %if.else6378
	movb	%al, 1491445(%rbx)
	cmpb	$0, 296(%rbx)
	je	.LBB0_610
# %bb.609:                              # %cond.true6381
	movb	290(%rbx), %al
	notb	%al
	andb	$1, %al
	jmp	.LBB0_611
.LBB0_610:                              # %cond.false6385
	movb	1491267(%rbx), %al
.LBB0_611:                              # %if.else6396
	movb	%al, 1491267(%rbx)
	cmpb	$0, 297(%rbx)
	je	.LBB0_613
# %bb.612:                              # %cond.true6399
	movb	291(%rbx), %al
	notb	%al
	andb	$1, %al
	jmp	.LBB0_614
.LBB0_613:                              # %cond.false6403
	movb	1491263(%rbx), %al
.LBB0_614:                              # %if.else6414
	movb	%al, 1491263(%rbx)
	cmpb	$0, 2218(%rbx)
	je	.LBB0_616
# %bb.615:                              # %cond.true6417
	movb	2212(%rbx), %al
	notb	%al
	andb	$1, %al
	jmp	.LBB0_617
.LBB0_616:                              # %cond.false6421
	movb	1493138(%rbx), %al
.LBB0_617:                              # %if.else6432
	movb	%al, 1493138(%rbx)
	cmpb	$0, 2219(%rbx)
	je	.LBB0_619
# %bb.618:                              # %cond.true6435
	movb	2213(%rbx), %al
	notb	%al
	andb	$1, %al
	jmp	.LBB0_620
.LBB0_619:                              # %cond.false6439
	movb	1493134(%rbx), %al
.LBB0_620:                              # %if.end6446
	movb	%al, 1493134(%rbx)
	cmpb	$0, 67913(%rbx)
	movl	$220408, %eax           # imm = 0x35CF8
	movl	$88172, %ecx            # imm = 0x1586C
	cmoveq	%rax, %rcx
	movl	(%rbx,%rcx), %eax
	movl	%eax, 220408(%rbx)
	movb	556(%rbx), %al
	notb	%al
	andb	444(%rbx), %al
	andb	527(%rbx), %al
	orb	%r9b, %al
	notb	%al
	andb	538(%rbx), %al
	movb	%al, 533(%rbx)
	cmpb	$0, 68356(%rbx)
	je	.LBB0_622
# %bb.621:                              # %if.then6516
	movw	$0, 68102(%rbx)
	xorl	%eax, %eax
	jmp	.LBB0_631
.LBB0_622:                              # %if.else6472
	movzbl	68115(%rbx), %eax
	movq	271768(%rbx), %rcx
	movl	%ecx, %edx
	shrl	$2, %edx
	testl	%eax, %edx
	je	.LBB0_624
# %bb.623:                              # %cond.true6478
	movb	271928(%rbx), %dl
	shrb	$2, %dl
	andb	$1, %dl
	jmp	.LBB0_625
.LBB0_624:                              # %cond.false6482
	movb	68103(%rbx), %dl
.LBB0_625:                              # %if.else6493
	movb	%dl, 68103(%rbx)
	movl	%ecx, %edx
	shrl	%edx
	testl	%eax, %edx
	je	.LBB0_627
# %bb.626:                              # %cond.true6501
	movb	271928(%rbx), %dl
	shrb	%dl
	andb	$1, %dl
	jmp	.LBB0_628
.LBB0_627:                              # %cond.false6506
	movb	68102(%rbx), %dl
.LBB0_628:                              # %if.else6517
	movb	%dl, 68102(%rbx)
	testl	%eax, %ecx
	je	.LBB0_630
# %bb.629:                              # %cond.true6524
	movb	271928(%rbx), %al
	andb	$1, %al
	jmp	.LBB0_631
.LBB0_630:                              # %cond.false6528
	movb	68101(%rbx), %al
.LBB0_631:                              # %if.end6535
	movb	%al, 68101(%rbx)
	movb	15471(%rbx), %al
	movb	%al, 10829(%rbx)
	movb	%al, 10824(%rbx)
	movb	%al, 10820(%rbx)
	movb	%al, 10834(%rbx)
	movq	262984(%rbx), %rax
	movq	%rax, 263144(%rbx)
	movb	1622(%rbx), %al
	orb	1664(%rbx), %al
	testb	$1, %al
	jne	.LBB0_633
# %bb.632:                              # %if.then6546
	movzbl	1619(%rbx), %eax
	movb	277636(%rbx,%rax), %al
	movb	%al, 1492717(%rbx)
	movb	$1, 1492718(%rbx)
	movb	1659(%rbx), %al
	movb	%al, 1492716(%rbx)
.LBB0_633:                              # %if.end6550
	movb	1002(%rbx), %al
	notb	%al
	testb	%al, 784(%rbx)
	je	.LBB0_635
# %bb.634:                              # %if.then6565
	movb	1371(%rbx), %al
	movb	1372(%rbx), %cl
	movb	%al, 1491837(%rbx)
	movb	$1, 1491838(%rbx)
	movb	%cl, 1491835(%rbx)
	movb	$1, 1491836(%rbx)
.LBB0_635:                              # %if.end6566
	testb	%sil, %sil
	je	.LBB0_637
# %bb.636:
	xorl	%eax, %eax
	jmp	.LBB0_640
.LBB0_637:                              # %if.else6570
	cmpb	$0, 70905(%rbx)
	je	.LBB0_639
# %bb.638:                              # %cond.true6572
	movb	70899(%rbx), %al
	notb	%al
	andb	$1, %al
	jmp	.LBB0_640
.LBB0_639:                              # %cond.false6576
	movb	1497744(%rbx), %al
.LBB0_640:                              # %if.end6583
	movb	%al, 1497744(%rbx)
	cmpb	$0, 2779(%rbx)
	je	.LBB0_643
# %bb.641:                              # %cond.true6586
	cmpb	$0, 2775(%rbx)
	je	.LBB0_644
# %bb.642:                              # %cond.true6589
	movb	2711(%rbx), %al
	jmp	.LBB0_645
.LBB0_643:                              # %cond.false6596
	movb	2777(%rbx), %al
	andb	$1, %al
	xorb	$65, %al
	jmp	.LBB0_645
.LBB0_644:                              # %cond.false6591
	movb	2774(%rbx), %al
	orb	$32, %al
.LBB0_645:                              # %cond.end6601
	movb	%al, 2410(%rbx)
	cmpb	$0, 2974(%rbx)
	je	.LBB0_648
# %bb.646:                              # %cond.true6606
	cmpb	$0, 2970(%rbx)
	je	.LBB0_649
# %bb.647:                              # %cond.true6609
	movb	2906(%rbx), %al
	jmp	.LBB0_650
.LBB0_648:                              # %cond.false6616
	movb	2972(%rbx), %al
	andb	$1, %al
	xorb	$65, %al
	jmp	.LBB0_650
.LBB0_649:                              # %cond.false6611
	movb	2969(%rbx), %al
	orb	$32, %al
.LBB0_650:                              # %cond.end6621
	movb	%al, 2411(%rbx)
	movb	900(%rbx), %al
	notb	%al
	testb	%al, 750(%rbx)
	je	.LBB0_652
# %bb.651:                              # %if.then6639
	movb	1371(%rbx), %al
	movb	1372(%rbx), %cl
	movb	%al, 1491701(%rbx)
	movb	$1, 1491702(%rbx)
	movb	%cl, 1491699(%rbx)
	movb	$1, 1491700(%rbx)
.LBB0_652:                              # %if.end6641
	movzbl	25029(%rbx), %eax
	movd	%eax, %xmm0
                                        # kill: def $al killed $al killed $eax
	shrb	%al
	movl	25028(%rbx), %edi
	movzbl	25015(%rbx), %ebp
	movzbl	25014(%rbx), %esi
	movd	%esi, %xmm1
	movl	%esi, %ecx
	shrb	%cl
	movzbl	25021(%rbx), %esi
	movd	%esi, %xmm2
	movl	%esi, %edx
	shrb	%dl
	movzbl	%dl, %edx
	movd	%edx, %xmm3
	movl	25020(%rbx), %edx
	movd	%edx, %xmm4
                                        # kill: def $dl killed $dl killed $edx
	shrb	%dl
	movzbl	%dl, %edx
	movd	%edx, %xmm5
	movzbl	25019(%rbx), %edx
	punpcklbw	%xmm3, %xmm2    # xmm2 = xmm2[0],xmm3[0],xmm2[1],xmm3[1],xmm2[2],xmm3[2],xmm2[3],xmm3[3],xmm2[4],xmm3[4],xmm2[5],xmm3[5],xmm2[6],xmm3[6],xmm2[7],xmm3[7]
	movd	%edx, %xmm3
                                        # kill: def $dl killed $dl killed $edx
	shrb	%dl
	punpcklbw	%xmm5, %xmm4    # xmm4 = xmm4[0],xmm5[0],xmm4[1],xmm5[1],xmm4[2],xmm5[2],xmm4[3],xmm5[3],xmm4[4],xmm5[4],xmm4[5],xmm5[5],xmm4[6],xmm5[6],xmm4[7],xmm5[7]
	movzbl	%dl, %edx
	movd	%edx, %xmm5
	movzbl	25018(%rbx), %edx
	punpcklwd	%xmm2, %xmm4    # xmm4 = xmm4[0],xmm2[0],xmm4[1],xmm2[1],xmm4[2],xmm2[2],xmm4[3],xmm2[3]
	movd	%edx, %xmm2
                                        # kill: def $dl killed $dl killed $edx
	shrb	%dl
	punpcklbw	%xmm5, %xmm3    # xmm3 = xmm3[0],xmm5[0],xmm3[1],xmm5[1],xmm3[2],xmm5[2],xmm3[3],xmm5[3],xmm3[4],xmm5[4],xmm3[5],xmm5[5],xmm3[6],xmm5[6],xmm3[7],xmm5[7]
	movzbl	%dl, %edx
	movd	%edx, %xmm5
	movzbl	25017(%rbx), %edx
	punpcklbw	%xmm5, %xmm2    # xmm2 = xmm2[0],xmm5[0],xmm2[1],xmm5[1],xmm2[2],xmm5[2],xmm2[3],xmm5[3],xmm2[4],xmm5[4],xmm2[5],xmm5[5],xmm2[6],xmm5[6],xmm2[7],xmm5[7]
	movd	%edx, %xmm5
                                        # kill: def $dl killed $dl killed $edx
	shrb	%dl
	punpcklwd	%xmm3, %xmm2    # xmm2 = xmm2[0],xmm3[0],xmm2[1],xmm3[1],xmm2[2],xmm3[2],xmm2[3],xmm3[3]
	movzbl	%dl, %edx
	movd	%edx, %xmm3
	movl	25016(%rbx), %edx
	punpckldq	%xmm4, %xmm2    # xmm2 = xmm2[0],xmm4[0],xmm2[1],xmm4[1]
	movd	%edx, %xmm4
                                        # kill: def $dl killed $dl killed $edx
	shrb	%dl
	punpcklbw	%xmm3, %xmm5    # xmm5 = xmm5[0],xmm3[0],xmm5[1],xmm3[1],xmm5[2],xmm3[2],xmm5[3],xmm3[3],xmm5[4],xmm3[4],xmm5[5],xmm3[5],xmm5[6],xmm3[6],xmm5[7],xmm3[7]
	movzbl	%dl, %edx
	movd	%edx, %xmm3
	punpcklbw	%xmm3, %xmm4    # xmm4 = xmm4[0],xmm3[0],xmm4[1],xmm3[1],xmm4[2],xmm3[2],xmm4[3],xmm3[3],xmm4[4],xmm3[4],xmm4[5],xmm3[5],xmm4[6],xmm3[6],xmm4[7],xmm3[7]
	movd	%ebp, %xmm6
	movl	%ebp, %edx
	shrb	%dl
	punpcklwd	%xmm5, %xmm4    # xmm4 = xmm4[0],xmm5[0],xmm4[1],xmm5[1],xmm4[2],xmm5[2],xmm4[3],xmm5[3]
	movzbl	%dl, %edx
	movd	%edx, %xmm3
	punpcklbw	%xmm3, %xmm6    # xmm6 = xmm6[0],xmm3[0],xmm6[1],xmm3[1],xmm6[2],xmm3[2],xmm6[3],xmm3[3],xmm6[4],xmm3[4],xmm6[5],xmm3[5],xmm6[6],xmm3[6],xmm6[7],xmm3[7]
	movzbl	%cl, %ecx
	movd	%ecx, %xmm3
	punpcklbw	%xmm3, %xmm1    # xmm1 = xmm1[0],xmm3[0],xmm1[1],xmm3[1],xmm1[2],xmm3[2],xmm1[3],xmm3[3],xmm1[4],xmm3[4],xmm1[5],xmm3[5],xmm1[6],xmm3[6],xmm1[7],xmm3[7]
	movd	%edi, %xmm3
	movl	%edi, %ecx
	shrb	%cl
	movzbl	25027(%rbx), %edx
	punpcklwd	%xmm6, %xmm1    # xmm1 = xmm1[0],xmm6[0],xmm1[1],xmm6[1],xmm1[2],xmm6[2],xmm1[3],xmm6[3]
	movd	%edx, %xmm5
                                        # kill: def $dl killed $dl killed $edx
	shrb	%dl
	movzbl	25026(%rbx), %esi
	movl	25024(%rbx), %edi
	punpckldq	%xmm4, %xmm1    # xmm1 = xmm1[0],xmm4[0],xmm1[1],xmm4[1]
	movzbl	%al, %eax
	movd	%eax, %xmm4
	movzbl	25025(%rbx), %ebp
	punpcklqdq	%xmm2, %xmm1    # xmm1 = xmm1[0],xmm2[0]
	movdqa	.LCPI0_0(%rip), %xmm2   # xmm2 = [1,1,1,1,1,1,1,1,1,1,1,1,1,1,1,1]
	pand	%xmm2, %xmm1
	movdqu	%xmm1, 25134(%rbx)
	movd	%esi, %xmm1
	movl	%esi, %eax
	shrb	%al
	punpcklbw	%xmm4, %xmm0    # xmm0 = xmm0[0],xmm4[0],xmm0[1],xmm4[1],xmm0[2],xmm4[2],xmm0[3],xmm4[3],xmm0[4],xmm4[4],xmm0[5],xmm4[5],xmm0[6],xmm4[6],xmm0[7],xmm4[7]
	movzbl	%cl, %ecx
	movd	%ecx, %xmm4
	punpcklbw	%xmm4, %xmm3    # xmm3 = xmm3[0],xmm4[0],xmm3[1],xmm4[1],xmm3[2],xmm4[2],xmm3[3],xmm4[3],xmm3[4],xmm4[4],xmm3[5],xmm4[5],xmm3[6],xmm4[6],xmm3[7],xmm4[7]
	movd	%edi, %xmm4
	movl	%edi, %ecx
	shrb	%cl
	punpcklwd	%xmm0, %xmm3    # xmm3 = xmm3[0],xmm0[0],xmm3[1],xmm0[1],xmm3[2],xmm0[2],xmm3[3],xmm0[3]
	movzbl	%dl, %edx
	movd	%edx, %xmm0
	punpcklbw	%xmm0, %xmm5    # xmm5 = xmm5[0],xmm0[0],xmm5[1],xmm0[1],xmm5[2],xmm0[2],xmm5[3],xmm0[3],xmm5[4],xmm0[4],xmm5[5],xmm0[5],xmm5[6],xmm0[6],xmm5[7],xmm0[7]
	movzbl	%al, %eax
	movd	%eax, %xmm0
	punpcklbw	%xmm0, %xmm1    # xmm1 = xmm1[0],xmm0[0],xmm1[1],xmm0[1],xmm1[2],xmm0[2],xmm1[3],xmm0[3],xmm1[4],xmm0[4],xmm1[5],xmm0[5],xmm1[6],xmm0[6],xmm1[7],xmm0[7]
	movd	%ebp, %xmm0
	movl	%ebp, %eax
	shrb	%al
	movzbl	25022(%rbx), %edx
	punpcklwd	%xmm5, %xmm1    # xmm1 = xmm1[0],xmm5[0],xmm1[1],xmm5[1],xmm1[2],xmm5[2],xmm1[3],xmm5[3]
	movd	%edx, %xmm5
                                        # kill: def $dl killed $dl killed $edx
	shrb	%dl
	movzbl	25023(%rbx), %esi
	punpckldq	%xmm3, %xmm1    # xmm1 = xmm1[0],xmm3[0],xmm1[1],xmm3[1]
	movzbl	%al, %eax
	movd	%eax, %xmm3
	punpcklbw	%xmm3, %xmm0    # xmm0 = xmm0[0],xmm3[0],xmm0[1],xmm3[1],xmm0[2],xmm3[2],xmm0[3],xmm3[3],xmm0[4],xmm3[4],xmm0[5],xmm3[5],xmm0[6],xmm3[6],xmm0[7],xmm3[7]
	movzbl	%cl, %eax
	movd	%eax, %xmm3
	punpcklbw	%xmm3, %xmm4    # xmm4 = xmm4[0],xmm3[0],xmm4[1],xmm3[1],xmm4[2],xmm3[2],xmm4[3],xmm3[3],xmm4[4],xmm3[4],xmm4[5],xmm3[5],xmm4[6],xmm3[6],xmm4[7],xmm3[7]
	movd	%esi, %xmm3
	movl	%esi, %eax
	shrb	%al
	punpcklwd	%xmm0, %xmm4    # xmm4 = xmm4[0],xmm0[0],xmm4[1],xmm0[1],xmm4[2],xmm0[2],xmm4[3],xmm0[3]
	movzbl	%al, %eax
	movd	%eax, %xmm0
	punpcklbw	%xmm0, %xmm3    # xmm3 = xmm3[0],xmm0[0],xmm3[1],xmm0[1],xmm3[2],xmm0[2],xmm3[3],xmm0[3],xmm3[4],xmm0[4],xmm3[5],xmm0[5],xmm3[6],xmm0[6],xmm3[7],xmm0[7]
	movzbl	%dl, %eax
	movd	%eax, %xmm0
	punpcklbw	%xmm0, %xmm5    # xmm5 = xmm5[0],xmm0[0],xmm5[1],xmm0[1],xmm5[2],xmm0[2],xmm5[3],xmm0[3],xmm5[4],xmm0[4],xmm5[5],xmm0[5],xmm5[6],xmm0[6],xmm5[7],xmm0[7]
	punpcklwd	%xmm3, %xmm5    # xmm5 = xmm5[0],xmm3[0],xmm5[1],xmm3[1],xmm5[2],xmm3[2],xmm5[3],xmm3[3]
	punpckldq	%xmm4, %xmm5    # xmm5 = xmm5[0],xmm4[0],xmm5[1],xmm4[1]
	punpcklqdq	%xmm1, %xmm5    # xmm5 = xmm5[0],xmm1[0]
	pand	%xmm2, %xmm5
	movdqu	%xmm5, 25150(%rbx)
	movb	73810(%rbx), %al
	movl	%eax, %ecx
	shrb	%cl
	andb	$1, %cl
	movb	%cl, 23143(%rbx)
	movb	73824(%rbx), %cl
	movl	%ecx, %edx
	shrb	$3, %dl
	andb	$1, %dl
	movb	%dl, 23173(%rbx)
	andb	$1, %al
	movb	%al, 23142(%rbx)
	movb	73808(%rbx), %dl
	movl	%edx, %eax
	shrb	$2, %al
	andb	$1, %al
	movb	%al, 23140(%rbx)
	andb	$1, %cl
	movb	%cl, 23170(%rbx)
	movb	73804(%rbx), %dil
	movb	73806(%rbx), %al
	movl	%eax, %ecx
	shrb	$2, %cl
	andb	$1, %cl
	movb	%cl, 23136(%rbx)
	movb	73822(%rbx), %cl
	andb	$1, %cl
	movb	%cl, 23166(%rbx)
	movl	%eax, %ecx
	shrb	%cl
	andb	$1, %cl
	movb	%cl, 23135(%rbx)
	movb	73820(%rbx), %cl
	shrb	$3, %cl
	andb	$1, %cl
	movb	%cl, 23165(%rbx)
	movl	%edi, %ecx
	shrb	%cl
	andb	$1, %cl
	movb	%cl, 23131(%rbx)
	movb	73818(%rbx), %r8b
	movl	%r8d, %ecx
	shrb	$3, %cl
	andb	$1, %cl
	movb	%cl, 23161(%rbx)
	shrb	$3, %dl
	andb	$1, %dl
	movb	%dl, 23141(%rbx)
	movl	%eax, %ecx
	shrb	$3, %cl
	andb	$1, %cl
	movb	%cl, 23137(%rbx)
	movb	73814(%rbx), %sil
	movl	%esi, %ecx
	andb	$1, %cl
	movb	%cl, 23150(%rbx)
	movl	%edi, %ecx
	shrb	$3, %cl
	andb	$1, %cl
	movb	%cl, 23133(%rbx)
	andb	$1, %al
	movb	%al, 23134(%rbx)
	movl	%r8d, %eax
	shrb	$2, %al
	andb	$1, %al
	movb	%al, 23160(%rbx)
	movb	73834(%rbx), %al
	movl	%eax, %ecx
	andb	$1, %cl
	movb	%cl, 23190(%rbx)
	andb	$1, %r8b
	movb	%r8b, 23158(%rbx)
	movb	73816(%rbx), %dl
	movl	%edx, %ecx
	andb	$1, %cl
	movb	%cl, 23154(%rbx)
	movb	73808(%rbx), %r9b
	movb	73810(%rbx), %r8b
	movl	%r8d, %ecx
	shrb	$3, %cl
	andb	$1, %cl
	movb	%cl, 23145(%rbx)
	movl	%edi, %ecx
	andb	$1, %cl
	movb	%cl, 23130(%rbx)
	shrb	%al
	andb	$1, %al
	movb	%al, 23191(%rbx)
	movl	%r9d, %eax
	andb	$1, %al
	movb	%al, 23138(%rbx)
	shrb	$2, %dl
	andb	$1, %dl
	movb	%dl, 23156(%rbx)
	movb	73832(%rbx), %al
	andb	$1, %al
	movb	%al, 23186(%rbx)
	shrb	$2, %dil
	andb	$1, %dil
	movb	%dil, 23132(%rbx)
	movb	73820(%rbx), %al
	andb	$1, %al
	movb	%al, 23162(%rbx)
	shrb	%sil
	andb	$1, %sil
	movb	%sil, 23151(%rbx)
	movb	73828(%rbx), %sil
	movl	%esi, %ecx
	shrb	$3, %cl
	andb	$1, %cl
	movb	%cl, 23181(%rbx)
	shrb	%r9b
	andb	$1, %r9b
	movb	%r9b, 23139(%rbx)
	movb	73822(%rbx), %cl
	shrb	$3, %cl
	andb	$1, %cl
	movb	%cl, 23169(%rbx)
	movb	73824(%rbx), %cl
	shrb	%cl
	andb	$1, %cl
	movb	%cl, 23171(%rbx)
	shrb	$2, %r8b
	andb	$1, %r8b
	movb	%r8b, 23144(%rbx)
	movb	73826(%rbx), %cl
	movl	%ecx, %edx
	andb	$1, %dl
	movb	%dl, 23174(%rbx)
	movl	%ecx, %edx
	shrb	$2, %dl
	andb	$1, %dl
	movb	%dl, 23176(%rbx)
	movb	73812(%rbx), %al
	movl	%eax, %edx
	andb	$1, %dl
	movb	%dl, 23146(%rbx)
	movl	%eax, %edx
	shrb	%dl
	andb	$1, %dl
	movb	%dl, 23147(%rbx)
	shrb	$3, %cl
	andb	$1, %cl
	movb	%cl, 23177(%rbx)
	movl	%eax, %ecx
	shrb	$2, %cl
	andb	$1, %cl
	movb	%cl, 23148(%rbx)
	andb	$1, %sil
	movb	%sil, 23178(%rbx)
	shrb	$3, %al
	andb	$1, %al
	movb	%al, 23149(%rbx)
	movb	73814(%rbx), %cl
	movl	%ecx, %eax
	shrb	$2, %al
	andb	$1, %al
	movb	%al, 23152(%rbx)
	movb	73830(%rbx), %sil
	movl	%esi, %edx
	andb	$1, %dl
	movb	%dl, 23182(%rbx)
	shrb	$3, %cl
	andb	$1, %cl
	movb	%cl, 23153(%rbx)
	movb	73816(%rbx), %cl
	movl	%ecx, %edx
	shrb	%dl
	andb	$1, %dl
	movb	%dl, 23155(%rbx)
	movl	%esi, %edx
	shrb	$3, %dl
	andb	$1, %dl
	movb	%dl, 23185(%rbx)
	shrb	$3, %cl
	andb	$1, %cl
	movb	%cl, 23157(%rbx)
	movb	73818(%rbx), %cl
	shrb	%cl
	andb	$1, %cl
	movb	%cl, 23159(%rbx)
	movb	73832(%rbx), %cl
	movl	%ecx, %edx
	shrb	$3, %dl
	andb	$1, %dl
	movb	%dl, 23189(%rbx)
	movb	73820(%rbx), %al
	movl	%eax, %edx
	shrb	%dl
	andb	$1, %dl
	movb	%dl, 23163(%rbx)
	movb	73834(%rbx), %dil
	movl	%edi, %edx
	shrb	$3, %dl
	andb	$1, %dl
	movb	%dl, 23193(%rbx)
	shrb	$2, %al
	andb	$1, %al
	movb	%al, 23164(%rbx)
	movb	73822(%rbx), %al
	movl	%eax, %edx
	shrb	%dl
	andb	$1, %dl
	movb	%dl, 23167(%rbx)
	shrb	$2, %al
	andb	$1, %al
	movb	%al, 23168(%rbx)
	movb	73824(%rbx), %al
	shrb	$2, %al
	andb	$1, %al
	movb	%al, 23172(%rbx)
	movb	73826(%rbx), %al
	shrb	%al
	andb	$1, %al
	movb	%al, 23175(%rbx)
	movb	73828(%rbx), %al
	movl	%eax, %edx
	shrb	%dl
	andb	$1, %dl
	movb	%dl, 23179(%rbx)
	shrb	$2, %al
	andb	$1, %al
	movb	%al, 23180(%rbx)
	movl	%esi, %eax
	shrb	%al
	andb	$1, %al
	movb	%al, 23183(%rbx)
	shrb	$2, %sil
	andb	$1, %sil
	movb	%sil, 23184(%rbx)
	movl	%ecx, %eax
	shrb	%al
	andb	$1, %al
	movb	%al, 23187(%rbx)
	shrb	$2, %cl
	andb	$1, %cl
	movb	%cl, 23188(%rbx)
	shrb	$2, %dil
	andb	$1, %dil
	movb	%dil, 23192(%rbx)
	movb	73668(%rbx), %al
	movl	%eax, %ecx
	shrb	$4, %cl
	andb	$1, %cl
	movb	%cl, 19490(%rbx)
	movl	%eax, %ecx
	shrb	$3, %cl
	andb	$1, %cl
	movb	%cl, 19489(%rbx)
	andb	$1, %al
	movb	%al, 19486(%rbx)
	movb	73666(%rbx), %al
	movl	%eax, %ecx
	shrb	$4, %cl
	andb	$1, %cl
	movb	%cl, 19485(%rbx)
	movl	%eax, %ecx
	shrb	$3, %cl
	andb	$1, %cl
	movb	%cl, 19484(%rbx)
	andb	$1, %al
	movb	%al, 19481(%rbx)
	movb	73664(%rbx), %al
	movl	%eax, %ecx
	shrb	$4, %cl
	andb	$1, %cl
	movb	%cl, 19480(%rbx)
	movl	%eax, %ecx
	shrb	$3, %cl
	andb	$1, %cl
	movb	%cl, 19479(%rbx)
	andb	$1, %al
	movb	%al, 19476(%rbx)
	movb	73662(%rbx), %al
	movl	%eax, %ecx
	shrb	$4, %cl
	andb	$1, %cl
	movb	%cl, 19475(%rbx)
	movl	%eax, %ecx
	shrb	$3, %cl
	andb	$1, %cl
	movb	%cl, 19474(%rbx)
	andb	$1, %al
	movb	%al, 19471(%rbx)
	movb	73660(%rbx), %al
	movl	%eax, %ecx
	shrb	$4, %cl
	andb	$1, %cl
	movb	%cl, 19470(%rbx)
	movl	%eax, %ecx
	shrb	$3, %cl
	andb	$1, %cl
	movb	%cl, 19469(%rbx)
	andb	$1, %al
	movb	%al, 19466(%rbx)
	movb	73658(%rbx), %al
	movl	%eax, %ecx
	shrb	$4, %cl
	andb	$1, %cl
	movb	%cl, 19465(%rbx)
	movl	%eax, %ecx
	shrb	$3, %cl
	andb	$1, %cl
	movb	%cl, 19464(%rbx)
	andb	$1, %al
	movb	%al, 19461(%rbx)
	movb	73656(%rbx), %al
	movl	%eax, %ecx
	shrb	$4, %cl
	andb	$1, %cl
	movb	%cl, 19460(%rbx)
	movl	%eax, %ecx
	shrb	$3, %cl
	andb	$1, %cl
	movb	%cl, 19459(%rbx)
	andb	$1, %al
	movb	%al, 19456(%rbx)
	movb	73654(%rbx), %al
	movl	%eax, %ecx
	shrb	$4, %cl
	andb	$1, %cl
	movb	%cl, 19455(%rbx)
	movl	%eax, %ecx
	shrb	$3, %cl
	andb	$1, %cl
	movb	%cl, 19454(%rbx)
	andb	$1, %al
	movb	%al, 19451(%rbx)
	movb	73652(%rbx), %al
	shrb	$3, %al
	andb	$1, %al
	movb	%al, 19449(%rbx)
	movb	73650(%rbx), %al
	movl	%eax, %ecx
	shrb	$4, %cl
	andb	$1, %cl
	movb	%cl, 19445(%rbx)
	shrb	$3, %al
	andb	$1, %al
	movb	%al, 19444(%rbx)
	movb	73648(%rbx), %al
	movl	%eax, %ecx
	shrb	$4, %cl
	andb	$1, %cl
	movb	%cl, 19440(%rbx)
	shrb	$3, %al
	andb	$1, %al
	movb	%al, 19439(%rbx)
	movb	73646(%rbx), %al
	movl	%eax, %ecx
	shrb	$4, %cl
	andb	$1, %cl
	movb	%cl, 19435(%rbx)
	shrb	$3, %al
	andb	$1, %al
	movb	%al, 19434(%rbx)
	movb	73644(%rbx), %al
	movl	%eax, %ecx
	shrb	$4, %cl
	andb	$1, %cl
	movb	%cl, 19430(%rbx)
	shrb	$3, %al
	andb	$1, %al
	movb	%al, 19429(%rbx)
	movb	73668(%rbx), %al
	shrb	%al
	andb	$1, %al
	movb	%al, 19487(%rbx)
	movb	73642(%rbx), %al
	movl	%eax, %ecx
	shrb	$4, %cl
	andb	$1, %cl
	movb	%cl, 19425(%rbx)
	shrb	$3, %al
	andb	$1, %al
	movb	%al, 19424(%rbx)
	movb	73666(%rbx), %al
	shrb	%al
	andb	$1, %al
	movb	%al, 19482(%rbx)
	movb	73640(%rbx), %al
	movl	%eax, %ecx
	shrb	$4, %cl
	andb	$1, %cl
	movb	%cl, 19420(%rbx)
	movl	%eax, %ecx
	shrb	$3, %cl
	andb	$1, %cl
	movb	%cl, 19419(%rbx)
	movb	73664(%rbx), %cl
	movl	%ecx, %edx
	shrb	$2, %dl
	andb	$1, %dl
	movb	%dl, 19478(%rbx)
	andb	$1, %al
	movb	%al, 19416(%rbx)
	shrb	%cl
	andb	$1, %cl
	movb	%cl, 19477(%rbx)
	movb	73638(%rbx), %al
	movl	%eax, %ecx
	shrb	$4, %cl
	andb	$1, %cl
	movb	%cl, 19415(%rbx)
	movl	%eax, %ecx
	shrb	$3, %cl
	andb	$1, %cl
	movb	%cl, 19414(%rbx)
	movb	73662(%rbx), %cl
	movl	%ecx, %edx
	shrb	$2, %dl
	andb	$1, %dl
	movb	%dl, 19473(%rbx)
	andb	$1, %al
	movb	%al, 19411(%rbx)
	shrb	%cl
	andb	$1, %cl
	movb	%cl, 19472(%rbx)
	movb	73636(%rbx), %sil
	movl	%esi, %ecx
	shrb	$4, %cl
	andb	$1, %cl
	movb	%cl, 19410(%rbx)
	movl	%esi, %ecx
	shrb	$3, %cl
	andb	$1, %cl
	movb	%cl, 19409(%rbx)
	movb	73660(%rbx), %cl
	movl	%ecx, %edx
	shrb	$2, %dl
	andb	$1, %dl
	movb	%dl, 19468(%rbx)
	movl	%esi, %edx
	andb	$1, %dl
	movb	%dl, 19406(%rbx)
	shrb	%cl
	andb	$1, %cl
	movb	%cl, 19467(%rbx)
	movb	73634(%rbx), %cl
	movl	%ecx, %edx
	shrb	$4, %dl
	andb	$1, %dl
	movb	%dl, 19405(%rbx)
	movl	%ecx, %edx
	shrb	$3, %dl
	andb	$1, %dl
	movb	%dl, 19404(%rbx)
	movb	73658(%rbx), %al
	movl	%eax, %edx
	shrb	$2, %dl
	andb	$1, %dl
	movb	%dl, 19463(%rbx)
	movl	%ecx, %edx
	andb	$1, %dl
	movb	%dl, 19401(%rbx)
	shrb	%al
	andb	$1, %al
	movb	%al, 19462(%rbx)
	movb	73632(%rbx), %al
	movl	%eax, %edx
	shrb	$4, %dl
	andb	$1, %dl
	movb	%dl, 19400(%rbx)
	shrb	$3, %al
	andb	$1, %al
	movb	%al, 19399(%rbx)
	shrb	%sil
	andb	$1, %sil
	movb	%sil, 19407(%rbx)
	movb	73610(%rbx), %al
	movl	%eax, %edx
	shrb	$4, %dl
	andb	$1, %dl
	movb	%dl, 19345(%rbx)
	movl	%eax, %edx
	shrb	$3, %dl
	andb	$1, %dl
	movb	%dl, 19344(%rbx)
	shrb	$2, %al
	andb	$1, %al
	movb	%al, 19343(%rbx)
	shrb	%cl
	andb	$1, %cl
	movb	%cl, 19402(%rbx)
	movb	73608(%rbx), %cl
	movl	%ecx, %eax
	shrb	$4, %al
	andb	$1, %al
	movb	%al, 19340(%rbx)
	movl	%ecx, %eax
	shrb	$3, %al
	andb	$1, %al
	movb	%al, 19339(%rbx)
	movl	%ecx, %eax
	shrb	$2, %al
	andb	$1, %al
	movb	%al, 19338(%rbx)
	movb	73606(%rbx), %sil
	movl	%esi, %edx
	shrb	$3, %dl
	andb	$1, %dl
	movb	%dl, 19334(%rbx)
	movl	%esi, %edx
	shrb	$2, %dl
	andb	$1, %dl
	movb	%dl, 19333(%rbx)
	movb	73652(%rbx), %dl
	shrb	$4, %dl
	andb	$1, %dl
	movb	%dl, 19450(%rbx)
	movb	73640(%rbx), %dl
	shrb	$2, %dl
	andb	$1, %dl
	movb	%dl, 19418(%rbx)
	movb	73616(%rbx), %dil
	movl	%edi, %edx
	andb	$1, %dl
	movb	%dl, 19356(%rbx)
	shrb	%cl
	andb	$1, %cl
	movb	%cl, 19337(%rbx)
	movb	73646(%rbx), %cl
	andb	$1, %cl
	movb	%cl, 19431(%rbx)
	movb	73620(%rbx), %cl
	movl	%ecx, %edx
	shrb	%dl
	andb	$1, %dl
	movb	%dl, 19367(%rbx)
	movb	73644(%rbx), %al
	movl	%eax, %edx
	shrb	$2, %dl
	andb	$1, %dl
	movb	%dl, 19428(%rbx)
	andb	$1, %cl
	movb	%cl, 19366(%rbx)
	shrb	%sil
	andb	$1, %sil
	movb	%sil, 19332(%rbx)
	movb	73668(%rbx), %cl
	shrb	$2, %cl
	andb	$1, %cl
	movb	%cl, 19488(%rbx)
	andb	$1, %al
	movb	%al, 19426(%rbx)
	movb	73618(%rbx), %sil
	movl	%esi, %eax
	shrb	%al
	andb	$1, %al
	movb	%al, 19362(%rbx)
	movb	73666(%rbx), %al
	shrb	$2, %al
	andb	$1, %al
	movb	%al, 19483(%rbx)
	movb	73642(%rbx), %r8b
	movl	%r8d, %eax
	andb	$1, %al
	movb	%al, 19421(%rbx)
	shrb	%dil
	andb	$1, %dil
	movb	%dil, 19357(%rbx)
	movb	73612(%rbx), %al
	shrb	$2, %al
	andb	$1, %al
	movb	%al, 19348(%rbx)
	movb	73656(%rbx), %al
	shrb	%al
	andb	$1, %al
	movb	%al, 19457(%rbx)
	movb	73630(%rbx), %al
	shrb	$4, %al
	andb	$1, %al
	movb	%al, 19395(%rbx)
	movb	73628(%rbx), %al
	shrb	$2, %al
	andb	$1, %al
	movb	%al, 19388(%rbx)
	movb	73634(%rbx), %al
	shrb	$2, %al
	andb	$1, %al
	movb	%al, 19403(%rbx)
	movb	73610(%rbx), %cl
	movl	%ecx, %eax
	andb	$1, %al
	movb	%al, 19341(%rbx)
	movb	73648(%rbx), %al
	movl	%eax, %edx
	andb	$1, %dl
	movb	%dl, 19436(%rbx)
	movb	73622(%rbx), %r10b
	movl	%r10d, %edx
	shrb	%dl
	andb	$1, %dl
	movb	%dl, 19372(%rbx)
	movb	73650(%rbx), %dil
	movl	%edi, %edx
	shrb	$2, %dl
	andb	$1, %dl
	movb	%dl, 19443(%rbx)
	movb	73626(%rbx), %r9b
	movl	%r9d, %edx
	andb	$1, %dl
	movb	%dl, 19381(%rbx)
	shrb	$2, %r8b
	andb	$1, %r8b
	movb	%r8b, 19423(%rbx)
	andb	$1, %sil
	movb	%sil, 19361(%rbx)
	movb	73646(%rbx), %dl
	shrb	$2, %dl
	andb	$1, %dl
	movb	%dl, 19433(%rbx)
	andb	$1, %r10b
	movb	%r10b, 19371(%rbx)
	shrb	%cl
	andb	$1, %cl
	movb	%cl, 19342(%rbx)
	shrb	$2, %al
	andb	$1, %al
	movb	%al, 19438(%rbx)
	movb	73624(%rbx), %al
	movl	%eax, %ecx
	andb	$1, %cl
	movb	%cl, 19376(%rbx)
	movb	73636(%rbx), %cl
	shrb	$2, %cl
	andb	$1, %cl
	movb	%cl, 19408(%rbx)
	movb	73612(%rbx), %sil
	movl	%esi, %edx
	andb	$1, %dl
	movb	%dl, 19346(%rbx)
	andb	$1, %dil
	movb	%dil, 19441(%rbx)
	shrb	%al
	andb	$1, %al
	movb	%al, 19377(%rbx)
	movl	%esi, %eax
	shrb	%al
	andb	$1, %al
	movb	%al, 19347(%rbx)
	movb	73652(%rbx), %al
	andb	$1, %al
	movb	%al, 19446(%rbx)
	shrb	%r9b
	andb	$1, %r9b
	movb	%r9b, 19382(%rbx)
	movb	73614(%rbx), %al
	movl	%eax, %edx
	shrb	$2, %dl
	andb	$1, %dl
	movb	%dl, 19353(%rbx)
	movl	%esi, %edx
	shrb	$3, %dl
	andb	$1, %dl
	movb	%dl, 19349(%rbx)
	movb	73638(%rbx), %cl
	movl	%ecx, %edx
	shrb	%dl
	andb	$1, %dl
	movb	%dl, 19412(%rbx)
	shrb	$4, %sil
	andb	$1, %sil
	movb	%sil, 19350(%rbx)
	shrb	$2, %cl
	andb	$1, %cl
	movb	%cl, 19413(%rbx)
	movl	%eax, %ecx
	andb	$1, %cl
	movb	%cl, 19351(%rbx)
	movl	%eax, %ecx
	shrb	%cl
	andb	$1, %cl
	movb	%cl, 19352(%rbx)
	movl	%eax, %ecx
	shrb	$3, %cl
	andb	$1, %cl
	movb	%cl, 19354(%rbx)
	movb	73640(%rbx), %cl
	shrb	%cl
	andb	$1, %cl
	movb	%cl, 19417(%rbx)
	shrb	$4, %al
	andb	$1, %al
	movb	%al, 19355(%rbx)
	movb	73616(%rbx), %al
	movl	%eax, %ecx
	shrb	$2, %cl
	andb	$1, %cl
	movb	%cl, 19358(%rbx)
	movl	%eax, %ecx
	shrb	$3, %cl
	andb	$1, %cl
	movb	%cl, 19359(%rbx)
	movb	73642(%rbx), %cl
	shrb	%cl
	andb	$1, %cl
	movb	%cl, 19422(%rbx)
	shrb	$4, %al
	andb	$1, %al
	movb	%al, 19360(%rbx)
	movb	73618(%rbx), %al
	movl	%eax, %ecx
	shrb	$2, %cl
	andb	$1, %cl
	movb	%cl, 19363(%rbx)
	movl	%eax, %ecx
	shrb	$3, %cl
	andb	$1, %cl
	movb	%cl, 19364(%rbx)
	movb	73644(%rbx), %cl
	shrb	%cl
	andb	$1, %cl
	movb	%cl, 19427(%rbx)
	shrb	$4, %al
	andb	$1, %al
	movb	%al, 19365(%rbx)
	movb	73620(%rbx), %al
	movl	%eax, %ecx
	shrb	$2, %cl
	andb	$1, %cl
	movb	%cl, 19368(%rbx)
	movl	%eax, %ecx
	shrb	$3, %cl
	andb	$1, %cl
	movb	%cl, 19369(%rbx)
	movb	73646(%rbx), %cl
	shrb	%cl
	andb	$1, %cl
	movb	%cl, 19432(%rbx)
	shrb	$4, %al
	andb	$1, %al
	movb	%al, 19370(%rbx)
	movb	73622(%rbx), %al
	movl	%eax, %ecx
	shrb	$2, %cl
	andb	$1, %cl
	movb	%cl, 19373(%rbx)
	movl	%eax, %ecx
	shrb	$3, %cl
	andb	$1, %cl
	movb	%cl, 19374(%rbx)
	movb	73648(%rbx), %cl
	shrb	%cl
	andb	$1, %cl
	movb	%cl, 19437(%rbx)
	shrb	$4, %al
	andb	$1, %al
	movb	%al, 19375(%rbx)
	movb	73624(%rbx), %al
	movl	%eax, %ecx
	shrb	$2, %cl
	andb	$1, %cl
	movb	%cl, 19378(%rbx)
	movl	%eax, %ecx
	shrb	$3, %cl
	andb	$1, %cl
	movb	%cl, 19379(%rbx)
	movb	73650(%rbx), %cl
	shrb	%cl
	andb	$1, %cl
	movb	%cl, 19442(%rbx)
	shrb	$4, %al
	andb	$1, %al
	movb	%al, 19380(%rbx)
	movb	73626(%rbx), %al
	movl	%eax, %ecx
	shrb	$2, %cl
	andb	$1, %cl
	movb	%cl, 19383(%rbx)
	movl	%eax, %ecx
	shrb	$3, %cl
	andb	$1, %cl
	movb	%cl, 19384(%rbx)
	movb	73652(%rbx), %cl
	movl	%ecx, %edx
	shrb	%dl
	andb	$1, %dl
	movb	%dl, 19447(%rbx)
	shrb	$4, %al
	andb	$1, %al
	movb	%al, 19385(%rbx)
	shrb	$2, %cl
	andb	$1, %cl
	movb	%cl, 19448(%rbx)
	movb	73628(%rbx), %al
	movl	%eax, %ecx
	andb	$1, %cl
	movb	%cl, 19386(%rbx)
	movl	%eax, %ecx
	shrb	%cl
	andb	$1, %cl
	movb	%cl, 19387(%rbx)
	movl	%eax, %ecx
	shrb	$3, %cl
	andb	$1, %cl
	movb	%cl, 19389(%rbx)
	movb	73654(%rbx), %cl
	movl	%ecx, %edx
	shrb	%dl
	andb	$1, %dl
	movb	%dl, 19452(%rbx)
	shrb	$4, %al
	andb	$1, %al
	movb	%al, 19390(%rbx)
	shrb	$2, %cl
	andb	$1, %cl
	movb	%cl, 19453(%rbx)
	movb	73630(%rbx), %al
	movl	%eax, %ecx
	andb	$1, %cl
	movb	%cl, 19391(%rbx)
	movl	%eax, %ecx
	shrb	%cl
	andb	$1, %cl
	movb	%cl, 19392(%rbx)
	movb	73606(%rbx), %cl
	movl	%ecx, %edx
	andb	$1, %dl
	movb	%dl, 19331(%rbx)
	movl	%eax, %edx
	shrb	$2, %dl
	andb	$1, %dl
	movb	%dl, 19393(%rbx)
	shrb	$3, %al
	andb	$1, %al
	movb	%al, 19394(%rbx)
	movb	73656(%rbx), %al
	shrb	$2, %al
	andb	$1, %al
	movb	%al, 19458(%rbx)
	movb	73632(%rbx), %al
	movl	%eax, %edx
	andb	$1, %dl
	movb	%dl, 19396(%rbx)
	shrb	$4, %cl
	andb	$1, %cl
	movb	%cl, 19335(%rbx)
	movl	%eax, %ecx
	shrb	%cl
	andb	$1, %cl
	movb	%cl, 19397(%rbx)
	movb	73608(%rbx), %cl
	andb	$1, %cl
	movb	%cl, 19336(%rbx)
	shrb	$2, %al
	andb	$1, %al
	movb	%al, 19398(%rbx)
	movb	68358(%rbx), %dil
	testb	%dil, %dil
	je	.LBB0_654
# %bb.653:                              # %if.then7814
	movb	$0, 1497392(%rbx)
	xorl	%ecx, %ecx
	jmp	.LBB0_660
.LBB0_654:                              # %if.else7797
	cmpb	$0, 68852(%rbx)
	je	.LBB0_656
# %bb.655:                              # %cond.true7800
	movb	68847(%rbx), %cl
	notb	%cl
	andb	$1, %cl
	jmp	.LBB0_657
.LBB0_656:                              # %cond.false7804
	movb	1497392(%rbx), %cl
.LBB0_657:                              # %if.else7815
	movb	%cl, 1497392(%rbx)
	cmpb	$0, 68853(%rbx)
	je	.LBB0_659
# %bb.658:                              # %cond.true7818
	movb	68848(%rbx), %cl
	notb	%cl
	andb	$1, %cl
	jmp	.LBB0_660
.LBB0_659:                              # %cond.false7822
	movb	1497391(%rbx), %cl
.LBB0_660:                              # %if.end7829
	movb	%cl, 1497391(%rbx)
	movb	969(%rbx), %cl
	notb	%cl
	testb	%cl, 773(%rbx)
	je	.LBB0_662
# %bb.661:                              # %if.then7845
	movb	1371(%rbx), %cl
	movb	1372(%rbx), %dl
	movb	%cl, 1491793(%rbx)
	movb	$1, 1491794(%rbx)
	movb	%dl, 1491791(%rbx)
	movb	$1, 1491792(%rbx)
.LBB0_662:                              # %if.end7847
	movb	972(%rbx), %cl
	notb	%cl
	testb	%cl, 774(%rbx)
	je	.LBB0_664
# %bb.663:                              # %if.then7863
	movb	1371(%rbx), %cl
	movb	1372(%rbx), %dl
	movb	%cl, 1491797(%rbx)
	movb	$1, 1491798(%rbx)
	movb	%dl, 1491795(%rbx)
	movb	$1, 1491796(%rbx)
.LBB0_664:                              # %if.end7865
	movb	975(%rbx), %cl
	notb	%cl
	testb	%cl, 775(%rbx)
	je	.LBB0_666
# %bb.665:                              # %if.then7881
	movb	1371(%rbx), %cl
	movb	1372(%rbx), %dl
	movb	%cl, 1491801(%rbx)
	movb	$1, 1491802(%rbx)
	movb	%dl, 1491799(%rbx)
	movb	$1, 1491800(%rbx)
.LBB0_666:                              # %if.end7883
	movb	978(%rbx), %cl
	notb	%cl
	testb	%cl, 776(%rbx)
	je	.LBB0_668
# %bb.667:                              # %if.then7899
	movb	1371(%rbx), %cl
	movb	1372(%rbx), %dl
	movb	%cl, 1491805(%rbx)
	movb	$1, 1491806(%rbx)
	movb	%dl, 1491803(%rbx)
	movb	$1, 1491804(%rbx)
.LBB0_668:                              # %if.end7901
	movb	981(%rbx), %cl
	notb	%cl
	testb	%cl, 777(%rbx)
	je	.LBB0_670
# %bb.669:                              # %if.then7917
	movb	1371(%rbx), %cl
	movb	1372(%rbx), %dl
	movb	%cl, 1491809(%rbx)
	movb	$1, 1491810(%rbx)
	movb	%dl, 1491807(%rbx)
	movb	$1, 1491808(%rbx)
.LBB0_670:                              # %if.end7919
	movb	984(%rbx), %cl
	notb	%cl
	testb	%cl, 778(%rbx)
	je	.LBB0_672
# %bb.671:                              # %if.then7935
	movb	1371(%rbx), %cl
	movb	1372(%rbx), %dl
	movb	%cl, 1491813(%rbx)
	movb	$1, 1491814(%rbx)
	movb	%dl, 1491811(%rbx)
	movb	$1, 1491812(%rbx)
.LBB0_672:                              # %if.end7937
	movb	987(%rbx), %cl
	notb	%cl
	testb	%cl, 779(%rbx)
	je	.LBB0_674
# %bb.673:                              # %if.then7953
	movb	1371(%rbx), %cl
	movb	1372(%rbx), %dl
	movb	%cl, 1491817(%rbx)
	movb	$1, 1491818(%rbx)
	movb	%dl, 1491815(%rbx)
	movb	$1, 1491816(%rbx)
.LBB0_674:                              # %if.end7955
	movb	990(%rbx), %cl
	notb	%cl
	testb	%cl, 780(%rbx)
	je	.LBB0_676
# %bb.675:                              # %if.then7971
	movb	1371(%rbx), %cl
	movb	1372(%rbx), %dl
	movb	%cl, 1491821(%rbx)
	movb	$1, 1491822(%rbx)
	movb	%dl, 1491819(%rbx)
	movb	$1, 1491820(%rbx)
.LBB0_676:                              # %if.end7973
	movb	993(%rbx), %cl
	notb	%cl
	testb	%cl, 781(%rbx)
	je	.LBB0_678
# %bb.677:                              # %if.then7989
	movb	1371(%rbx), %cl
	movb	1372(%rbx), %dl
	movb	%cl, 1491825(%rbx)
	movb	$1, 1491826(%rbx)
	movb	%dl, 1491823(%rbx)
	movb	$1, 1491824(%rbx)
.LBB0_678:                              # %if.end7991
	movb	996(%rbx), %cl
	notb	%cl
	testb	%cl, 782(%rbx)
	je	.LBB0_680
# %bb.679:                              # %if.then8007
	movb	1371(%rbx), %cl
	movb	1372(%rbx), %dl
	movb	%cl, 1491829(%rbx)
	movb	$1, 1491830(%rbx)
	movb	%dl, 1491827(%rbx)
	movb	$1, 1491828(%rbx)
.LBB0_680:                              # %if.end8009
	movb	999(%rbx), %cl
	notb	%cl
	testb	%cl, 783(%rbx)
	je	.LBB0_682
# %bb.681:                              # %if.then8025
	movb	1371(%rbx), %cl
	movb	1372(%rbx), %dl
	movb	%cl, 1491833(%rbx)
	movb	$1, 1491834(%rbx)
	movb	%dl, 1491831(%rbx)
	movb	$1, 1491832(%rbx)
.LBB0_682:                              # %if.end8027
	movb	68218(%rbx), %cl
	orb	2140(%rbx), %cl
	testb	$1, %cl
	jne	.LBB0_684
# %bb.683:                              # %if.then8109
	movzbl	68215(%rbx), %ecx
	movb	453762(%rbx,%rcx), %dl
	movb	%dl, 1493014(%rbx)
	movb	$1, 1493015(%rbx)
	movb	2135(%rbx), %dl
	movb	%dl, 1493013(%rbx)
	movb	453760(%rbx,%rcx), %al
	movb	%al, 1493011(%rbx)
	movb	$1, 1493012(%rbx)
	movb	%dl, 1493010(%rbx)
	movq	453792(%rbx,%rcx,8), %rax
	movq	%rax, 1503848(%rbx)
	movb	$1, 1493009(%rbx)
	movb	2135(%rbx), %al
	movb	%al, 1493008(%rbx)
	movzbl	68215(%rbx), %eax
	movb	453764(%rbx,%rax), %al
	movb	%al, 1493006(%rbx)
	movb	$1, 1493007(%rbx)
	movb	2135(%rbx), %al
	movb	%al, 1493005(%rbx)
	movzbl	68215(%rbx), %eax
	movq	453768(%rbx,%rax,8), %rax
	movq	%rax, 1503840(%rbx)
	movb	$1, 1493003(%rbx)
	movb	2135(%rbx), %al
	movb	%al, 1493002(%rbx)
	movzbl	68215(%rbx), %eax
	movb	453784(%rbx,%rax), %al
	movb	%al, 1492999(%rbx)
	movb	$1, 1493000(%rbx)
	movb	2135(%rbx), %al
	movb	%al, 1492998(%rbx)
.LBB0_684:                              # %if.end8114
	movb	68356(%rbx), %r9b
	testb	%r9b, %r9b
	je	.LBB0_686
# %bb.685:                              # %if.then8135
	movb	$0, 1497380(%rbx)
	xorl	%ecx, %ecx
	jmp	.LBB0_692
.LBB0_686:                              # %if.else8118
	cmpb	$0, 68354(%rbx)
	je	.LBB0_688
# %bb.687:                              # %cond.true8121
	movb	68348(%rbx), %cl
	notb	%cl
	andb	$1, %cl
	jmp	.LBB0_689
.LBB0_688:                              # %cond.false8125
	movb	1497380(%rbx), %cl
.LBB0_689:                              # %if.else8136
	movb	%cl, 1497380(%rbx)
	cmpb	$0, 68353(%rbx)
	je	.LBB0_691
# %bb.690:                              # %cond.true8139
	movb	68347(%rbx), %cl
	notb	%cl
	andb	$1, %cl
	jmp	.LBB0_692
.LBB0_691:                              # %cond.false8143
	movb	1497374(%rbx), %cl
.LBB0_692:                              # %if.end8150
	movb	%cl, 1497374(%rbx)
	movb	70933(%rbx), %r8b
	testb	%r8b, %r8b
	je	.LBB0_694
# %bb.693:                              # %if.then8245
	movb	$0, 1491415(%rbx)
	movb	$0, 1491412(%rbx)
	movb	$0, 1492855(%rbx)
	movb	$0, 1492852(%rbx)
	movb	$0, 1493355(%rbx)
	xorl	%ecx, %ecx
	jmp	.LBB0_712
.LBB0_694:                              # %if.else8154
	cmpb	$0, 581(%rbx)
	je	.LBB0_696
# %bb.695:                              # %cond.true8157
	movb	575(%rbx), %cl
	notb	%cl
	andb	$1, %cl
	jmp	.LBB0_697
.LBB0_696:                              # %cond.false8161
	movb	1491415(%rbx), %cl
.LBB0_697:                              # %if.else8172
	movb	%cl, 1491415(%rbx)
	cmpb	$0, 582(%rbx)
	je	.LBB0_699
# %bb.698:                              # %cond.true8175
	movb	576(%rbx), %cl
	notb	%cl
	andb	$1, %cl
	jmp	.LBB0_700
.LBB0_699:                              # %cond.false8180
	movb	1491412(%rbx), %cl
.LBB0_700:                              # %if.else8191
	movb	%cl, 1491412(%rbx)
	cmpb	$0, 1794(%rbx)
	je	.LBB0_702
# %bb.701:                              # %cond.true8194
	movb	1788(%rbx), %cl
	notb	%cl
	andb	$1, %cl
	jmp	.LBB0_703
.LBB0_702:                              # %cond.false8198
	movb	1492855(%rbx), %cl
.LBB0_703:                              # %if.else8209
	movb	%cl, 1492855(%rbx)
	cmpb	$0, 1795(%rbx)
	je	.LBB0_705
# %bb.704:                              # %cond.true8212
	movb	1789(%rbx), %cl
	notb	%cl
	andb	$1, %cl
	jmp	.LBB0_706
.LBB0_705:                              # %cond.false8217
	movb	1492852(%rbx), %cl
.LBB0_706:                              # %if.else8228
	movb	%cl, 1492852(%rbx)
	cmpb	$0, 3805(%rbx)
	je	.LBB0_708
# %bb.707:                              # %cond.true8231
	movb	3799(%rbx), %cl
	notb	%cl
	andb	$1, %cl
	jmp	.LBB0_709
.LBB0_708:                              # %cond.false8235
	movb	1493355(%rbx), %cl
.LBB0_709:                              # %if.else8246
	movb	%cl, 1493355(%rbx)
	cmpb	$0, 3806(%rbx)
	je	.LBB0_711
# %bb.710:                              # %cond.true8249
	movb	3800(%rbx), %cl
	notb	%cl
	andb	$1, %cl
	jmp	.LBB0_712
.LBB0_711:                              # %cond.false8254
	movb	1493352(%rbx), %cl
.LBB0_712:                              # %if.end8261
	movb	%cl, 1493352(%rbx)
	cmpb	$0, 22924(%rbx)
	movl	$22914, %eax            # imm = 0x5982
	movl	$61550, %ecx            # imm = 0xF06E
	cmovneq	%rcx, %rax
	movb	(%rbx,%rax), %al
	movb	%al, 22914(%rbx)
	movl	$22913, %eax            # imm = 0x5981
	movl	$61549, %edx            # imm = 0xF06D
	cmovneq	%rdx, %rax
	movb	(%rbx,%rax), %al
	movb	%al, 22913(%rbx)
	cmpb	$0, 22923(%rbx)
	movl	$22888, %eax            # imm = 0x5968
	cmovneq	%rcx, %rax
	movb	(%rbx,%rax), %al
	movb	%al, 22888(%rbx)
	movl	$22887, %eax            # imm = 0x5967
	cmovneq	%rdx, %rax
	movb	(%rbx,%rax), %al
	movb	%al, 22887(%rbx)
	cmpb	$0, 22922(%rbx)
	movl	$22862, %eax            # imm = 0x594E
	cmovneq	%rcx, %rax
	movb	(%rbx,%rax), %al
	movb	%al, 22862(%rbx)
	movl	$22861, %eax            # imm = 0x594D
	cmovneq	%rdx, %rax
	movb	(%rbx,%rax), %al
	movb	%al, 22861(%rbx)
	cmpb	$0, 22921(%rbx)
	movl	$22836, %eax            # imm = 0x5934
	cmovneq	%rcx, %rax
	movb	(%rbx,%rax), %al
	movb	%al, 22836(%rbx)
	movl	$22835, %eax            # imm = 0x5933
	cmovneq	%rdx, %rax
	movb	(%rbx,%rax), %al
	movb	%al, 22835(%rbx)
	cmpb	$0, 22918(%rbx)
	movl	$22757, %eax            # imm = 0x58E5
	cmovneq	%rdx, %rax
	movb	(%rbx,%rax), %al
	movb	%al, 22757(%rbx)
	movl	$22758, %eax            # imm = 0x58E6
	cmovneq	%rcx, %rax
	movb	(%rbx,%rax), %al
	movb	%al, 22758(%rbx)
	cmpb	$0, 22917(%rbx)
	movl	$22731, %eax            # imm = 0x58CB
	cmovneq	%rdx, %rax
	movb	(%rbx,%rax), %al
	movb	%al, 22731(%rbx)
	movl	$22732, %eax            # imm = 0x58CC
	cmovneq	%rcx, %rax
	movb	(%rbx,%rax), %al
	movb	%al, 22732(%rbx)
	cmpb	$0, 22919(%rbx)
	movl	$22783, %eax            # imm = 0x58FF
	cmovneq	%rdx, %rax
	movb	(%rbx,%rax), %al
	movb	%al, 22783(%rbx)
	movl	$22784, %eax            # imm = 0x5900
	cmovneq	%rcx, %rax
	movb	(%rbx,%rax), %al
	movb	%al, 22784(%rbx)
	cmpb	$0, 22920(%rbx)
	movl	$22809, %eax            # imm = 0x5919
	cmovneq	%rdx, %rax
	movb	(%rbx,%rax), %al
	movb	%al, 22809(%rbx)
	movl	$22810, %eax            # imm = 0x591A
	cmovneq	%rcx, %rax
	movb	(%rbx,%rax), %al
	movb	%al, 22810(%rbx)
	movb	2173(%rbx), %al
	notb	%al
	testb	%al, 71(%rbx)
	je	.LBB0_714
# %bb.713:                              # %if.then8389
	movb	70896(%rbx), %al
	andb	$63, %al
	movb	%al, 1493069(%rbx)
	movb	$1, 1493070(%rbx)
	movb	2168(%rbx), %al
	movb	%al, 1493068(%rbx)
.LBB0_714:                              # %if.end8394
	movb	867(%rbx), %al
	notb	%al
	testb	%al, 739(%rbx)
	je	.LBB0_716
# %bb.715:                              # %if.then8410
	movb	1371(%rbx), %al
	movb	1372(%rbx), %cl
	movb	%al, 1491657(%rbx)
	movb	$1, 1491658(%rbx)
	movb	%cl, 1491655(%rbx)
	movb	$1, 1491656(%rbx)
.LBB0_716:                              # %if.end8412
	movb	870(%rbx), %al
	notb	%al
	testb	%al, 740(%rbx)
	je	.LBB0_718
# %bb.717:                              # %if.then8428
	movb	1371(%rbx), %al
	movb	1372(%rbx), %cl
	movb	%al, 1491661(%rbx)
	movb	$1, 1491662(%rbx)
	movb	%cl, 1491659(%rbx)
	movb	$1, 1491660(%rbx)
.LBB0_718:                              # %if.end8430
	movb	873(%rbx), %al
	notb	%al
	testb	%al, 741(%rbx)
	je	.LBB0_720
# %bb.719:                              # %if.then8446
	movb	1371(%rbx), %al
	movb	1372(%rbx), %cl
	movb	%al, 1491665(%rbx)
	movb	$1, 1491666(%rbx)
	movb	%cl, 1491663(%rbx)
	movb	$1, 1491664(%rbx)
.LBB0_720:                              # %if.end8448
	movb	876(%rbx), %al
	notb	%al
	testb	%al, 742(%rbx)
	je	.LBB0_722
# %bb.721:                              # %if.then8464
	movb	1371(%rbx), %al
	movb	1372(%rbx), %cl
	movb	%al, 1491669(%rbx)
	movb	$1, 1491670(%rbx)
	movb	%cl, 1491667(%rbx)
	movb	$1, 1491668(%rbx)
.LBB0_722:                              # %if.end8466
	movb	879(%rbx), %al
	notb	%al
	testb	%al, 743(%rbx)
	je	.LBB0_724
# %bb.723:                              # %if.then8482
	movb	1371(%rbx), %al
	movb	1372(%rbx), %cl
	movb	%al, 1491673(%rbx)
	movb	$1, 1491674(%rbx)
	movb	%cl, 1491671(%rbx)
	movb	$1, 1491672(%rbx)
.LBB0_724:                              # %if.end8484
	movb	882(%rbx), %al
	notb	%al
	testb	%al, 744(%rbx)
	je	.LBB0_726
# %bb.725:                              # %if.then8500
	movb	1371(%rbx), %al
	movb	1372(%rbx), %cl
	movb	%al, 1491677(%rbx)
	movb	$1, 1491678(%rbx)
	movb	%cl, 1491675(%rbx)
	movb	$1, 1491676(%rbx)
.LBB0_726:                              # %if.end8502
	movb	885(%rbx), %al
	notb	%al
	testb	%al, 745(%rbx)
	je	.LBB0_728
# %bb.727:                              # %if.then8518
	movb	1371(%rbx), %al
	movb	1372(%rbx), %cl
	movb	%al, 1491681(%rbx)
	movb	$1, 1491682(%rbx)
	movb	%cl, 1491679(%rbx)
	movb	$1, 1491680(%rbx)
.LBB0_728:                              # %if.end8520
	movb	888(%rbx), %al
	notb	%al
	testb	%al, 746(%rbx)
	je	.LBB0_730
# %bb.729:                              # %if.then8536
	movb	1371(%rbx), %al
	movb	1372(%rbx), %cl
	movb	%al, 1491685(%rbx)
	movb	$1, 1491686(%rbx)
	movb	%cl, 1491683(%rbx)
	movb	$1, 1491684(%rbx)
.LBB0_730:                              # %if.end8538
	movb	891(%rbx), %al
	notb	%al
	testb	%al, 747(%rbx)
	je	.LBB0_732
# %bb.731:                              # %if.then8554
	movb	1371(%rbx), %al
	movb	1372(%rbx), %cl
	movb	%al, 1491689(%rbx)
	movb	$1, 1491690(%rbx)
	movb	%cl, 1491687(%rbx)
	movb	$1, 1491688(%rbx)
.LBB0_732:                              # %if.end8556
	movb	894(%rbx), %al
	notb	%al
	testb	%al, 748(%rbx)
	je	.LBB0_734
# %bb.733:                              # %if.then8572
	movb	1371(%rbx), %al
	movb	1372(%rbx), %cl
	movb	%al, 1491693(%rbx)
	movb	$1, 1491694(%rbx)
	movb	%cl, 1491691(%rbx)
	movb	$1, 1491692(%rbx)
.LBB0_734:                              # %if.end8574
	movb	897(%rbx), %al
	notb	%al
	testb	%al, 749(%rbx)
	je	.LBB0_736
# %bb.735:                              # %if.then8590
	movb	1371(%rbx), %al
	movb	1372(%rbx), %cl
	movb	%al, 1491697(%rbx)
	movb	$1, 1491698(%rbx)
	movb	%cl, 1491695(%rbx)
	movb	$1, 1491696(%rbx)
.LBB0_736:                              # %if.end8592
	testb	%r8b, %r8b
	je	.LBB0_738
# %bb.737:
	xorl	%ecx, %ecx
	jmp	.LBB0_740
.LBB0_738:                              # %if.else8596
	movb	2063(%rbx), %cl
	cmpb	2064(%rbx), %cl
	jne	.LBB0_740
# %bb.739:                              # %cond.false8602
	movb	2059(%rbx), %cl
.LBB0_740:                              # %if.end8607
	movb	%cl, 2059(%rbx)
	cmpb	$0, 20865(%rbx)
	je	.LBB0_744
# %bb.741:                              # %cond.true8611
	cmpb	$0, 20863(%rbx)
	je	.LBB0_745
# %bb.742:                              # %cond.true8615
	movb	61550(%rbx), %cl
	cmpb	$0, 20864(%rbx)
	je	.LBB0_746
.LBB0_743:                              # %cond.true8624
	movb	61553(%rbx), %dl
	jmp	.LBB0_747
.LBB0_744:                              # %cond.false8631
	movb	20742(%rbx), %dl
	jmp	.LBB0_748
.LBB0_745:
	xorl	%ecx, %ecx
	cmpb	$0, 20864(%rbx)
	jne	.LBB0_743
.LBB0_746:
	xorl	%edx, %edx
.LBB0_747:                              # %cond.end8633
	orb	%cl, %dl
.LBB0_748:                              # %cond.end8633
	movb	%dl, 20742(%rbx)
	cmpb	$0, 20862(%rbx)
	je	.LBB0_752
# %bb.749:                              # %cond.true8640
	cmpb	$0, 20860(%rbx)
	je	.LBB0_753
# %bb.750:                              # %cond.true8644
	movb	61550(%rbx), %cl
	cmpb	$0, 20861(%rbx)
	je	.LBB0_754
.LBB0_751:                              # %cond.true8653
	movb	61553(%rbx), %dl
	jmp	.LBB0_755
.LBB0_752:                              # %cond.false8660
	movb	20721(%rbx), %dl
	jmp	.LBB0_756
.LBB0_753:
	xorl	%ecx, %ecx
	cmpb	$0, 20861(%rbx)
	jne	.LBB0_751
.LBB0_754:
	xorl	%edx, %edx
.LBB0_755:                              # %cond.end8662
	orb	%cl, %dl
.LBB0_756:                              # %cond.end8662
	movb	%dl, 20721(%rbx)
	cmpb	$0, 20859(%rbx)
	je	.LBB0_760
# %bb.757:                              # %cond.true8669
	cmpb	$0, 20857(%rbx)
	je	.LBB0_761
# %bb.758:                              # %cond.true8673
	movb	61550(%rbx), %cl
	cmpb	$0, 20858(%rbx)
	je	.LBB0_762
.LBB0_759:                              # %cond.true8682
	movb	61553(%rbx), %dl
	jmp	.LBB0_763
.LBB0_760:                              # %cond.false8689
	movb	20700(%rbx), %dl
	jmp	.LBB0_764
.LBB0_761:
	xorl	%ecx, %ecx
	cmpb	$0, 20858(%rbx)
	jne	.LBB0_759
.LBB0_762:
	xorl	%edx, %edx
.LBB0_763:                              # %cond.end8691
	orb	%cl, %dl
.LBB0_764:                              # %cond.end8691
	movb	%dl, 20700(%rbx)
	cmpb	$0, 20856(%rbx)
	je	.LBB0_768
# %bb.765:                              # %cond.true8698
	cmpb	$0, 20854(%rbx)
	je	.LBB0_769
# %bb.766:                              # %cond.true8702
	movb	61550(%rbx), %cl
	cmpb	$0, 20855(%rbx)
	je	.LBB0_770
.LBB0_767:                              # %cond.true8711
	movb	61553(%rbx), %dl
	jmp	.LBB0_771
.LBB0_768:                              # %cond.false8718
	movb	20679(%rbx), %dl
	jmp	.LBB0_772
.LBB0_769:
	xorl	%ecx, %ecx
	cmpb	$0, 20855(%rbx)
	jne	.LBB0_767
.LBB0_770:
	xorl	%edx, %edx
.LBB0_771:                              # %cond.end8720
	orb	%cl, %dl
.LBB0_772:                              # %cond.end8720
	movb	%dl, 20679(%rbx)
	cmpb	$0, 20850(%rbx)
	je	.LBB0_776
# %bb.773:                              # %cond.true8727
	cmpb	$0, 20848(%rbx)
	je	.LBB0_777
# %bb.774:                              # %cond.true8731
	movb	61550(%rbx), %cl
	cmpb	$0, 20849(%rbx)
	je	.LBB0_778
.LBB0_775:                              # %cond.true8740
	movb	61553(%rbx), %dl
	jmp	.LBB0_779
.LBB0_776:                              # %cond.false8747
	movb	20637(%rbx), %dl
	jmp	.LBB0_780
.LBB0_777:
	xorl	%ecx, %ecx
	cmpb	$0, 20849(%rbx)
	jne	.LBB0_775
.LBB0_778:
	xorl	%edx, %edx
.LBB0_779:                              # %cond.end8749
	orb	%cl, %dl
.LBB0_780:                              # %cond.end8749
	movb	%dl, 20637(%rbx)
	cmpb	$0, 20847(%rbx)
	je	.LBB0_784
# %bb.781:                              # %cond.true8756
	cmpb	$0, 20845(%rbx)
	je	.LBB0_785
# %bb.782:                              # %cond.true8760
	movb	61550(%rbx), %cl
	cmpb	$0, 20846(%rbx)
	je	.LBB0_786
.LBB0_783:                              # %cond.true8769
	movb	61553(%rbx), %dl
	jmp	.LBB0_787
.LBB0_784:                              # %cond.false8776
	movb	20616(%rbx), %dl
	jmp	.LBB0_788
.LBB0_785:
	xorl	%ecx, %ecx
	cmpb	$0, 20846(%rbx)
	jne	.LBB0_783
.LBB0_786:
	xorl	%edx, %edx
.LBB0_787:                              # %cond.end8778
	orb	%cl, %dl
.LBB0_788:                              # %cond.end8778
	movb	%dl, 20616(%rbx)
	cmpb	$0, 20835(%rbx)
	je	.LBB0_792
# %bb.789:                              # %cond.true8785
	cmpb	$0, 20833(%rbx)
	je	.LBB0_793
# %bb.790:                              # %cond.true8789
	movb	61550(%rbx), %cl
	cmpb	$0, 20834(%rbx)
	je	.LBB0_794
.LBB0_791:                              # %cond.true8798
	movb	61553(%rbx), %dl
	jmp	.LBB0_795
.LBB0_792:                              # %cond.false8805
	movb	20532(%rbx), %dl
	jmp	.LBB0_796
.LBB0_793:
	xorl	%ecx, %ecx
	cmpb	$0, 20834(%rbx)
	jne	.LBB0_791
.LBB0_794:
	xorl	%edx, %edx
.LBB0_795:                              # %cond.end8807
	orb	%cl, %dl
.LBB0_796:                              # %cond.end8807
	movb	%dl, 20532(%rbx)
	cmpb	$0, 20829(%rbx)
	je	.LBB0_800
# %bb.797:                              # %cond.true8814
	cmpb	$0, 20827(%rbx)
	je	.LBB0_801
# %bb.798:                              # %cond.true8818
	movb	61550(%rbx), %cl
	cmpb	$0, 20828(%rbx)
	je	.LBB0_802
.LBB0_799:                              # %cond.true8827
	movb	61553(%rbx), %dl
	jmp	.LBB0_803
.LBB0_800:                              # %cond.false8834
	movb	20490(%rbx), %dl
	jmp	.LBB0_804
.LBB0_801:
	xorl	%ecx, %ecx
	cmpb	$0, 20828(%rbx)
	jne	.LBB0_799
.LBB0_802:
	xorl	%edx, %edx
.LBB0_803:                              # %cond.end8836
	orb	%cl, %dl
.LBB0_804:                              # %cond.end8836
	movb	%dl, 20490(%rbx)
	cmpb	$0, 20841(%rbx)
	je	.LBB0_808
# %bb.805:                              # %cond.true8843
	cmpb	$0, 20839(%rbx)
	je	.LBB0_809
# %bb.806:                              # %cond.true8847
	movb	61550(%rbx), %cl
	cmpb	$0, 20840(%rbx)
	je	.LBB0_810
.LBB0_807:                              # %cond.true8856
	movb	61553(%rbx), %dl
	jmp	.LBB0_811
.LBB0_808:                              # %cond.false8863
	movb	20574(%rbx), %dl
	jmp	.LBB0_812
.LBB0_809:
	xorl	%ecx, %ecx
	cmpb	$0, 20840(%rbx)
	jne	.LBB0_807
.LBB0_810:
	xorl	%edx, %edx
.LBB0_811:                              # %cond.end8865
	orb	%cl, %dl
.LBB0_812:                              # %cond.end8865
	movb	%dl, 20574(%rbx)
	cmpb	$0, 20844(%rbx)
	je	.LBB0_816
# %bb.813:                              # %cond.true8872
	cmpb	$0, 20842(%rbx)
	je	.LBB0_817
# %bb.814:                              # %cond.true8876
	movb	61550(%rbx), %cl
	cmpb	$0, 20843(%rbx)
	je	.LBB0_818
.LBB0_815:                              # %cond.true8885
	movb	61553(%rbx), %dl
	jmp	.LBB0_819
.LBB0_816:                              # %cond.false8892
	movb	20595(%rbx), %dl
	jmp	.LBB0_820
.LBB0_817:
	xorl	%ecx, %ecx
	cmpb	$0, 20843(%rbx)
	jne	.LBB0_815
.LBB0_818:
	xorl	%edx, %edx
.LBB0_819:                              # %cond.end8894
	orb	%cl, %dl
.LBB0_820:                              # %cond.end8894
	movb	%dl, 20595(%rbx)
	cmpb	$0, 20838(%rbx)
	je	.LBB0_824
# %bb.821:                              # %cond.true8901
	cmpb	$0, 20836(%rbx)
	je	.LBB0_825
# %bb.822:                              # %cond.true8905
	movb	61550(%rbx), %cl
	cmpb	$0, 20837(%rbx)
	je	.LBB0_826
.LBB0_823:                              # %cond.true8914
	movb	61553(%rbx), %dl
	jmp	.LBB0_827
.LBB0_824:                              # %cond.false8921
	movb	20553(%rbx), %dl
	jmp	.LBB0_828
.LBB0_825:
	xorl	%ecx, %ecx
	cmpb	$0, 20837(%rbx)
	jne	.LBB0_823
.LBB0_826:
	xorl	%edx, %edx
.LBB0_827:                              # %cond.end8923
	orb	%cl, %dl
.LBB0_828:                              # %cond.end8923
	movb	%dl, 20553(%rbx)
	cmpb	$0, 20832(%rbx)
	je	.LBB0_832
# %bb.829:                              # %cond.true8930
	cmpb	$0, 20830(%rbx)
	je	.LBB0_833
# %bb.830:                              # %cond.true8934
	movb	61550(%rbx), %cl
	cmpb	$0, 20831(%rbx)
	je	.LBB0_834
.LBB0_831:                              # %cond.true8943
	movb	61553(%rbx), %dl
	jmp	.LBB0_835
.LBB0_832:                              # %cond.false8950
	movb	20511(%rbx), %dl
	jmp	.LBB0_836
.LBB0_833:
	xorl	%ecx, %ecx
	cmpb	$0, 20831(%rbx)
	jne	.LBB0_831
.LBB0_834:
	xorl	%edx, %edx
.LBB0_835:                              # %cond.end8952
	orb	%cl, %dl
.LBB0_836:                              # %cond.end8952
	movb	%dl, 20511(%rbx)
	cmpb	$0, 20853(%rbx)
	je	.LBB0_840
# %bb.837:                              # %cond.true8959
	cmpb	$0, 20851(%rbx)
	je	.LBB0_841
# %bb.838:                              # %cond.true8963
	movb	61550(%rbx), %cl
	cmpb	$0, 20852(%rbx)
	je	.LBB0_842
.LBB0_839:                              # %cond.true8972
	movb	61553(%rbx), %dl
	jmp	.LBB0_843
.LBB0_840:                              # %cond.false8979
	movb	20658(%rbx), %dl
	jmp	.LBB0_844
.LBB0_841:
	xorl	%ecx, %ecx
	cmpb	$0, 20852(%rbx)
	jne	.LBB0_839
.LBB0_842:
	xorl	%edx, %edx
.LBB0_843:                              # %cond.end8981
	orb	%cl, %dl
.LBB0_844:                              # %cond.end8981
	movb	%dl, 20658(%rbx)
	testb	%dil, %dil
	je	.LBB0_846
# %bb.845:
	xorl	%eax, %eax
	jmp	.LBB0_851
.LBB0_846:                              # %if.else8988
	movb	68870(%rbx), %al
	cmpb	68872(%rbx), %al
	jne	.LBB0_848
# %bb.847:                              # %cond.false9005
	movb	68864(%rbx), %al
	jmp	.LBB0_851
.LBB0_848:                              # %cond.true8992
	cmpb	$0, 68866(%rbx)
	je	.LBB0_850
# %bb.849:                              # %cond.true8995
	movb	68766(%rbx), %al
	notb	%al
	andb	68867(%rbx), %al
	jmp	.LBB0_851
.LBB0_850:                              # %cond.false9000
	movb	68867(%rbx), %al
.LBB0_851:                              # %if.end9012
	movb	%al, 68864(%rbx)
	movb	17(%rbx), %r11b
	testb	%r11b, %r11b
	je	.LBB0_854
# %bb.852:                              # %if.then9051
	movq	$0, 230524(%rbx)
	movl	$0, 230532(%rbx)
	testb	%r8b, %r8b
	je	.LBB0_855
.LBB0_853:
	xorl	%eax, %eax
	jmp	.LBB0_858
.LBB0_854:                              # %if.else9052
	movl	$8191, %eax             # imm = 0x1FFF
	andl	230496(%rbx), %eax
	xorl	%ecx, %ecx
	cmpl	$56, %eax
	sete	%cl
	movzbl	71008(%rbx), %edx
	testl	%edx, %ecx
	movl	$230528, %ecx           # imm = 0x38480
	movl	$230568, %edi           # imm = 0x384A8
	cmoveq	%rcx, %rdi
	movl	(%rbx,%rdi), %ecx
	movl	%ecx, 230528(%rbx)
	xorl	%ecx, %ecx
	cmpl	$32, %eax
	sete	%cl
	testl	%edx, %ecx
	movl	$230524, %ecx           # imm = 0x3847C
	movl	$230572, %edi           # imm = 0x384AC
	cmoveq	%rcx, %rdi
	movl	(%rbx,%rdi), %ecx
	movl	%ecx, 230524(%rbx)
	xorl	%ecx, %ecx
	cmpl	$80, %eax
	sete	%cl
	testl	%edx, %ecx
	movl	$230532, %eax           # imm = 0x38484
	movl	$230576, %ecx           # imm = 0x384B0
	cmoveq	%rax, %rcx
	movl	(%rbx,%rcx), %eax
	movl	%eax, 230532(%rbx)
	testb	%r8b, %r8b
	jne	.LBB0_853
.LBB0_855:                              # %if.else9071
	cmpb	$0, 608(%rbx)
	je	.LBB0_857
# %bb.856:                              # %cond.true9074
	movb	602(%rbx), %al
	notb	%al
	andb	$1, %al
	jmp	.LBB0_858
.LBB0_857:                              # %cond.false9079
	movb	1491446(%rbx), %al
.LBB0_858:                              # %if.end9086
	movb	%al, 1491446(%rbx)
	testb	%r11b, %r11b
	je	.LBB0_865
# %bb.859:                              # %if.then9238
	movb	$0, 1497809(%rbx)
	movq	$0, 230508(%rbx)
	movl	$0, 230516(%rbx)
	xorl	%eax, %eax
.LBB0_860:                              # %if.end9266.sink.split
	movl	%eax, 230520(%rbx)
.LBB0_861:                              # %if.end9266
	movb	27907(%rbx), %bpl
	testb	%bpl, %bpl
	je	.LBB0_871
# %bb.862:                              # %cond.true9269
	cmpb	$0, 27905(%rbx)
	je	.LBB0_872
# %bb.863:                              # %cond.true9272
	movb	19062(%rbx), %al
	cmpb	$0, 27906(%rbx)
	je	.LBB0_873
.LBB0_864:                              # %cond.true9279
	movb	19071(%rbx), %cl
	jmp	.LBB0_874
.LBB0_865:                              # %if.else9090
	movb	71105(%rbx), %al
	cmpb	$2, %al
	je	.LBB0_1544
# %bb.866:                              # %if.else9090
	cmpb	$1, %al
	je	.LBB0_1545
# %bb.867:                              # %if.else9090
	testb	%al, %al
	jne	.LBB0_1547
# %bb.868:                              # %if.then9094
	movb	$2, %al
	cmpb	$0, 71108(%rbx)
	jne	.LBB0_1549
# %bb.869:                              # %if.else9098
	movb	$1, %al
	cmpb	$0, 71106(%rbx)
	jne	.LBB0_1549
	jmp	.LBB0_870
.LBB0_871:                              # %cond.false9285
	movb	27846(%rbx), %cl
	jmp	.LBB0_875
.LBB0_872:
	xorl	%eax, %eax
	cmpb	$0, 27906(%rbx)
	jne	.LBB0_864
.LBB0_873:
	xorl	%ecx, %ecx
.LBB0_874:                              # %cond.end9287
	orb	%al, %cl
.LBB0_875:                              # %cond.end9287
	movb	%cl, 27846(%rbx)
	movb	27904(%rbx), %r14b
	testb	%r14b, %r14b
	je	.LBB0_879
# %bb.876:                              # %cond.true9293
	cmpb	$0, 27902(%rbx)
	je	.LBB0_880
# %bb.877:                              # %cond.true9296
	movb	19062(%rbx), %al
	cmpb	$0, 27903(%rbx)
	je	.LBB0_881
.LBB0_878:                              # %cond.true9304
	movb	19071(%rbx), %cl
	jmp	.LBB0_882
.LBB0_879:                              # %cond.false9311
	movb	27841(%rbx), %cl
	jmp	.LBB0_883
.LBB0_880:
	xorl	%eax, %eax
	cmpb	$0, 27903(%rbx)
	jne	.LBB0_878
.LBB0_881:
	xorl	%ecx, %ecx
.LBB0_882:                              # %cond.end9313
	orb	%al, %cl
.LBB0_883:                              # %cond.end9313
	movb	%cl, 27841(%rbx)
	movb	27901(%rbx), %r12b
	testb	%r12b, %r12b
	je	.LBB0_887
# %bb.884:                              # %cond.true9319
	cmpb	$0, 27899(%rbx)
	je	.LBB0_888
# %bb.885:                              # %cond.true9322
	movb	19062(%rbx), %al
	cmpb	$0, 27900(%rbx)
	je	.LBB0_889
.LBB0_886:                              # %cond.true9330
	movb	19071(%rbx), %cl
	jmp	.LBB0_890
.LBB0_887:                              # %cond.false9337
	movb	27836(%rbx), %cl
	jmp	.LBB0_891
.LBB0_888:
	xorl	%eax, %eax
	cmpb	$0, 27900(%rbx)
	jne	.LBB0_886
.LBB0_889:
	xorl	%ecx, %ecx
.LBB0_890:                              # %cond.end9339
	orb	%al, %cl
.LBB0_891:                              # %cond.end9339
	movb	%cl, 27836(%rbx)
	movb	957(%rbx), %al
	notb	%al
	testb	%al, 769(%rbx)
	je	.LBB0_893
# %bb.892:                              # %if.then9358
	movb	1371(%rbx), %al
	movb	1372(%rbx), %cl
	movb	%al, 1491777(%rbx)
	movb	$1, 1491778(%rbx)
	movb	%cl, 1491775(%rbx)
	movb	$1, 1491776(%rbx)
.LBB0_893:                              # %if.end9360
	movb	960(%rbx), %al
	notb	%al
	testb	%al, 770(%rbx)
	je	.LBB0_895
# %bb.894:                              # %if.then9376
	movb	1371(%rbx), %al
	movb	1372(%rbx), %cl
	movb	%al, 1491781(%rbx)
	movb	$1, 1491782(%rbx)
	movb	%cl, 1491779(%rbx)
	movb	$1, 1491780(%rbx)
.LBB0_895:                              # %if.end9378
	movb	963(%rbx), %al
	notb	%al
	testb	%al, 771(%rbx)
	je	.LBB0_897
# %bb.896:                              # %if.then9394
	movb	1371(%rbx), %al
	movb	1372(%rbx), %cl
	movb	%al, 1491785(%rbx)
	movb	$1, 1491786(%rbx)
	movb	%cl, 1491783(%rbx)
	movb	$1, 1491784(%rbx)
.LBB0_897:                              # %if.end9396
	movb	966(%rbx), %al
	notb	%al
	testb	%al, 772(%rbx)
	je	.LBB0_899
# %bb.898:                              # %if.then9412
	movb	1371(%rbx), %al
	movb	1372(%rbx), %cl
	movb	%al, 1491789(%rbx)
	movb	$1, 1491790(%rbx)
	movb	%cl, 1491787(%rbx)
	movb	$1, 1491788(%rbx)
.LBB0_899:                              # %if.end9414
	movb	5894(%rbx), %r15b
	movb	%r15b, 13031(%rbx)
	movb	13009(%rbx), %al
	movb	%al, 6(%rsp)            # 1-byte Spill
	andb	%r15b, %al
	movb	%al, 13023(%rbx)
	movb	68137(%rbx), %al
	orb	68155(%rbx), %al
	movb	%al, 7(%rsp)            # 1-byte Spill
	testb	$1, %al
	jne	.LBB0_901
# %bb.900:                              # %if.then9427
	movzbl	68134(%rbx), %eax
	movq	453464(%rbx,%rax,8), %rax
	movq	%rax, 1504952(%rbx)
	movb	$1, 1497097(%rbx)
	movb	68150(%rbx), %al
	movb	%al, 1497096(%rbx)
.LBB0_901:                              # %if.end9430
	movb	68174(%rbx), %r10b
	orb	68192(%rbx), %r10b
	testb	$1, %r10b
	jne	.LBB0_903
# %bb.902:                              # %if.then9438
	movzbl	68171(%rbx), %eax
	movq	453608(%rbx,%rax,8), %rax
	movq	%rax, 1505000(%rbx)
	movb	$1, 1497145(%rbx)
	movb	68187(%rbx), %al
	movb	%al, 1497144(%rbx)
.LBB0_903:                              # %if.end9441
	testb	%r8b, %r8b
	je	.LBB0_905
# %bb.904:
	xorl	%eax, %eax
	jmp	.LBB0_908
.LBB0_905:                              # %if.else9445
	cmpb	$0, 609(%rbx)
	je	.LBB0_907
# %bb.906:                              # %cond.true9448
	movb	603(%rbx), %al
	notb	%al
	andb	$1, %al
	jmp	.LBB0_908
.LBB0_907:                              # %cond.false9452
	movb	1491452(%rbx), %al
.LBB0_908:                              # %if.end9459
	movb	%al, 1491452(%rbx)
	movb	2183(%rbx), %al
	notb	%al
	testb	%al, 70(%rbx)
	je	.LBB0_910
# %bb.909:                              # %if.then9544
	movzbl	70909(%rbx), %eax
	movb	1010308(%rbx,%rax), %cl
	movb	%cl, 1493087(%rbx)
	movb	$1, 1493088(%rbx)
	movb	2178(%rbx), %cl
	movb	%cl, 1493086(%rbx)
	movq	%rax, %rdi
	shlq	$5, %rdi
	movdqu	1010336(%rbx,%rdi), %xmm0
	movdqu	1010352(%rbx,%rdi), %xmm1
	movdqu	%xmm1, 1500240(%rbx)
	movdqu	%xmm0, 1500224(%rbx)
	movb	$1, 1493085(%rbx)
	movb	%cl, 1493084(%rbx)
	movq	1010320(%rbx,%rax,8), %rax
	movq	%rax, 1503872(%rbx)
	movb	$1, 1493078(%rbx)
	movb	%cl, 1493077(%rbx)
.LBB0_910:                              # %if.end9549
	testb	%r8b, %r8b
	je	.LBB0_912
# %bb.911:                              # %if.then9608
	movb	$0, 1491536(%rbx)
	movb	$0, 1491530(%rbx)
	movb	$0, 1492711(%rbx)
	xorl	%eax, %eax
	jmp	.LBB0_924
.LBB0_912:                              # %if.else9553
	cmpb	$0, 690(%rbx)
	je	.LBB0_914
# %bb.913:                              # %cond.true9556
	movb	684(%rbx), %al
	notb	%al
	andb	$1, %al
	jmp	.LBB0_915
.LBB0_914:                              # %cond.false9561
	movb	1491536(%rbx), %al
.LBB0_915:                              # %if.else9572
	movb	%al, 1491536(%rbx)
	cmpb	$0, 689(%rbx)
	je	.LBB0_917
# %bb.916:                              # %cond.true9575
	movb	683(%rbx), %al
	notb	%al
	andb	$1, %al
	jmp	.LBB0_918
.LBB0_917:                              # %cond.false9579
	movb	1491530(%rbx), %al
.LBB0_918:                              # %if.else9590
	movb	%al, 1491530(%rbx)
	cmpb	$0, 1657(%rbx)
	je	.LBB0_920
# %bb.919:                              # %cond.true9593
	movb	1651(%rbx), %al
	notb	%al
	andb	$1, %al
	jmp	.LBB0_921
.LBB0_920:                              # %cond.false9598
	movb	1492711(%rbx), %al
.LBB0_921:                              # %if.else9609
	movb	%al, 1492711(%rbx)
	cmpb	$0, 1656(%rbx)
	je	.LBB0_923
# %bb.922:                              # %cond.true9612
	movb	1650(%rbx), %al
	notb	%al
	andb	$1, %al
	jmp	.LBB0_924
.LBB0_923:                              # %cond.false9616
	movb	1492705(%rbx), %al
.LBB0_924:                              # %if.end9623
	movb	%al, 1492705(%rbx)
	cmpb	$0, 5404(%rbx)
	je	.LBB0_926
# %bb.925:                              # %cond.true9625
	movb	68296(%rbx), %al
	andb	$6, %al
	cmpb	$4, %al
	sete	%al
	jmp	.LBB0_927
.LBB0_926:                              # %cond.false9630
	movb	5438(%rbx), %al
.LBB0_927:                              # %cond.end9632
	movb	%al, 5438(%rbx)
	testb	%r8b, %r8b
	je	.LBB0_930
# %bb.928:                              # %if.then9653
	movb	$0, 259(%rbx)
	movb	$0, 257(%rbx)
	testb	%r9b, %r9b
	je	.LBB0_931
.LBB0_929:                              # %if.then9724
	movb	$0, 1497094(%rbx)
	movb	$0, 1497089(%rbx)
	movb	$0, 1497137(%rbx)
	xorl	%eax, %eax
	jmp	.LBB0_943
.LBB0_930:                              # %if.else9654
	movzbl	246(%rbx), %eax
	andl	$1, %eax
	movb	255(%rbx,%rax,4), %cl
	movb	%cl, 259(%rbx)
	leaq	(%rax,%rax,2), %rax
	movb	254(%rbx,%rax), %al
	movb	%al, 257(%rbx)
	testb	%r9b, %r9b
	jne	.LBB0_929
.LBB0_931:                              # %if.else9670
	cmpb	$0, 68147(%rbx)
	je	.LBB0_933
# %bb.932:                              # %cond.true9673
	movb	68141(%rbx), %al
	notb	%al
	andb	$1, %al
	jmp	.LBB0_934
.LBB0_933:                              # %cond.false9677
	movb	1497094(%rbx), %al
.LBB0_934:                              # %if.else9688
	movb	%al, 1497094(%rbx)
	cmpb	$0, 68148(%rbx)
	je	.LBB0_936
# %bb.935:                              # %cond.true9691
	movb	68142(%rbx), %al
	notb	%al
	andb	$1, %al
	jmp	.LBB0_937
.LBB0_936:                              # %cond.false9695
	movb	1497089(%rbx), %al
.LBB0_937:                              # %if.else9706
	movb	%al, 1497089(%rbx)
	cmpb	$0, 68184(%rbx)
	je	.LBB0_939
# %bb.938:                              # %cond.true9709
	movb	68178(%rbx), %al
	notb	%al
	andb	$1, %al
	jmp	.LBB0_940
.LBB0_939:                              # %cond.false9714
	movb	1497137(%rbx), %al
.LBB0_940:                              # %if.else9725
	movb	%al, 1497137(%rbx)
	cmpb	$0, 68185(%rbx)
	je	.LBB0_942
# %bb.941:                              # %cond.true9728
	movb	68179(%rbx), %al
	notb	%al
	andb	$1, %al
	jmp	.LBB0_943
.LBB0_942:                              # %cond.false9732
	movb	1497126(%rbx), %al
.LBB0_943:                              # %if.end9739
	movb	%al, 1497126(%rbx)
	testb	%r11b, %r11b
	je	.LBB0_945
# %bb.944:                              # %if.then9742
	movl	$0, 230500(%rbx)
	jmp	.LBB0_946
.LBB0_945:                              # %if.else9743
	movzbl	71008(%rbx), %eax
	xorl	%ecx, %ecx
	testl	$8191, 230496(%rbx)     # imm = 0x1FFF
	sete	%cl
	testl	%eax, %ecx
	movl	$230500, %eax           # imm = 0x38464
	movl	$230548, %ecx           # imm = 0x38494
	cmoveq	%rax, %rcx
	movl	(%rbx,%rcx), %eax
	movl	%eax, 230500(%rbx)
.LBB0_946:                              # %if.end9759
	cmpb	$0, 39585(%rbx)
	movl	$39575, %ecx            # imm = 0x9A97
	movl	$61560, %eax            # imm = 0xF078
	cmovneq	%rax, %rcx
	movb	(%rbx,%rcx), %cl
	movb	%cl, 39575(%rbx)
	movl	$39574, %edi            # imm = 0x9A96
	movl	$61559, %ecx            # imm = 0xF077
	cmovneq	%rcx, %rdi
	movb	(%rbx,%rdi), %dl
	movb	%dl, 39574(%rbx)
	cmpb	$0, 39584(%rbx)
	movl	$39559, %edx            # imm = 0x9A87
	cmovneq	%rax, %rdx
	movb	(%rbx,%rdx), %dl
	movb	%dl, 39559(%rbx)
	movl	$39558, %edx            # imm = 0x9A86
	cmovneq	%rcx, %rdx
	movb	(%rbx,%rdx), %dl
	movb	%dl, 39558(%rbx)
	cmpb	$0, 39583(%rbx)
	movl	$39543, %edx            # imm = 0x9A77
	cmovneq	%rax, %rdx
	movb	(%rbx,%rdx), %dl
	movb	%dl, 39543(%rbx)
	movl	$39542, %edx            # imm = 0x9A76
	cmovneq	%rcx, %rdx
	movb	(%rbx,%rdx), %dl
	movb	%dl, 39542(%rbx)
	cmpb	$0, 39582(%rbx)
	movl	$39527, %edx            # imm = 0x9A67
	cmovneq	%rax, %rdx
	movb	(%rbx,%rdx), %dl
	movb	%dl, 39527(%rbx)
	movl	$39526, %edx            # imm = 0x9A66
	cmovneq	%rcx, %rdx
	movb	(%rbx,%rdx), %dl
	movb	%dl, 39526(%rbx)
	cmpb	$0, 39579(%rbx)
	movl	$39478, %edx            # imm = 0x9A36
	cmovneq	%rcx, %rdx
	movb	(%rbx,%rdx), %dl
	movb	%dl, 39478(%rbx)
	movl	$39479, %edx            # imm = 0x9A37
	cmovneq	%rax, %rdx
	movb	(%rbx,%rdx), %dl
	movb	%dl, 39479(%rbx)
	cmpb	$0, 39578(%rbx)
	movl	$39462, %edx            # imm = 0x9A26
	cmovneq	%rcx, %rdx
	movb	(%rbx,%rdx), %dl
	movb	%dl, 39462(%rbx)
	movl	$39463, %edx            # imm = 0x9A27
	cmovneq	%rax, %rdx
	movb	(%rbx,%rdx), %dl
	movb	%dl, 39463(%rbx)
	cmpb	$0, 39580(%rbx)
	movl	$39494, %edx            # imm = 0x9A46
	cmovneq	%rcx, %rdx
	movb	(%rbx,%rdx), %dl
	movb	%dl, 39494(%rbx)
	movl	$39495, %edx            # imm = 0x9A47
	cmovneq	%rax, %rdx
	movb	(%rbx,%rdx), %dl
	movb	%dl, 39495(%rbx)
	cmpb	$0, 39581(%rbx)
	movl	$39510, %edx            # imm = 0x9A56
	cmovneq	%rcx, %rdx
	movb	(%rbx,%rdx), %cl
	movb	%cl, 39510(%rbx)
	movl	$39511, %ecx            # imm = 0x9A57
	cmovneq	%rax, %rcx
	movb	(%rbx,%rcx), %al
	movb	%al, 39511(%rbx)
	cmpb	$0, 247(%rbx)
	je	.LBB0_948
# %bb.947:                              # %cond.true9885
	movzbl	254(%rbx), %edx
	movzbl	2151(%rbx), %esi
	shrl	$2, %esi
	movb	2152(%rbx), %cl
	movb	2203(%rbx), %al
	movl	$63, %r13d
	shll	%cl, %r13d
	movl	$63, %edi
	shrl	$5, %r13d
	orl	%esi, %r13d
	notl	%r13d
	andl	%edx, %r13d
	movzbl	255(%rbx), %edx
	movzbl	2202(%rbx), %esi
	shrl	$2, %esi
	movl	%eax, %ecx
	shll	%cl, %edi
	shrl	$5, %edi
	orl	%esi, %edi
	notl	%edi
	andl	%edx, %edi
	orl	%r13d, %edi
	jmp	.LBB0_949
.LBB0_948:                              # %cond.false9911
	movzbl	246(%rbx), %edi
	movzbl	262(%rbx), %eax
	subl	%eax, %edi
.LBB0_949:                              # %cond.end9915
	movl	%r8d, %eax
	notb	%al
	andb	%dil, %al
	andb	$1, %al
	movb	%al, 246(%rbx)
	movb	15470(%rbx), %al
	movb	%al, 10812(%rbx)
	movb	%al, 10808(%rbx)
	movb	%al, 10816(%rbx)
	movb	%al, 10804(%rbx)
	testb	%bpl, %bpl
	je	.LBB0_951
# %bb.950:                              # %cond.true9928
	movb	19061(%rbx), %cl
	andb	27905(%rbx), %cl
	movb	19070(%rbx), %al
	andb	27906(%rbx), %al
	orb	%cl, %al
	jmp	.LBB0_952
.LBB0_951:                              # %cond.false9938
	movb	27845(%rbx), %al
.LBB0_952:                              # %cond.end9940
	movl	%r9d, %r13d
	movb	%al, 27845(%rbx)
	testb	%r14b, %r14b
	je	.LBB0_954
# %bb.953:                              # %cond.true9947
	movb	19061(%rbx), %cl
	andb	27902(%rbx), %cl
	movb	19070(%rbx), %al
	andb	27903(%rbx), %al
	orb	%cl, %al
	jmp	.LBB0_955
.LBB0_954:                              # %cond.false9959
	movb	27840(%rbx), %al
.LBB0_955:                              # %cond.end9961
	movb	%al, 27840(%rbx)
	testb	%r12b, %r12b
	je	.LBB0_957
# %bb.956:                              # %cond.true9968
	movb	19061(%rbx), %cl
	andb	27899(%rbx), %cl
	movb	19070(%rbx), %al
	andb	27900(%rbx), %al
	orb	%cl, %al
	jmp	.LBB0_958
.LBB0_957:                              # %cond.false9980
	movb	27835(%rbx), %al
.LBB0_958:                              # %cond.end9982
	movb	%al, 27835(%rbx)
	cmpb	$0, 27898(%rbx)
	je	.LBB0_960
# %bb.959:                              # %cond.true9988
	movb	19061(%rbx), %cl
	andb	27896(%rbx), %cl
	movb	19070(%rbx), %al
	andb	27897(%rbx), %al
	orb	%cl, %al
	jmp	.LBB0_961
.LBB0_960:                              # %cond.false9998
	movb	27830(%rbx), %al
.LBB0_961:                              # %cond.end10000
	movb	%al, 27830(%rbx)
	cmpb	$0, 27895(%rbx)
	je	.LBB0_963
# %bb.962:                              # %cond.true10006
	movb	19061(%rbx), %cl
	andb	27893(%rbx), %cl
	movb	19070(%rbx), %al
	andb	27894(%rbx), %al
	orb	%cl, %al
	jmp	.LBB0_964
.LBB0_963:                              # %cond.false10016
	movb	27825(%rbx), %al
.LBB0_964:                              # %cond.end10018
	movb	%al, 27825(%rbx)
	cmpb	$0, 27892(%rbx)
	je	.LBB0_966
# %bb.965:                              # %cond.true10024
	movb	19061(%rbx), %cl
	andb	27890(%rbx), %cl
	movb	19070(%rbx), %al
	andb	27891(%rbx), %al
	orb	%cl, %al
	jmp	.LBB0_967
.LBB0_966:                              # %cond.false10034
	movb	27820(%rbx), %al
.LBB0_967:                              # %cond.end10036
	movb	%al, 27820(%rbx)
	cmpb	$0, 27889(%rbx)
	je	.LBB0_969
# %bb.968:                              # %cond.true10042
	movb	19061(%rbx), %cl
	andb	27887(%rbx), %cl
	movb	19070(%rbx), %al
	andb	27888(%rbx), %al
	orb	%cl, %al
	jmp	.LBB0_970
.LBB0_969:                              # %cond.false10052
	movb	27815(%rbx), %al
.LBB0_970:                              # %cond.end10054
	movb	%al, 27815(%rbx)
	cmpb	$0, 27883(%rbx)
	je	.LBB0_972
# %bb.971:                              # %cond.true10060
	movb	19061(%rbx), %cl
	andb	27881(%rbx), %cl
	movb	19070(%rbx), %al
	andb	27882(%rbx), %al
	orb	%cl, %al
	jmp	.LBB0_973
.LBB0_972:                              # %cond.false10070
	movb	27805(%rbx), %al
.LBB0_973:                              # %cond.end10072
	movb	%al, 27805(%rbx)
	cmpb	$0, 27880(%rbx)
	je	.LBB0_975
# %bb.974:                              # %cond.true10078
	movb	19061(%rbx), %cl
	andb	27878(%rbx), %cl
	movb	19070(%rbx), %al
	andb	27879(%rbx), %al
	orb	%cl, %al
	jmp	.LBB0_976
.LBB0_975:                              # %cond.false10088
	movb	27800(%rbx), %al
.LBB0_976:                              # %cond.end10090
	movb	%al, 27800(%rbx)
	cmpb	$0, 27868(%rbx)
	je	.LBB0_978
# %bb.977:                              # %cond.true10096
	movb	19061(%rbx), %cl
	andb	27866(%rbx), %cl
	movb	19070(%rbx), %al
	andb	27867(%rbx), %al
	orb	%cl, %al
	jmp	.LBB0_979
.LBB0_978:                              # %cond.false10106
	movb	27780(%rbx), %al
.LBB0_979:                              # %cond.end10108
	movb	%al, 27780(%rbx)
	cmpb	$0, 27862(%rbx)
	je	.LBB0_981
# %bb.980:                              # %cond.true10114
	movb	19061(%rbx), %cl
	andb	27860(%rbx), %cl
	movb	19070(%rbx), %al
	andb	27861(%rbx), %al
	orb	%cl, %al
	jmp	.LBB0_982
.LBB0_981:                              # %cond.false10124
	movb	27770(%rbx), %al
.LBB0_982:                              # %cond.end10126
	movb	%al, 27770(%rbx)
	cmpb	$0, 27874(%rbx)
	je	.LBB0_984
# %bb.983:                              # %cond.true10132
	movb	19061(%rbx), %cl
	andb	27872(%rbx), %cl
	movb	19070(%rbx), %al
	andb	27873(%rbx), %al
	orb	%cl, %al
	jmp	.LBB0_985
.LBB0_984:                              # %cond.false10142
	movb	27790(%rbx), %al
.LBB0_985:                              # %cond.end10144
	movb	%al, 27790(%rbx)
	cmpb	$0, 27871(%rbx)
	je	.LBB0_987
# %bb.986:                              # %cond.true10150
	movb	19061(%rbx), %cl
	andb	27869(%rbx), %cl
	movb	19070(%rbx), %al
	andb	27870(%rbx), %al
	orb	%cl, %al
	jmp	.LBB0_988
.LBB0_987:                              # %cond.false10160
	movb	27785(%rbx), %al
.LBB0_988:                              # %cond.end10162
	movb	%al, 27785(%rbx)
	cmpb	$0, 27877(%rbx)
	je	.LBB0_990
# %bb.989:                              # %cond.true10168
	movb	19061(%rbx), %cl
	andb	27875(%rbx), %cl
	movb	19070(%rbx), %al
	andb	27876(%rbx), %al
	orb	%cl, %al
	jmp	.LBB0_991
.LBB0_990:                              # %cond.false10178
	movb	27795(%rbx), %al
.LBB0_991:                              # %cond.end10180
	movb	%al, 27795(%rbx)
	cmpb	$0, 27865(%rbx)
	je	.LBB0_993
# %bb.992:                              # %cond.true10186
	movb	19061(%rbx), %cl
	andb	27863(%rbx), %cl
	movb	19070(%rbx), %al
	andb	27864(%rbx), %al
	orb	%cl, %al
	jmp	.LBB0_994
.LBB0_993:                              # %cond.false10196
	movb	27775(%rbx), %al
.LBB0_994:                              # %cond.end10198
	movb	%al, 27775(%rbx)
	cmpb	$0, 27886(%rbx)
	je	.LBB0_996
# %bb.995:                              # %cond.true10204
	movb	19061(%rbx), %cl
	andb	27884(%rbx), %cl
	movb	19070(%rbx), %al
	andb	27885(%rbx), %al
	orb	%cl, %al
	jmp	.LBB0_997
.LBB0_996:                              # %cond.false10214
	movb	27810(%rbx), %al
.LBB0_997:                              # %cond.end10216
	movb	%al, 27810(%rbx)
	movb	555(%rbx), %al
	orb	572(%rbx), %al
	testb	$1, %al
	jne	.LBB0_999
# %bb.998:                              # %if.then10271
	movzbl	552(%rbx), %eax
	movb	273386(%rbx,%rax), %cl
	movb	%cl, 1491407(%rbx)
	movb	$1, 1491408(%rbx)
	movb	567(%rbx), %cl
	movb	%cl, 1491406(%rbx)
	movb	273384(%rbx,%rax), %dl
	movb	%dl, 1491404(%rbx)
	movb	$1, 1491405(%rbx)
	movb	%cl, 1491403(%rbx)
	movb	273388(%rbx,%rax), %dl
	movb	%dl, 1491400(%rbx)
	movb	$1, 1491401(%rbx)
	movb	%cl, 1491399(%rbx)
	movq	273392(%rbx,%rax,8), %rax
	movq	%rax, 1503552(%rbx)
	movb	$1, 1491398(%rbx)
	movb	567(%rbx), %al
	movb	%al, 1491397(%rbx)
.LBB0_999:                              # %if.end10276
	movb	70699(%rbx), %al
	andb	70698(%rbx), %al
	je	.LBB0_1004
# %bb.1000:                             # %if.then10281
	movb	$1, 1497551(%rbx)
	testb	$1, 70695(%rbx)
	jne	.LBB0_1002
# %bb.1001:
	xorl	%ecx, %ecx
	jmp	.LBB0_1003
.LBB0_1002:                             # %cond.true10285
	movb	70696(%rbx), %cl
.LBB0_1003:                             # %cond.end10288
	movb	%cl, 1497550(%rbx)
.LBB0_1004:                             # %if.end10291
	cmpb	$0, 5406(%rbx)
	je	.LBB0_1006
# %bb.1005:                             # %cond.true10293
	movb	68296(%rbx), %cl
	andb	$6, %cl
	cmpb	$4, %cl
	sete	%cl
	jmp	.LBB0_1007
.LBB0_1006:                             # %cond.false10299
	movb	5455(%rbx), %cl
.LBB0_1007:                             # %cond.end10301
	movb	%cl, 5455(%rbx)
	movb	1540(%rbx), %cl
	orb	1583(%rbx), %cl
	testb	$1, %cl
	jne	.LBB0_1009
# %bb.1008:                             # %if.then10312
	movzbl	1537(%rbx), %ecx
	movb	277436(%rbx,%rcx), %cl
	movb	%cl, 1492633(%rbx)
	movb	$1, 1492634(%rbx)
	movb	1578(%rbx), %cl
	movb	%cl, 1492632(%rbx)
.LBB0_1009:                             # %if.end10316
	testb	%r11b, %r11b
	je	.LBB0_1011
# %bb.1010:
	xorl	%ecx, %ecx
	jmp	.LBB0_1014
.LBB0_1011:                             # %if.else10320
	cmpb	$0, 70906(%rbx)
	je	.LBB0_1013
# %bb.1012:                             # %cond.true10322
	movb	70900(%rbx), %cl
	notb	%cl
	andb	$1, %cl
	jmp	.LBB0_1014
.LBB0_1013:                             # %cond.false10326
	movb	1497762(%rbx), %cl
.LBB0_1014:                             # %if.end10333
	movb	%cl, 1497762(%rbx)
	testb	%al, %al
	je	.LBB0_1025
# %bb.1015:                             # %if.then10340
	movb	68361(%rbx), %al
	movb	%al, 1497553(%rbx)
	movb	$1, 1497554(%rbx)
	testb	$1, 70695(%rbx)
	jne	.LBB0_1017
# %bb.1016:
	xorl	%eax, %eax
	jmp	.LBB0_1018
.LBB0_1017:                             # %cond.true10345
	movb	70696(%rbx), %al
.LBB0_1018:                             # %if.then10359
	movb	%al, 1497552(%rbx)
	movb	70839(%rbx), %al
	movb	%al, 1497559(%rbx)
	movb	$1, 1497560(%rbx)
	testb	$1, 70695(%rbx)
	jne	.LBB0_1020
# %bb.1019:
	xorl	%eax, %eax
	jmp	.LBB0_1021
.LBB0_1020:                             # %cond.true10364
	movb	70696(%rbx), %al
.LBB0_1021:                             # %if.then10378
	movb	%al, 1497558(%rbx)
	movb	70841(%rbx), %al
	movb	%al, 1497541(%rbx)
	movb	$1, 1497542(%rbx)
	testb	$1, 70695(%rbx)
	jne	.LBB0_1023
# %bb.1022:
	xorl	%eax, %eax
	jmp	.LBB0_1024
.LBB0_1023:                             # %cond.true10383
	movb	70696(%rbx), %al
.LBB0_1024:                             # %cond.end10387
	movb	%al, 1497540(%rbx)
.LBB0_1025:                             # %if.end10390
	movb	855(%rbx), %al
	notb	%al
	testb	%al, 735(%rbx)
	je	.LBB0_1027
# %bb.1026:                             # %if.then10406
	movb	1371(%rbx), %al
	movb	1372(%rbx), %cl
	movb	%al, 1491641(%rbx)
	movb	$1, 1491642(%rbx)
	movb	%cl, 1491639(%rbx)
	movb	$1, 1491640(%rbx)
.LBB0_1027:                             # %if.end10408
	movb	858(%rbx), %al
	notb	%al
	testb	%al, 736(%rbx)
	je	.LBB0_1029
# %bb.1028:                             # %if.then10424
	movb	1371(%rbx), %al
	movb	1372(%rbx), %cl
	movb	%al, 1491645(%rbx)
	movb	$1, 1491646(%rbx)
	movb	%cl, 1491643(%rbx)
	movb	$1, 1491644(%rbx)
.LBB0_1029:                             # %if.end10426
	movb	861(%rbx), %al
	notb	%al
	testb	%al, 737(%rbx)
	je	.LBB0_1031
# %bb.1030:                             # %if.then10442
	movb	1371(%rbx), %al
	movb	1372(%rbx), %cl
	movb	%al, 1491649(%rbx)
	movb	$1, 1491650(%rbx)
	movb	%cl, 1491647(%rbx)
	movb	$1, 1491648(%rbx)
.LBB0_1031:                             # %if.end10444
	movb	864(%rbx), %al
	notb	%al
	testb	%al, 738(%rbx)
	je	.LBB0_1033
# %bb.1032:                             # %if.then10460
	movb	1371(%rbx), %al
	movb	1372(%rbx), %cl
	movb	%al, 1491653(%rbx)
	movb	$1, 1491654(%rbx)
	movb	%cl, 1491651(%rbx)
	movb	$1, 1491652(%rbx)
.LBB0_1033:                             # %if.end10462
	testb	%r8b, %r8b
	je	.LBB0_1035
# %bb.1034:                             # %if.then10491
	movb	$0, 1730(%rbx)
	xorl	%eax, %eax
	jmp	.LBB0_1041
.LBB0_1035:                             # %if.else10466
	movzbl	1769(%rbx), %eax
	movzbl	1732(%rbx), %ecx
	xorl	$255, %eax
	andl	%ecx, %eax
	movzbl	1708(%rbx), %ecx
	notl	%ecx
	testl	%ecx, %eax
	je	.LBB0_1037
# %bb.1036:                             # %cond.true10477
	movb	1703(%rbx), %al
	notb	%al
	andb	$1, %al
	jmp	.LBB0_1038
.LBB0_1037:                             # %cond.false10481
	movb	1730(%rbx), %al
.LBB0_1038:                             # %if.else10492
	movb	%al, 1730(%rbx)
	cmpb	$0, 1683(%rbx)
	je	.LBB0_1040
# %bb.1039:                             # %cond.true10495
	movb	1677(%rbx), %al
	notb	%al
	andb	$1, %al
	jmp	.LBB0_1041
.LBB0_1040:                             # %cond.false10500
	movb	1492730(%rbx), %al
.LBB0_1041:                             # %if.end10507
	movb	%al, 1492730(%rbx)
	movb	1768(%rbx), %al
	orb	1785(%rbx), %al
	testb	$1, %al
	jne	.LBB0_1043
# %bb.1042:                             # %if.then10559
	movzbl	1765(%rbx), %eax
	movb	277890(%rbx,%rax), %cl
	movb	%cl, 1492847(%rbx)
	movb	$1, 1492848(%rbx)
	movb	1780(%rbx), %cl
	movb	%cl, 1492846(%rbx)
	movb	277888(%rbx,%rax), %dl
	movb	%dl, 1492844(%rbx)
	movb	$1, 1492845(%rbx)
	movb	%cl, 1492843(%rbx)
	movb	277892(%rbx,%rax), %dl
	movb	%dl, 1492840(%rbx)
	movb	$1, 1492841(%rbx)
	movb	%cl, 1492839(%rbx)
	movq	277896(%rbx,%rax,8), %rax
	movq	%rax, 1503760(%rbx)
	movb	$1, 1492838(%rbx)
	movb	1780(%rbx), %al
	movb	%al, 1492837(%rbx)
.LBB0_1043:                             # %if.end10564
	testb	%r8b, %r8b
	je	.LBB0_1045
# %bb.1044:                             # %if.then10622
	movb	$0, 1493111(%rbx)
	movb	$0, 1493107(%rbx)
	movb	$0, 1493095(%rbx)
	xorl	%eax, %eax
	jmp	.LBB0_1057
.LBB0_1045:                             # %if.else10568
	cmpb	$0, 2200(%rbx)
	je	.LBB0_1047
# %bb.1046:                             # %cond.true10571
	movb	2194(%rbx), %al
	notb	%al
	andb	$1, %al
	jmp	.LBB0_1048
.LBB0_1047:                             # %cond.false10575
	movb	1493111(%rbx), %al
.LBB0_1048:                             # %if.else10586
	movb	%al, 1493111(%rbx)
	cmpb	$0, 2201(%rbx)
	je	.LBB0_1050
# %bb.1049:                             # %cond.true10589
	movb	2195(%rbx), %al
	notb	%al
	andb	$1, %al
	jmp	.LBB0_1051
.LBB0_1050:                             # %cond.false10594
	movb	1493107(%rbx), %al
.LBB0_1051:                             # %if.else10605
	movb	%al, 1493107(%rbx)
	cmpb	$0, 2192(%rbx)
	je	.LBB0_1053
# %bb.1052:                             # %cond.true10608
	movb	2186(%rbx), %al
	notb	%al
	andb	$1, %al
	jmp	.LBB0_1054
.LBB0_1053:                             # %cond.false10612
	movb	1493095(%rbx), %al
.LBB0_1054:                             # %if.else10623
	movb	%al, 1493095(%rbx)
	cmpb	$0, 2193(%rbx)
	je	.LBB0_1056
# %bb.1055:                             # %cond.true10626
	movb	2187(%rbx), %al
	notb	%al
	andb	$1, %al
	jmp	.LBB0_1057
.LBB0_1056:                             # %cond.false10631
	movb	1493091(%rbx), %al
.LBB0_1057:                             # %if.end10638
	movb	%al, 1493091(%rbx)
	testb	%r13b, %r13b
	je	.LBB0_1059
# %bb.1058:                             # %if.then10660
	movb	$0, 1497095(%rbx)
	xorl	%eax, %eax
	jmp	.LBB0_1065
.LBB0_1059:                             # %if.else10642
	cmpb	$0, 68156(%rbx)
	je	.LBB0_1061
# %bb.1060:                             # %cond.true10645
	movb	68150(%rbx), %al
	notb	%al
	andb	$1, %al
	jmp	.LBB0_1062
.LBB0_1061:                             # %cond.false10650
	movb	1497095(%rbx), %al
.LBB0_1062:                             # %if.else10661
	movb	%al, 1497095(%rbx)
	cmpb	$0, 68193(%rbx)
	je	.LBB0_1064
# %bb.1063:                             # %cond.true10664
	movb	68187(%rbx), %al
	notb	%al
	andb	$1, %al
	jmp	.LBB0_1065
.LBB0_1064:                             # %cond.false10669
	movb	1497143(%rbx), %al
.LBB0_1065:                             # %if.end10676
	movb	%al, 1497143(%rbx)
	testb	%r8b, %r8b
	je	.LBB0_1067
# %bb.1066:
	xorl	%eax, %eax
	jmp	.LBB0_1069
.LBB0_1067:                             # %if.else10680
	movb	625(%rbx), %al
	cmpb	626(%rbx), %al
	jne	.LBB0_1069
# %bb.1068:                             # %cond.false10686
	movb	621(%rbx), %al
.LBB0_1069:                             # %if.end10691
	movb	%al, 621(%rbx)
	movzbl	615(%rbx), %eax
	xorl	$1, %eax
	xorl	%ecx, %ecx
	cmpb	$3, 71105(%rbx)
	sete	%cl
	testl	%eax, %ecx
	je	.LBB0_1071
# %bb.1070:                             # %if.then10701
	movzwl	77190(%rbx), %eax
	movw	%ax, 1497842(%rbx)
	movb	$1, 1491458(%rbx)
	movb	610(%rbx), %al
	movb	%al, 1491457(%rbx)
.LBB0_1071:                             # %if.end10703
	testb	%r8b, %r8b
	je	.LBB0_1073
# %bb.1072:                             # %if.then10724
	movb	$0, 1491284(%rbx)
	xorl	%eax, %eax
	jmp	.LBB0_1079
.LBB0_1073:                             # %if.else10707
	cmpb	$0, 304(%rbx)
	je	.LBB0_1075
# %bb.1074:                             # %cond.true10710
	movb	298(%rbx), %al
	notb	%al
	andb	$1, %al
	jmp	.LBB0_1076
.LBB0_1075:                             # %cond.false10714
	movb	1491284(%rbx), %al
.LBB0_1076:                             # %if.else10725
	movb	%al, 1491284(%rbx)
	cmpb	$0, 305(%rbx)
	je	.LBB0_1078
# %bb.1077:                             # %cond.true10728
	movb	299(%rbx), %al
	notb	%al
	andb	$1, %al
	jmp	.LBB0_1079
.LBB0_1078:                             # %cond.false10732
	movb	1491281(%rbx), %al
.LBB0_1079:                             # %if.end10739
	movb	%al, 1491281(%rbx)
	movb	1647(%rbx), %al
	notb	%al
	testb	%al, 91(%rbx)
	je	.LBB0_1081
# %bb.1080:                             # %if.then10747
	movb	1642(%rbx), %al
	movb	1717(%rbx), %cl
	movb	%cl, 1492701(%rbx)
	movb	$1, 1492702(%rbx)
	movb	%al, 1492700(%rbx)
.LBB0_1081:                             # %if.end10749
	movb	1672(%rbx), %al
	notb	%al
	testb	%al, 92(%rbx)
	je	.LBB0_1083
# %bb.1082:                             # %if.then10757
	movb	1667(%rbx), %al
	movb	1717(%rbx), %cl
	movb	%cl, 1492726(%rbx)
	movb	$1, 1492727(%rbx)
	movb	%al, 1492725(%rbx)
.LBB0_1083:                             # %if.end10760
	testb	%r8b, %r8b
	je	.LBB0_1096
# %bb.1084:                             # %if.then10775
	movdqa	.LCPI0_1(%rip), %xmm0   # xmm0 = [796867801125948160,35777043401018120]
	movdqu	%xmm0, 232136(%rbx)
	testb	$1, 7(%rsp)             # 1-byte Folded Reload
	jne	.LBB0_1086
.LBB0_1085:                             # %if.then10795
	movzbl	68134(%rbx), %eax
	movb	453460(%rbx,%rax), %al
	movb	%al, 1497099(%rbx)
	movb	$1, 1497100(%rbx)
	movb	68150(%rbx), %al
	movb	%al, 1497098(%rbx)
.LBB0_1086:                             # %if.end10800
	testb	$1, %r10b
	jne	.LBB0_1087
# %bb.1089:                             # %if.then10810
	movzbl	68171(%rbx), %eax
	movb	453604(%rbx,%rax), %al
	movb	%al, 1497147(%rbx)
	movb	$1, 1497148(%rbx)
	movb	68187(%rbx), %al
	movb	%al, 1497146(%rbx)
	testb	%r8b, %r8b
	jne	.LBB0_1088
.LBB0_1090:                             # %if.else10819
	movb	1710(%rbx), %al
	cmpb	1711(%rbx), %al
	jne	.LBB0_1092
# %bb.1091:                             # %cond.false10825
	movb	1706(%rbx), %al
	jmp	.LBB0_1092
.LBB0_1087:                             # %if.end10815
	testb	%r8b, %r8b
	je	.LBB0_1090
.LBB0_1088:
	xorl	%eax, %eax
.LBB0_1092:                             # %if.end10830
	movb	%al, 1706(%rbx)
	movb	24552(%rbx), %r9b
	testb	%r9b, %r9b
	je	.LBB0_1097
# %bb.1093:                             # %cond.true10833
	cmpb	$0, 24550(%rbx)
	je	.LBB0_1098
# %bb.1094:                             # %cond.true10836
	movb	18971(%rbx), %al
	cmpb	$0, 24551(%rbx)
	je	.LBB0_1099
.LBB0_1095:                             # %cond.true10843
	movb	18994(%rbx), %cl
	jmp	.LBB0_1100
.LBB0_1096:                             # %if.else10776
	cmpb	$0, 3691(%rbx)
	movl	$232136, %eax           # imm = 0x38AC8
	movl	$232296, %ecx           # imm = 0x38B68
	cmovneq	%rcx, %rax
	movq	(%rbx,%rax), %rax
	movq	%rax, 232136(%rbx)
	cmpb	$0, 3716(%rbx)
	movl	$232144, %eax           # imm = 0x38AD0
	cmovneq	%rcx, %rax
	movq	(%rbx,%rax), %rax
	movq	%rax, 232144(%rbx)
	testb	$1, 7(%rsp)             # 1-byte Folded Reload
	je	.LBB0_1085
	jmp	.LBB0_1086
.LBB0_1097:                             # %cond.false10849
	movb	24479(%rbx), %cl
	jmp	.LBB0_1101
.LBB0_1098:
	xorl	%eax, %eax
	cmpb	$0, 24551(%rbx)
	jne	.LBB0_1095
.LBB0_1099:
	xorl	%ecx, %ecx
.LBB0_1100:                             # %cond.end10851
	orb	%al, %cl
.LBB0_1101:                             # %cond.end10851
	movb	%cl, 24479(%rbx)
	movb	24549(%rbx), %r10b
	testb	%r10b, %r10b
	je	.LBB0_1105
# %bb.1102:                             # %cond.true10857
	cmpb	$0, 24547(%rbx)
	je	.LBB0_1106
# %bb.1103:                             # %cond.true10860
	movb	18971(%rbx), %al
	cmpb	$0, 24548(%rbx)
	je	.LBB0_1107
.LBB0_1104:                             # %cond.true10868
	movb	18994(%rbx), %cl
	jmp	.LBB0_1108
.LBB0_1105:                             # %cond.false10875
	movb	24462(%rbx), %cl
	jmp	.LBB0_1109
.LBB0_1106:
	xorl	%eax, %eax
	cmpb	$0, 24548(%rbx)
	jne	.LBB0_1104
.LBB0_1107:
	xorl	%ecx, %ecx
.LBB0_1108:                             # %cond.end10877
	orb	%al, %cl
.LBB0_1109:                             # %cond.end10877
	movb	%cl, 24462(%rbx)
	movb	24546(%rbx), %r11b
	testb	%r11b, %r11b
	je	.LBB0_1113
# %bb.1110:                             # %cond.true10883
	cmpb	$0, 24544(%rbx)
	je	.LBB0_1114
# %bb.1111:                             # %cond.true10886
	movb	18971(%rbx), %al
	cmpb	$0, 24545(%rbx)
	je	.LBB0_1115
.LBB0_1112:                             # %cond.true10894
	movb	18994(%rbx), %cl
	jmp	.LBB0_1116
.LBB0_1113:                             # %cond.false10901
	movb	24445(%rbx), %cl
	jmp	.LBB0_1117
.LBB0_1114:
	xorl	%eax, %eax
	cmpb	$0, 24545(%rbx)
	jne	.LBB0_1112
.LBB0_1115:
	xorl	%ecx, %ecx
.LBB0_1116:                             # %cond.end10903
	orb	%al, %cl
.LBB0_1117:                             # %cond.end10903
	movb	%cl, 24445(%rbx)
	movb	%r15b, 13148(%rbx)
	movb	%r15b, 13478(%rbx)
	movb	%r15b, 13808(%rbx)
	movb	%r15b, 14138(%rbx)
	movb	13104(%rbx), %al
	andb	%r15b, %al
	movb	%al, 13138(%rbx)
	movb	13434(%rbx), %al
	andb	%r15b, %al
	movb	%al, 13468(%rbx)
	testb	%r15b, %r15b
	je	.LBB0_1119
# %bb.1118:                             # %cond.true10923
	movb	234640(%rbx), %al
	jmp	.LBB0_1120
.LBB0_1119:                             # %cond.false10926
	movb	13479(%rbx), %al
.LBB0_1120:                             # %cond.end10928
	movb	%al, 13479(%rbx)
	movb	13764(%rbx), %al
	andb	%r15b, %al
	movb	%al, 13798(%rbx)
	testb	%r15b, %r15b
	je	.LBB0_1122
# %bb.1121:                             # %cond.true10939
	movb	234768(%rbx), %al
	jmp	.LBB0_1123
.LBB0_1122:                             # %cond.false10942
	movb	13809(%rbx), %al
.LBB0_1123:                             # %cond.end10944
	movb	14094(%rbx), %cl
	andb	%r15b, %cl
	movb	%al, 13809(%rbx)
	movb	%cl, 14128(%rbx)
	testb	%r15b, %r15b
	je	.LBB0_1125
# %bb.1124:                             # %cond.true10955
	movb	234896(%rbx), %al
	jmp	.LBB0_1126
.LBB0_1125:                             # %cond.false10958
	movb	14139(%rbx), %al
.LBB0_1126:                             # %cond.end10960
	movb	%al, 14139(%rbx)
	cmpb	$0, 9773(%rbx)
	je	.LBB0_1128
# %bb.1127:                             # %cond.end10970
	movb	9774(%rbx), %al
	movb	%al, 8806(%rbx)
.LBB0_1128:                             # %if.end10973
	cmpb	$0, 9771(%rbx)
	je	.LBB0_1130
# %bb.1129:                             # %cond.end10980
	movb	9772(%rbx), %al
	movb	%al, 8805(%rbx)
.LBB0_1130:                             # %if.end10983
	cmpb	$0, 9769(%rbx)
	je	.LBB0_1132
# %bb.1131:                             # %cond.end10990
	movb	9770(%rbx), %al
	movb	%al, 8804(%rbx)
.LBB0_1132:                             # %if.end10993
	cmpb	$0, 9767(%rbx)
	je	.LBB0_1134
# %bb.1133:                             # %cond.end11000
	movb	9768(%rbx), %al
	movb	%al, 8803(%rbx)
.LBB0_1134:                             # %if.end11003
	cmpb	$0, 9765(%rbx)
	je	.LBB0_1136
# %bb.1135:                             # %cond.end11010
	movb	9766(%rbx), %al
	movb	%al, 8802(%rbx)
.LBB0_1136:                             # %if.end11013
	cmpb	$0, 9763(%rbx)
	je	.LBB0_1138
# %bb.1137:                             # %cond.end11020
	movb	9764(%rbx), %al
	movb	%al, 8801(%rbx)
.LBB0_1138:                             # %if.end11023
	cmpb	$0, 9761(%rbx)
	je	.LBB0_1140
# %bb.1139:                             # %cond.end11030
	movb	9762(%rbx), %al
	movb	%al, 8800(%rbx)
.LBB0_1140:                             # %if.end11033
	cmpb	$0, 9759(%rbx)
	je	.LBB0_1142
# %bb.1141:                             # %cond.end11040
	movb	9760(%rbx), %al
	movb	%al, 8799(%rbx)
.LBB0_1142:                             # %if.end11043
	cmpb	$0, 9757(%rbx)
	je	.LBB0_1144
# %bb.1143:                             # %cond.end11050
	movb	9758(%rbx), %al
	movb	%al, 8798(%rbx)
.LBB0_1144:                             # %if.end11053
	cmpb	$0, 9755(%rbx)
	je	.LBB0_1146
# %bb.1145:                             # %cond.end11060
	movb	9756(%rbx), %al
	movb	%al, 8797(%rbx)
.LBB0_1146:                             # %if.end11063
	cmpb	$0, 9753(%rbx)
	je	.LBB0_1148
# %bb.1147:                             # %cond.end11070
	movb	9754(%rbx), %al
	movb	%al, 8796(%rbx)
.LBB0_1148:                             # %if.end11073
	cmpb	$0, 9751(%rbx)
	je	.LBB0_1150
# %bb.1149:                             # %cond.end11080
	movb	9752(%rbx), %al
	movb	%al, 8795(%rbx)
.LBB0_1150:                             # %if.end11083
	cmpb	$0, 9749(%rbx)
	je	.LBB0_1152
# %bb.1151:                             # %cond.end11090
	movb	9750(%rbx), %al
	movb	%al, 8794(%rbx)
.LBB0_1152:                             # %if.end11093
	testb	%r8b, %r8b
	je	.LBB0_1154
# %bb.1153:
	xorl	%eax, %eax
	jmp	.LBB0_1156
.LBB0_1154:                             # %if.else11097
	movb	3765(%rbx), %al
	cmpb	3766(%rbx), %al
	jne	.LBB0_1156
# %bb.1155:                             # %cond.false11103
	movb	3761(%rbx), %al
.LBB0_1156:                             # %if.end11108
	movb	%al, 3761(%rbx)
	testb	%r15b, %r15b
	je	.LBB0_1158
# %bb.1157:                             # %cond.true11111
	movb	5904(%rbx), %al
	addb	%al, %al
	xorb	234320(%rbx), %al
	jmp	.LBB0_1159
.LBB0_1158:                             # %cond.false11116
	movb	10897(%rbx), %al
.LBB0_1159:                             # %cond.end11118
	movb	%al, 10897(%rbx)
	movb	60288(%rbx), %r12b
	testb	%r12b, %r12b
	je	.LBB0_1193
# %bb.1160:                             # %if.then11123
	movb	46888(%rbx), %cl
	testb	%cl, %cl
	je	.LBB0_1164
# %bb.1161:                             # %if.then11123
	cmpb	$3, %cl
	je	.LBB0_1165
# %bb.1162:                             # %if.then11123
	cmpb	$1, %cl
	jne	.LBB0_1166
# %bb.1163:                             # %if.then11247.thread
	movb	60397(%rbx), %dl
	movl	%edx, %eax
	shrb	$5, %al
	andb	$1, %al
	movb	%al, 60344(%rbx)
	shrb	%dl
	andb	$1, %dl
	movb	$1, %al
	xorl	%ebp, %ebp
	jmp	.LBB0_1168
.LBB0_1164:                             # %cond.true11304
	movb	60397(%rbx), %al
	movl	%eax, %edx
	andb	$1, %dl
	movb	%dl, 60334(%rbx)
	movl	%eax, %edx
	shrb	$3, %dl
	andb	$1, %dl
	movb	%dl, 60331(%rbx)
	movl	%eax, %edx
	shrb	$6, %dl
	andb	$1, %dl
	movb	%dl, 60328(%rbx)
	shrb	$2, %al
	andb	$1, %al
	movb	%al, 60332(%rbx)
	movb	$1, %bpl
	jmp	.LBB0_1167
.LBB0_1165:                             # %if.then11264
	movb	60397(%rbx), %al
	movl	%eax, %edx
	andb	$1, %dl
	movb	%dl, 60379(%rbx)
	movl	%eax, %edx
	shrb	%dl
	andb	$1, %dl
	movb	%dl, 60378(%rbx)
	movl	%eax, %edx
	shrb	$2, %dl
	andb	$1, %dl
	movb	%dl, 60377(%rbx)
	movl	%eax, %edx
	shrb	$3, %dl
	andb	$1, %dl
	movb	%dl, 60376(%rbx)
	movl	%eax, %edx
	shrb	$5, %dl
	andb	$1, %dl
	movb	%dl, 60374(%rbx)
	shrb	$6, %al
	andb	$1, %al
	movb	%al, 60373(%rbx)
.LBB0_1166:
	xorl	%ebp, %ebp
.LBB0_1167:                             # %cond.false11327
	movb	60348(%rbx), %dl
	xorl	%eax, %eax
.LBB0_1168:                             # %if.then11336
	movb	%dl, 60348(%rbx)
	cmpb	$2, %cl
	jne	.LBB0_1170
# %bb.1169:                             # %cond.true11340
	movb	60397(%rbx), %dl
	shrb	%dl
	andb	$1, %dl
	jmp	.LBB0_1171
.LBB0_1170:                             # %cond.false11345
	movb	60363(%rbx), %dl
.LBB0_1171:                             # %if.then11354
	movb	%dl, 60363(%rbx)
	testb	%bpl, %bpl
	je	.LBB0_1173
# %bb.1172:                             # %cond.true11358
	movb	60397(%rbx), %dl
	shrb	%dl
	andb	$1, %dl
	jmp	.LBB0_1174
.LBB0_1173:                             # %cond.false11363
	movb	60333(%rbx), %dl
.LBB0_1174:                             # %if.then11372
	movb	%dl, 60333(%rbx)
	cmpb	$2, %cl
	jne	.LBB0_1176
# %bb.1175:                             # %cond.true11376
	movb	60397(%rbx), %dl
	shrb	$3, %dl
	andb	$1, %dl
	jmp	.LBB0_1177
.LBB0_1176:                             # %cond.false11381
	movb	60361(%rbx), %dl
.LBB0_1177:                             # %if.then11390
	movb	%dl, 60361(%rbx)
	testb	%al, %al
	je	.LBB0_1179
# %bb.1178:                             # %cond.true11394
	movb	60397(%rbx), %dl
	shrb	$6, %dl
	andb	$1, %dl
	jmp	.LBB0_1180
.LBB0_1179:                             # %cond.false11399
	movb	60343(%rbx), %dl
.LBB0_1180:                             # %if.then11408
	movb	%dl, 60343(%rbx)
	testb	%bpl, %bpl
	je	.LBB0_1182
# %bb.1181:                             # %cond.true11412
	movb	60397(%rbx), %dl
	shrb	$5, %dl
	andb	$1, %dl
	jmp	.LBB0_1183
.LBB0_1182:                             # %cond.false11417
	movb	60329(%rbx), %dl
.LBB0_1183:                             # %if.then11426
	movb	%dl, 60329(%rbx)
	cmpb	$2, %cl
	jne	.LBB0_1185
# %bb.1184:                             # %cond.true11430
	movb	60397(%rbx), %dl
	shrb	$2, %dl
	andb	$1, %dl
	jmp	.LBB0_1186
.LBB0_1185:                             # %cond.false11435
	movb	60362(%rbx), %dl
.LBB0_1186:                             # %if.then11444
	movb	%dl, 60362(%rbx)
	testb	%al, %al
	je	.LBB0_1188
# %bb.1187:                             # %cond.true11484
	movb	60397(%rbx), %al
	movl	%eax, %edx
	shrb	$3, %dl
	andb	$1, %dl
	movb	%dl, 60346(%rbx)
	movl	%eax, %edx
	shrb	$2, %dl
	andb	$1, %dl
	movb	%dl, 60347(%rbx)
	andb	$1, %al
	jmp	.LBB0_1189
.LBB0_1188:                             # %cond.false11488
	movb	60349(%rbx), %al
.LBB0_1189:                             # %if.then11497
	movb	%al, 60349(%rbx)
	cmpb	$2, %cl
	jne	.LBB0_1191
# %bb.1190:                             # %cond.true11537
	movb	60397(%rbx), %al
	movl	%eax, %ecx
	shrb	$6, %cl
	andb	$1, %cl
	movb	%cl, 60358(%rbx)
	movl	%eax, %ecx
	shrb	$5, %cl
	andb	$1, %cl
	movb	%cl, 60359(%rbx)
	andb	$1, %al
	jmp	.LBB0_1192
.LBB0_1191:                             # %cond.false11541
	movb	60364(%rbx), %al
.LBB0_1192:                             # %cond.end11543
	movb	%al, 60364(%rbx)
.LBB0_1193:                             # %if.end11547
	movb	60408(%rbx), %r14b
	testb	%r14b, %r14b
	je	.LBB0_1227
# %bb.1194:                             # %if.then11549
	movb	46888(%rbx), %al
	testb	%al, %al
	je	.LBB0_1198
# %bb.1195:                             # %if.then11549
	cmpb	$3, %al
	je	.LBB0_1199
# %bb.1196:                             # %if.then11549
	cmpb	$1, %al
	jne	.LBB0_1200
# %bb.1197:                             # %if.then11673.thread
	movb	60517(%rbx), %cl
	movl	%ecx, %edx
	shrb	$5, %dl
	andb	$1, %dl
	movb	%dl, 60464(%rbx)
	shrb	%cl
	andb	$1, %cl
	movb	$1, %bpl
	xorl	%edi, %edi
	jmp	.LBB0_1202
.LBB0_1198:                             # %cond.true11730
	movb	60517(%rbx), %cl
	movl	%ecx, %edx
	andb	$1, %dl
	movb	%dl, 60454(%rbx)
	movl	%ecx, %edx
	shrb	$3, %dl
	andb	$1, %dl
	movb	%dl, 60451(%rbx)
	movl	%ecx, %edx
	shrb	$6, %dl
	andb	$1, %dl
	movb	%dl, 60448(%rbx)
	shrb	$2, %cl
	andb	$1, %cl
	movb	%cl, 60452(%rbx)
	movb	$1, %dil
	jmp	.LBB0_1201
.LBB0_1199:                             # %if.then11690
	movb	60517(%rbx), %cl
	movl	%ecx, %edx
	andb	$1, %dl
	movb	%dl, 60499(%rbx)
	movl	%ecx, %edx
	shrb	%dl
	andb	$1, %dl
	movb	%dl, 60498(%rbx)
	movl	%ecx, %edx
	shrb	$2, %dl
	andb	$1, %dl
	movb	%dl, 60497(%rbx)
	movl	%ecx, %edx
	shrb	$3, %dl
	andb	$1, %dl
	movb	%dl, 60496(%rbx)
	movl	%ecx, %edx
	shrb	$5, %dl
	andb	$1, %dl
	movb	%dl, 60494(%rbx)
	shrb	$6, %cl
	andb	$1, %cl
	movb	%cl, 60493(%rbx)
.LBB0_1200:
	xorl	%edi, %edi
.LBB0_1201:                             # %cond.false11753
	movb	60468(%rbx), %cl
	xorl	%ebp, %ebp
.LBB0_1202:                             # %if.then11762
	movb	%cl, 60468(%rbx)
	cmpb	$2, %al
	jne	.LBB0_1204
# %bb.1203:                             # %cond.true11766
	movb	60517(%rbx), %cl
	shrb	%cl
	andb	$1, %cl
	jmp	.LBB0_1205
.LBB0_1204:                             # %cond.false11771
	movb	60483(%rbx), %cl
.LBB0_1205:                             # %if.then11780
	movb	%cl, 60483(%rbx)
	testb	%dil, %dil
	je	.LBB0_1207
# %bb.1206:                             # %cond.true11784
	movb	60517(%rbx), %cl
	shrb	%cl
	andb	$1, %cl
	jmp	.LBB0_1208
.LBB0_1207:                             # %cond.false11789
	movb	60453(%rbx), %cl
.LBB0_1208:                             # %if.then11798
	movb	%cl, 60453(%rbx)
	cmpb	$2, %al
	jne	.LBB0_1210
# %bb.1209:                             # %cond.true11802
	movb	60517(%rbx), %cl
	shrb	$3, %cl
	andb	$1, %cl
	jmp	.LBB0_1211
.LBB0_1210:                             # %cond.false11807
	movb	60481(%rbx), %cl
.LBB0_1211:                             # %if.then11816
	movb	%cl, 60481(%rbx)
	testb	%bpl, %bpl
	je	.LBB0_1213
# %bb.1212:                             # %cond.true11820
	movb	60517(%rbx), %cl
	shrb	$6, %cl
	andb	$1, %cl
	jmp	.LBB0_1214
.LBB0_1213:                             # %cond.false11825
	movb	60463(%rbx), %cl
.LBB0_1214:                             # %if.then11834
	movb	%cl, 60463(%rbx)
	testb	%dil, %dil
	je	.LBB0_1216
# %bb.1215:                             # %cond.true11838
	movb	60517(%rbx), %cl
	shrb	$5, %cl
	andb	$1, %cl
	jmp	.LBB0_1217
.LBB0_1216:                             # %cond.false11843
	movb	60449(%rbx), %cl
.LBB0_1217:                             # %if.then11852
	movb	%cl, 60449(%rbx)
	cmpb	$2, %al
	jne	.LBB0_1219
# %bb.1218:                             # %cond.true11856
	movb	60517(%rbx), %cl
	shrb	$2, %cl
	andb	$1, %cl
	jmp	.LBB0_1220
.LBB0_1219:                             # %cond.false11861
	movb	60482(%rbx), %cl
.LBB0_1220:                             # %if.then11870
	movb	%cl, 60482(%rbx)
	testb	%bpl, %bpl
	je	.LBB0_1222
# %bb.1221:                             # %cond.true11910
	movb	60517(%rbx), %cl
	movl	%ecx, %edx
	shrb	$3, %dl
	andb	$1, %dl
	movb	%dl, 60466(%rbx)
	movl	%ecx, %edx
	shrb	$2, %dl
	andb	$1, %dl
	movb	%dl, 60467(%rbx)
	andb	$1, %cl
	jmp	.LBB0_1223
.LBB0_1222:                             # %cond.false11914
	movb	60469(%rbx), %cl
.LBB0_1223:                             # %if.then11923
	movb	%cl, 60469(%rbx)
	cmpb	$2, %al
	jne	.LBB0_1225
# %bb.1224:                             # %cond.true11963
	movb	60517(%rbx), %al
	movl	%eax, %ecx
	shrb	$6, %cl
	andb	$1, %cl
	movb	%cl, 60478(%rbx)
	movl	%eax, %ecx
	shrb	$5, %cl
	andb	$1, %cl
	movb	%cl, 60479(%rbx)
	andb	$1, %al
	jmp	.LBB0_1226
.LBB0_1225:                             # %cond.false11967
	movb	60484(%rbx), %al
.LBB0_1226:                             # %cond.end11969
	movb	%al, 60484(%rbx)
.LBB0_1227:                             # %if.end11973
	testb	%r12b, %r12b
	je	.LBB0_1229
# %bb.1228:                             # %if.then12065
	movb	46888(%rbx), %cl
	cmpb	$3, %cl
	movl	$46890, %eax            # imm = 0xB72A
	movl	$60384, %edx            # imm = 0xEBE0
	cmoveq	%rax, %rdx
	movb	(%rbx,%rdx), %dl
	movl	$46889, %esi            # imm = 0xB729
	movl	$60383, %edi            # imm = 0xEBDF
	cmoveq	%rsi, %rdi
	movb	%dl, 60384(%rbx)
	movb	(%rbx,%rdi), %dl
	movb	%dl, 60383(%rbx)
	cmpb	$2, %cl
	movl	$60368, %edx            # imm = 0xEBD0
	cmoveq	%rsi, %rdx
	movb	(%rbx,%rdx), %dl
	movb	%dl, 60368(%rbx)
	movl	$60369, %edx            # imm = 0xEBD1
	cmoveq	%rax, %rdx
	movb	(%rbx,%rdx), %dl
	movb	%dl, 60369(%rbx)
	testb	%cl, %cl
	movl	$60338, %edx            # imm = 0xEBB2
	cmoveq	%rsi, %rdx
	movb	(%rbx,%rdx), %dl
	movb	%dl, 60338(%rbx)
	movl	$60339, %edx            # imm = 0xEBB3
	cmoveq	%rax, %rdx
	movb	(%rbx,%rdx), %dl
	cmpb	$1, %cl
	movl	$60353, %ecx            # imm = 0xEBC1
	cmoveq	%rsi, %rcx
	movb	%dl, 60339(%rbx)
	movb	(%rbx,%rcx), %cl
	movb	%cl, 60353(%rbx)
	movl	$60354, %ecx            # imm = 0xEBC2
	cmoveq	%rax, %rcx
	movb	(%rbx,%rcx), %al
	movb	%al, 60354(%rbx)
.LBB0_1229:                             # %if.end12075
	testb	%r14b, %r14b
	je	.LBB0_1231
# %bb.1230:                             # %if.then12169
	movb	46888(%rbx), %cl
	cmpb	$3, %cl
	movl	$46890, %eax            # imm = 0xB72A
	movl	$60504, %edx            # imm = 0xEC58
	cmoveq	%rax, %rdx
	movb	(%rbx,%rdx), %dl
	movl	$46889, %esi            # imm = 0xB729
	movl	$60503, %edi            # imm = 0xEC57
	cmoveq	%rsi, %rdi
	movb	%dl, 60504(%rbx)
	movb	(%rbx,%rdi), %dl
	movb	%dl, 60503(%rbx)
	cmpb	$2, %cl
	movl	$60488, %edx            # imm = 0xEC48
	cmoveq	%rsi, %rdx
	movb	(%rbx,%rdx), %dl
	movb	%dl, 60488(%rbx)
	movl	$60489, %edx            # imm = 0xEC49
	cmoveq	%rax, %rdx
	movb	(%rbx,%rdx), %dl
	movb	%dl, 60489(%rbx)
	testb	%cl, %cl
	movl	$60458, %edx            # imm = 0xEC2A
	cmoveq	%rsi, %rdx
	movb	(%rbx,%rdx), %dl
	movb	%dl, 60458(%rbx)
	movl	$60459, %edx            # imm = 0xEC2B
	cmoveq	%rax, %rdx
	movb	(%rbx,%rdx), %dl
	cmpb	$1, %cl
	movl	$60473, %ecx            # imm = 0xEC39
	cmoveq	%rsi, %rcx
	movb	%dl, 60459(%rbx)
	movb	(%rbx,%rcx), %cl
	movb	%cl, 60473(%rbx)
	movl	$60474, %ecx            # imm = 0xEC3A
	cmoveq	%rax, %rcx
	movb	(%rbx,%rcx), %al
	movb	%al, 60474(%rbx)
.LBB0_1231:                             # %if.end12179
	testb	%r13b, %r13b
	je	.LBB0_1233
# %bb.1232:                             # %if.then12200
	movb	$0, 1497101(%rbx)
	xorl	%eax, %eax
	jmp	.LBB0_1239
.LBB0_1233:                             # %if.else12183
	cmpb	$0, 68157(%rbx)
	je	.LBB0_1235
# %bb.1234:                             # %cond.true12186
	movb	68151(%rbx), %al
	notb	%al
	andb	$1, %al
	jmp	.LBB0_1236
.LBB0_1235:                             # %cond.false12190
	movb	1497101(%rbx), %al
.LBB0_1236:                             # %if.else12201
	movb	%al, 1497101(%rbx)
	cmpb	$0, 68194(%rbx)
	je	.LBB0_1238
# %bb.1237:                             # %cond.true12204
	movb	68188(%rbx), %al
	notb	%al
	andb	$1, %al
	jmp	.LBB0_1239
.LBB0_1238:                             # %cond.false12208
	movb	1497149(%rbx), %al
.LBB0_1239:                             # %if.end12215
	movb	%al, 1497149(%rbx)
	movb	1558(%rbx), %al
	orb	1599(%rbx), %al
	testb	$1, %al
	jne	.LBB0_1241
# %bb.1240:                             # %if.then12252
	movzbl	1555(%rbx), %eax
	movq	277472(%rbx,%rax,8), %rcx
	movq	%rcx, 1503680(%rbx)
	movb	$1, 1492655(%rbx)
	movb	1594(%rbx), %cl
	movb	%cl, 1492654(%rbx)
	movb	277464(%rbx,%rax), %dl
	movb	%dl, 1492651(%rbx)
	movb	$1, 1492652(%rbx)
	movb	%cl, 1492650(%rbx)
	movb	277488(%rbx,%rax), %al
	movb	%al, 1492648(%rbx)
	movb	$1, 1492649(%rbx)
	movb	%cl, 1492647(%rbx)
.LBB0_1241:                             # %if.end12257
	movb	28575(%rbx), %r13b
	testb	%r13b, %r13b
	je	.LBB0_1243
# %bb.1242:                             # %cond.true12271
	movb	165492(%rbx), %al
	shrb	$3, %al
	andb	$1, %al
	movb	%al, 30905(%rbx)
	movl	165468(%rbx), %eax
	shrl	$5, %eax
	andl	$1, %eax
	jmp	.LBB0_1244
.LBB0_1243:                             # %cond.false12275
	movzbl	30904(%rbx), %eax
.LBB0_1244:                             # %cond.end12277
	movb	%al, 30904(%rbx)
	testb	%r8b, %r8b
	je	.LBB0_1246
# %bb.1245:
	xorl	%eax, %eax
	jmp	.LBB0_1249
.LBB0_1246:                             # %if.else12284
	cmpb	$0, 1684(%rbx)
	je	.LBB0_1248
# %bb.1247:                             # %cond.true12287
	movb	1678(%rbx), %al
	notb	%al
	andb	$1, %al
	jmp	.LBB0_1249
.LBB0_1248:                             # %cond.false12291
	movb	1492737(%rbx), %al
.LBB0_1249:                             # %if.end12298
	movb	%al, 1492737(%rbx)
	testb	%r12b, %r12b
	je	.LBB0_1251
# %bb.1250:                             # %if.then12441
	movb	46888(%rbx), %cl
	testb	%cl, %cl
	movl	$46891, %r12d           # imm = 0xB72B
	movl	$60337, %esi            # imm = 0xEBB1
	cmoveq	%r12, %rsi
	movl	$46892, %r8d            # imm = 0xB72C
	movl	$60336, %ebp            # imm = 0xEBB0
	cmoveq	%r8, %rbp
	movl	$46893, %r15d           # imm = 0xB72D
	movl	$60335, %eax            # imm = 0xEBAF
	cmoveq	%r15, %rax
	cmpb	$3, %cl
	movl	$60382, %edx            # imm = 0xEBDE
	cmoveq	%r12, %rdx
	movb	(%rbx,%rdx), %dl
	movb	%dl, 60382(%rbx)
	movb	(%rbx,%rsi), %dl
	movb	%dl, 60337(%rbx)
	movb	(%rbx,%rbp), %dl
	movb	%dl, 60336(%rbx)
	movb	(%rbx,%rax), %al
	movl	$60380, %edx            # imm = 0xEBDC
	cmoveq	%r15, %rdx
	movb	%al, 60335(%rbx)
	movl	$60381, %eax            # imm = 0xEBDD
	cmoveq	%r8, %rax
	cmpb	$1, %cl
	movl	$60350, %esi            # imm = 0xEBBE
	cmoveq	%r15, %rsi
	movl	$60351, %ebp            # imm = 0xEBBF
	cmoveq	%r8, %rbp
	movl	$60352, %edi            # imm = 0xEBC0
	cmoveq	%r12, %rdi
	cmpb	$2, %cl
	movl	$60367, %ecx            # imm = 0xEBCF
	cmoveq	%r12, %rcx
	movb	(%rbx,%rcx), %cl
	movb	%cl, 60367(%rbx)
	movb	(%rbx,%rdx), %cl
	movb	%cl, 60380(%rbx)
	movb	(%rbx,%rsi), %cl
	movb	%cl, 60350(%rbx)
	movb	(%rbx,%rax), %al
	movb	%al, 60381(%rbx)
	movb	(%rbx,%rbp), %al
	movb	%al, 60351(%rbx)
	movb	(%rbx,%rdi), %al
	movl	$60365, %ecx            # imm = 0xEBCD
	cmoveq	%r15, %rcx
	movb	%al, 60352(%rbx)
	movb	(%rbx,%rcx), %al
	movb	%al, 60365(%rbx)
	movl	$60366, %eax            # imm = 0xEBCE
	cmoveq	%r8, %rax
	movb	(%rbx,%rax), %al
	movb	%al, 60366(%rbx)
.LBB0_1251:                             # %if.end12451
	testb	%r14b, %r14b
	je	.LBB0_1253
# %bb.1252:                             # %if.then12597
	movb	46888(%rbx), %al
	testb	%al, %al
	movl	$46891, %r15d           # imm = 0xB72B
	movl	$60457, %esi            # imm = 0xEC29
	cmoveq	%r15, %rsi
	movl	$46892, %r8d            # imm = 0xB72C
	movl	$60456, %ebp            # imm = 0xEC28
	cmoveq	%r8, %rbp
	movl	$46893, %r14d           # imm = 0xB72D
	movl	$60455, %edi            # imm = 0xEC27
	cmoveq	%r14, %rdi
	cmpb	$3, %al
	movl	$60502, %ecx            # imm = 0xEC56
	cmoveq	%r15, %rcx
	movb	(%rbx,%rcx), %cl
	movb	%cl, 60502(%rbx)
	movb	(%rbx,%rsi), %cl
	movb	%cl, 60457(%rbx)
	movb	(%rbx,%rbp), %cl
	movb	%cl, 60456(%rbx)
	movb	(%rbx,%rdi), %cl
	movl	$60500, %esi            # imm = 0xEC54
	cmoveq	%r14, %rsi
	movb	%cl, 60455(%rbx)
	movl	$60501, %ecx            # imm = 0xEC55
	cmoveq	%r8, %rcx
	cmpb	$1, %al
	movl	$60470, %edi            # imm = 0xEC36
	cmoveq	%r14, %rdi
	movl	$60471, %ebp            # imm = 0xEC37
	cmoveq	%r8, %rbp
	movl	$60472, %edx            # imm = 0xEC38
	cmoveq	%r15, %rdx
	cmpb	$2, %al
	movl	$60487, %eax            # imm = 0xEC47
	cmoveq	%r15, %rax
	movb	(%rbx,%rax), %al
	movb	%al, 60487(%rbx)
	movb	(%rbx,%rsi), %al
	movb	%al, 60500(%rbx)
	movb	(%rbx,%rdi), %al
	movb	%al, 60470(%rbx)
	movb	(%rbx,%rcx), %al
	movb	%al, 60501(%rbx)
	movb	(%rbx,%rbp), %al
	movb	%al, 60471(%rbx)
	movb	(%rbx,%rdx), %al
	movl	$60485, %ecx            # imm = 0xEC45
	cmoveq	%r14, %rcx
	movb	%al, 60472(%rbx)
	movb	(%rbx,%rcx), %al
	movb	%al, 60485(%rbx)
	movl	$60486, %eax            # imm = 0xEC46
	cmoveq	%r8, %rax
	movb	(%rbx,%rax), %al
	movb	%al, 60486(%rbx)
.LBB0_1253:                             # %if.end12607
	testb	%r9b, %r9b
	je	.LBB0_1255
# %bb.1254:                             # %cond.true12611
	movb	18970(%rbx), %cl
	andb	24550(%rbx), %cl
	movb	18993(%rbx), %al
	andb	24551(%rbx), %al
	orb	%cl, %al
	jmp	.LBB0_1256
.LBB0_1255:                             # %cond.false12621
	movb	24478(%rbx), %al
.LBB0_1256:                             # %cond.end12623
	movb	%al, 24478(%rbx)
	testb	%r10b, %r10b
	je	.LBB0_1258
# %bb.1257:                             # %cond.true12630
	movb	18970(%rbx), %cl
	andb	24547(%rbx), %cl
	movb	18993(%rbx), %al
	andb	24548(%rbx), %al
	orb	%cl, %al
	jmp	.LBB0_1259
.LBB0_1258:                             # %cond.false12642
	movb	24461(%rbx), %al
.LBB0_1259:                             # %cond.end12644
	movb	%al, 24461(%rbx)
	testb	%r11b, %r11b
	je	.LBB0_1261
# %bb.1260:                             # %cond.true12651
	movb	18970(%rbx), %cl
	andb	24544(%rbx), %cl
	movb	18993(%rbx), %al
	andb	24545(%rbx), %al
	orb	%cl, %al
	jmp	.LBB0_1262
.LBB0_1261:                             # %cond.false12663
	movb	24444(%rbx), %al
.LBB0_1262:                             # %cond.end12665
	movb	%al, 24444(%rbx)
	cmpb	$0, 24543(%rbx)
	je	.LBB0_1264
# %bb.1263:                             # %cond.true12671
	movb	18970(%rbx), %cl
	andb	24541(%rbx), %cl
	movb	18993(%rbx), %al
	andb	24542(%rbx), %al
	orb	%cl, %al
	jmp	.LBB0_1265
.LBB0_1264:                             # %cond.false12681
	movb	24427(%rbx), %al
.LBB0_1265:                             # %cond.end12683
	movb	%al, 24427(%rbx)
	cmpb	$0, 24540(%rbx)
	je	.LBB0_1267
# %bb.1266:                             # %cond.true12689
	movb	18970(%rbx), %cl
	andb	24538(%rbx), %cl
	movb	18993(%rbx), %al
	andb	24539(%rbx), %al
	orb	%cl, %al
	jmp	.LBB0_1268
.LBB0_1267:                             # %cond.false12699
	movb	24410(%rbx), %al
.LBB0_1268:                             # %cond.end12701
	movb	%al, 24410(%rbx)
	cmpb	$0, 24537(%rbx)
	je	.LBB0_1270
# %bb.1269:                             # %cond.true12707
	movb	18970(%rbx), %cl
	andb	24535(%rbx), %cl
	movb	18993(%rbx), %al
	andb	24536(%rbx), %al
	orb	%cl, %al
	jmp	.LBB0_1271
.LBB0_1270:                             # %cond.false12717
	movb	24393(%rbx), %al
.LBB0_1271:                             # %cond.end12719
	movb	%al, 24393(%rbx)
	cmpb	$0, 24534(%rbx)
	je	.LBB0_1273
# %bb.1272:                             # %cond.true12725
	movb	18970(%rbx), %cl
	andb	24532(%rbx), %cl
	movb	18993(%rbx), %al
	andb	24533(%rbx), %al
	orb	%cl, %al
	jmp	.LBB0_1274
.LBB0_1273:                             # %cond.false12735
	movb	24376(%rbx), %al
.LBB0_1274:                             # %cond.end12737
	movb	%al, 24376(%rbx)
	cmpb	$0, 24528(%rbx)
	je	.LBB0_1276
# %bb.1275:                             # %cond.true12743
	movb	18970(%rbx), %cl
	andb	24526(%rbx), %cl
	movb	18993(%rbx), %al
	andb	24527(%rbx), %al
	orb	%cl, %al
	jmp	.LBB0_1277
.LBB0_1276:                             # %cond.false12753
	movb	24342(%rbx), %al
.LBB0_1277:                             # %cond.end12755
	movb	%al, 24342(%rbx)
	cmpb	$0, 24525(%rbx)
	je	.LBB0_1279
# %bb.1278:                             # %cond.true12761
	movb	18970(%rbx), %cl
	andb	24523(%rbx), %cl
	movb	18993(%rbx), %al
	andb	24524(%rbx), %al
	orb	%cl, %al
	jmp	.LBB0_1280
.LBB0_1279:                             # %cond.false12771
	movb	24325(%rbx), %al
.LBB0_1280:                             # %cond.end12773
	movb	%al, 24325(%rbx)
	cmpb	$0, 24513(%rbx)
	je	.LBB0_1282
# %bb.1281:                             # %cond.true12779
	movb	18970(%rbx), %cl
	andb	24511(%rbx), %cl
	movb	18993(%rbx), %al
	andb	24512(%rbx), %al
	orb	%cl, %al
	jmp	.LBB0_1283
.LBB0_1282:                             # %cond.false12789
	movb	24257(%rbx), %al
.LBB0_1283:                             # %cond.end12791
	movb	%al, 24257(%rbx)
	cmpb	$0, 24507(%rbx)
	je	.LBB0_1285
# %bb.1284:                             # %cond.true12797
	movb	18970(%rbx), %cl
	andb	24505(%rbx), %cl
	movb	18993(%rbx), %al
	andb	24506(%rbx), %al
	orb	%cl, %al
	jmp	.LBB0_1286
.LBB0_1285:                             # %cond.false12807
	movb	24223(%rbx), %al
.LBB0_1286:                             # %cond.end12809
	movb	%al, 24223(%rbx)
	cmpb	$0, 24519(%rbx)
	je	.LBB0_1288
# %bb.1287:                             # %cond.true12815
	movb	18970(%rbx), %cl
	andb	24517(%rbx), %cl
	movb	18993(%rbx), %al
	andb	24518(%rbx), %al
	orb	%cl, %al
	jmp	.LBB0_1289
.LBB0_1288:                             # %cond.false12825
	movb	24291(%rbx), %al
.LBB0_1289:                             # %cond.end12827
	movb	%al, 24291(%rbx)
	cmpb	$0, 24516(%rbx)
	je	.LBB0_1291
# %bb.1290:                             # %cond.true12833
	movb	18970(%rbx), %cl
	andb	24514(%rbx), %cl
	movb	18993(%rbx), %al
	andb	24515(%rbx), %al
	orb	%cl, %al
	jmp	.LBB0_1292
.LBB0_1291:                             # %cond.false12843
	movb	24274(%rbx), %al
.LBB0_1292:                             # %cond.end12845
	movb	%al, 24274(%rbx)
	cmpb	$0, 24522(%rbx)
	je	.LBB0_1294
# %bb.1293:                             # %cond.true12851
	movb	18970(%rbx), %cl
	andb	24520(%rbx), %cl
	movb	18993(%rbx), %al
	andb	24521(%rbx), %al
	orb	%cl, %al
	jmp	.LBB0_1295
.LBB0_1294:                             # %cond.false12861
	movb	24308(%rbx), %al
.LBB0_1295:                             # %cond.end12863
	movb	%al, 24308(%rbx)
	cmpb	$0, 24510(%rbx)
	je	.LBB0_1297
# %bb.1296:                             # %cond.true12869
	movb	18970(%rbx), %cl
	andb	24508(%rbx), %cl
	movb	18993(%rbx), %al
	andb	24509(%rbx), %al
	orb	%cl, %al
	jmp	.LBB0_1298
.LBB0_1297:                             # %cond.false12879
	movb	24240(%rbx), %al
.LBB0_1298:                             # %cond.end12881
	movb	%al, 24240(%rbx)
	cmpb	$0, 24531(%rbx)
	je	.LBB0_1300
# %bb.1299:                             # %cond.true12887
	movb	18970(%rbx), %cl
	andb	24529(%rbx), %cl
	movb	18993(%rbx), %al
	andb	24530(%rbx), %al
	orb	%cl, %al
	jmp	.LBB0_1301
.LBB0_1300:                             # %cond.false12897
	movb	24359(%rbx), %al
.LBB0_1301:                             # %cond.end12899
	movb	%al, 24359(%rbx)
	movb	70933(%rbx), %r9b
	testb	%r9b, %r9b
	je	.LBB0_1303
# %bb.1302:                             # %if.then12960
	movw	$0, 1492960(%rbx)
	movb	$0, 1492719(%rbx)
	xorl	%eax, %eax
	jmp	.LBB0_1315
.LBB0_1303:                             # %if.else12906
	cmpb	$0, 2083(%rbx)
	je	.LBB0_1305
# %bb.1304:                             # %cond.true12909
	movb	2077(%rbx), %al
	notb	%al
	andb	$1, %al
	jmp	.LBB0_1306
.LBB0_1305:                             # %cond.false12913
	movb	1492961(%rbx), %al
.LBB0_1306:                             # %if.else12924
	movb	%al, 1492961(%rbx)
	cmpb	$0, 2084(%rbx)
	je	.LBB0_1308
# %bb.1307:                             # %cond.true12927
	movb	2078(%rbx), %al
	notb	%al
	andb	$1, %al
	jmp	.LBB0_1309
.LBB0_1308:                             # %cond.false12931
	movb	1492960(%rbx), %al
.LBB0_1309:                             # %if.else12942
	movb	%al, 1492960(%rbx)
	cmpb	$0, 1665(%rbx)
	je	.LBB0_1311
# %bb.1310:                             # %cond.true12945
	movb	1659(%rbx), %al
	notb	%al
	andb	$1, %al
	jmp	.LBB0_1312
.LBB0_1311:                             # %cond.false12950
	movb	1492719(%rbx), %al
.LBB0_1312:                             # %if.else12961
	movb	%al, 1492719(%rbx)
	cmpb	$0, 2184(%rbx)
	je	.LBB0_1314
# %bb.1313:                             # %cond.true12964
	movb	2178(%rbx), %al
	notb	%al
	andb	$1, %al
	jmp	.LBB0_1315
.LBB0_1314:                             # %cond.false12969
	movb	1493083(%rbx), %al
.LBB0_1315:                             # %if.end12976
	movb	%al, 1493083(%rbx)
	movb	22210(%rbx), %r10b
	movb	%r10b, 22295(%rbx)
	movb	39685(%rbx), %r11b
	movb	%r11b, 39759(%rbx)
	movb	68356(%rbx), %r8b
	testb	%r8b, %r8b
	je	.LBB0_1317
# %bb.1316:
	xorl	%eax, %eax
	jmp	.LBB0_1320
.LBB0_1317:                             # %if.else12980
	cmpb	$0, 68317(%rbx)
	je	.LBB0_1319
# %bb.1318:                             # %cond.true12983
	movb	68311(%rbx), %al
	notb	%al
	andb	$1, %al
	jmp	.LBB0_1320
.LBB0_1319:                             # %cond.false12987
	movb	1497324(%rbx), %al
.LBB0_1320:                             # %if.end12994
	movb	%al, 1497324(%rbx)
	cmpb	$0, 6(%rsp)             # 1-byte Folded Reload
	je	.LBB0_1325
# %bb.1321:                             # %if.then12997
	movb	13010(%rbx), %al
	testb	$1, %al
	je	.LBB0_1323
# %bb.1322:                             # %if.then13001
	movb	13030(%rbx), %cl
	andb	$3, %cl
	movb	%cl, 1494178(%rbx)
	movb	$1, 1494179(%rbx)
	movb	$0, 1494177(%rbx)
	movzwl	73064(%rbx), %ecx
	movw	%cx, 1498044(%rbx)
.LBB0_1323:                             # %if.end13005
	testb	$2, %al
	je	.LBB0_1325
# %bb.1324:                             # %if.then13010
	movb	13030(%rbx), %al
	shrb	$2, %al
	andb	$3, %al
	movb	%al, 1494181(%rbx)
	movb	$1, 1494182(%rbx)
	movb	$2, 1494180(%rbx)
	movzwl	73064(%rbx), %eax
	movw	%ax, 1498046(%rbx)
.LBB0_1325:                             # %if.end13018
	testb	%r9b, %r9b
	je	.LBB0_1327
# %bb.1326:
	xorl	%eax, %eax
	jmp	.LBB0_1329
.LBB0_1327:                             # %if.else13022
	movb	697(%rbx), %al
	cmpb	698(%rbx), %al
	jne	.LBB0_1329
# %bb.1328:                             # %cond.false13028
	movb	693(%rbx), %al
.LBB0_1329:                             # %if.end13033
	movb	%al, 693(%rbx)
	movb	21324(%rbx), %r12b
	movb	21327(%rbx), %r15b
	movb	%r12b, 21424(%rbx)
	movb	%r15b, 21426(%rbx)
	testb	%r8b, %r8b
	je	.LBB0_1331
# %bb.1330:                             # %if.then13110
	movw	$0, 1497081(%rbx)
	movw	$0, 1497124(%rbx)
	xorl	%ecx, %ecx
	jmp	.LBB0_1346
.LBB0_1331:                             # %if.else13037
	cmpb	$0, 68140(%rbx)
	je	.LBB0_1333
# %bb.1332:                             # %cond.true13040
	movb	68134(%rbx), %al
	notb	%al
	andb	$1, %al
	jmp	.LBB0_1334
.LBB0_1333:                             # %cond.false13045
	movb	1497082(%rbx), %al
.LBB0_1334:                             # %if.else13056
	movb	%al, 1497082(%rbx)
	cmpb	$0, 68139(%rbx)
	je	.LBB0_1336
# %bb.1335:                             # %cond.true13059
	movb	68133(%rbx), %al
	notb	%al
	andb	$1, %al
	jmp	.LBB0_1337
.LBB0_1336:                             # %cond.false13063
	movb	1497081(%rbx), %al
.LBB0_1337:                             # %if.else13074
	movb	%al, 1497081(%rbx)
	cmpb	$0, 68177(%rbx)
	je	.LBB0_1339
# %bb.1338:                             # %cond.true13077
	movb	68171(%rbx), %al
	notb	%al
	andb	$1, %al
	jmp	.LBB0_1340
.LBB0_1339:                             # %cond.false13082
	movb	1497125(%rbx), %al
.LBB0_1340:                             # %if.else13093
	movb	%al, 1497125(%rbx)
	cmpb	$0, 68176(%rbx)
	je	.LBB0_1342
# %bb.1341:                             # %cond.true13096
	movb	68170(%rbx), %cl
	notb	%cl
	andb	$1, %cl
	jmp	.LBB0_1343
.LBB0_1342:                             # %cond.false13100
	movb	1497124(%rbx), %cl
.LBB0_1343:                             # %if.else13111
	movb	%cl, 1497124(%rbx)
	cmpb	$0, 68318(%rbx)
	je	.LBB0_1345
# %bb.1344:                             # %cond.true13114
	movb	68312(%rbx), %cl
	notb	%cl
	andb	$1, %cl
	jmp	.LBB0_1346
.LBB0_1345:                             # %cond.false13118
	movb	1497330(%rbx), %cl
.LBB0_1346:                             # %if.end13125
	cmpb	$0, 53269(%rbx)
	movl	$53320, %eax            # imm = 0xD048
	movl	$53270, %esi            # imm = 0xD016
	cmoveq	%rax, %rsi
	movb	%cl, 1497330(%rbx)
	movb	(%rbx,%rsi), %al
	movb	%al, 53320(%rbx)
	testb	%r8b, %r8b
	je	.LBB0_1348
# %bb.1347:                             # %if.then13152
	movb	$0, 1497178(%rbx)
	xorl	%ecx, %ecx
	jmp	.LBB0_1354
.LBB0_1348:                             # %if.else13135
	cmpb	$0, 68220(%rbx)
	je	.LBB0_1350
# %bb.1349:                             # %cond.true13138
	movb	68214(%rbx), %cl
	notb	%cl
	andb	$1, %cl
	jmp	.LBB0_1351
.LBB0_1350:                             # %cond.false13142
	movb	1497178(%rbx), %cl
.LBB0_1351:                             # %if.else13153
	movb	%cl, 1497178(%rbx)
	cmpb	$0, 68221(%rbx)
	je	.LBB0_1353
# %bb.1352:                             # %cond.true13156
	movb	68215(%rbx), %cl
	notb	%cl
	andb	$1, %cl
	jmp	.LBB0_1354
.LBB0_1353:                             # %cond.false13161
	movb	1497175(%rbx), %cl
.LBB0_1354:                             # %if.end13168
	movb	%cl, 1497175(%rbx)
	testb	%r13b, %r13b
	je	.LBB0_1356
# %bb.1355:                             # %cond.true13182
	movb	164716(%rbx), %al
	andb	$1, %al
	movb	%al, 28599(%rbx)
	movl	164740(%rbx), %eax
	andl	$1, %eax
	jmp	.LBB0_1357
.LBB0_1356:                             # %cond.false13185
	movzbl	28600(%rbx), %eax
.LBB0_1357:                             # %cond.end13187
	movb	%al, 28600(%rbx)
	testb	%r9b, %r9b
	je	.LBB0_1359
# %bb.1358:
	xorl	%ecx, %ecx
	jmp	.LBB0_1362
.LBB0_1359:                             # %if.else13194
	cmpb	$0, 1666(%rbx)
	je	.LBB0_1361
# %bb.1360:                             # %cond.true13197
	movb	1660(%rbx), %cl
	notb	%cl
	andb	$1, %cl
	jmp	.LBB0_1362
.LBB0_1361:                             # %cond.false13201
	movb	1492715(%rbx), %cl
.LBB0_1362:                             # %if.end13208
	movb	%cl, 1492715(%rbx)
	movb	936(%rbx), %al
	notb	%al
	testb	%al, 762(%rbx)
	je	.LBB0_1364
# %bb.1363:                             # %if.then13224
	movb	1371(%rbx), %al
	movb	1372(%rbx), %cl
	movb	%al, 1491749(%rbx)
	movb	$1, 1491750(%rbx)
	movb	%cl, 1491747(%rbx)
	movb	$1, 1491748(%rbx)
.LBB0_1364:                             # %if.end13226
	movb	939(%rbx), %al
	notb	%al
	testb	%al, 763(%rbx)
	je	.LBB0_1366
# %bb.1365:                             # %if.then13242
	movb	1371(%rbx), %al
	movb	1372(%rbx), %cl
	movb	%al, 1491753(%rbx)
	movb	$1, 1491754(%rbx)
	movb	%cl, 1491751(%rbx)
	movb	$1, 1491752(%rbx)
.LBB0_1366:                             # %if.end13244
	movb	942(%rbx), %al
	notb	%al
	testb	%al, 764(%rbx)
	je	.LBB0_1368
# %bb.1367:                             # %if.then13260
	movb	1371(%rbx), %al
	movb	1372(%rbx), %cl
	movb	%al, 1491757(%rbx)
	movb	$1, 1491758(%rbx)
	movb	%cl, 1491755(%rbx)
	movb	$1, 1491756(%rbx)
.LBB0_1368:                             # %if.end13262
	movb	945(%rbx), %al
	notb	%al
	testb	%al, 765(%rbx)
	je	.LBB0_1370
# %bb.1369:                             # %if.then13278
	movb	1371(%rbx), %al
	movb	1372(%rbx), %cl
	movb	%al, 1491761(%rbx)
	movb	$1, 1491762(%rbx)
	movb	%cl, 1491759(%rbx)
	movb	$1, 1491760(%rbx)
.LBB0_1370:                             # %if.end13280
	movb	948(%rbx), %al
	notb	%al
	testb	%al, 766(%rbx)
	je	.LBB0_1372
# %bb.1371:                             # %if.then13296
	movb	1371(%rbx), %al
	movb	1372(%rbx), %cl
	movb	%al, 1491765(%rbx)
	movb	$1, 1491766(%rbx)
	movb	%cl, 1491763(%rbx)
	movb	$1, 1491764(%rbx)
.LBB0_1372:                             # %if.end13298
	movb	951(%rbx), %al
	notb	%al
	testb	%al, 767(%rbx)
	je	.LBB0_1374
# %bb.1373:                             # %if.then13314
	movb	1371(%rbx), %al
	movb	1372(%rbx), %cl
	movb	%al, 1491769(%rbx)
	movb	$1, 1491770(%rbx)
	movb	%cl, 1491767(%rbx)
	movb	$1, 1491768(%rbx)
.LBB0_1374:                             # %if.end13316
	movb	954(%rbx), %al
	notb	%al
	testb	%al, 768(%rbx)
	je	.LBB0_1376
# %bb.1375:                             # %if.then13332
	movb	1371(%rbx), %al
	movb	1372(%rbx), %cl
	movb	%al, 1491773(%rbx)
	movb	$1, 1491774(%rbx)
	movb	%cl, 1491771(%rbx)
	movb	$1, 1491772(%rbx)
.LBB0_1376:                             # %if.end13334
	xorl	%eax, %eax
	cmpb	$0, 68866(%rbx)
	setne	%al
	movb	68867(%rbx,%rax,2), %r14b
	testb	%r14b, %r14b
	je	.LBB0_1378
# %bb.1377:                             # %if.then13346
	movb	$1, 1497450(%rbx)
	movb	68862(%rbx), %al
	movb	%al, 1497449(%rbx)
.LBB0_1378:                             # %if.end13347
	cmpb	$0, 44483(%rbx)
	je	.LBB0_1381
# %bb.1379:                             # %cond.true13349
	testb	$2, 44411(%rbx)
	jne	.LBB0_1382
# %bb.1380:                             # %cond.true13431.thread
	movl	$0, 177492(%rbx)
	xorl	%ebp, %ebp
	jmp	.LBB0_1409
.LBB0_1381:                             # %cond.false13512
	movl	177496(%rbx), %ebp
	jmp	.LBB0_1409
.LBB0_1382:                             # %cond.true13353
	cmpb	$0, 44412(%rbx)
	je	.LBB0_1384
# %bb.1383:                             # %cond.true13356
	movl	177500(%rbx), %ebp
	jmp	.LBB0_1395
.LBB0_1384:                             # %cond.false13357
	movb	44475(%rbx), %cl
	xorl	%ebp, %ebp
	movl	$0, %esi
	testb	$16, %cl
	je	.LBB0_1386
# %bb.1385:                             # %cond.true13361
	movl	$67108863, %eax         # imm = 0x3FFFFFF
	andl	177500(%rbx), %eax
	leal	2(,%rax,4), %esi
.LBB0_1386:                             # %cond.end13367
	testb	$8, %cl
	je	.LBB0_1388
# %bb.1387:                             # %cond.true13373
	movl	$67108863, %eax         # imm = 0x3FFFFFF
	andl	177500(%rbx), %eax
	leal	1(,%rax,4), %ebp
.LBB0_1388:                             # %cond.end13379
	orl	%esi, %ebp
	xorl	%esi, %esi
	movl	$0, %edi
	testb	$4, %cl
	je	.LBB0_1390
# %bb.1389:                             # %cond.true13386
	movl	177500(%rbx), %edi
	shll	$2, %edi
	andl	$268435452, %edi        # imm = 0xFFFFFFC
.LBB0_1390:                             # %cond.end13391
	orl	%edi, %ebp
	testb	$2, %cl
	je	.LBB0_1392
# %bb.1391:                             # %cond.true13398
	movl	$67108863, %eax         # imm = 0x3FFFFFF
	andl	177504(%rbx), %eax
	leal	3(,%rax,4), %esi
.LBB0_1392:                             # %cond.end13403
	orl	%esi, %ebp
	xorl	%eax, %eax
	testb	$1, %cl
	je	.LBB0_1394
# %bb.1393:                             # %cond.true13410
	movl	$67108863, %eax         # imm = 0x3FFFFFF
	andl	177504(%rbx), %eax
	leal	2(,%rax,4), %eax
.LBB0_1394:                             # %cond.end13416
	orl	%eax, %ebp
.LBB0_1395:                             # %cond.true13436
	andl	$67108863, %ebp         # imm = 0x3FFFFFF
	movl	%ebp, 177492(%rbx)
	cmpb	$0, 44412(%rbx)
	je	.LBB0_1397
# %bb.1396:                             # %cond.true13440
	movl	177504(%rbx), %ebp
	jmp	.LBB0_1408
.LBB0_1397:                             # %cond.false13442
	movb	44475(%rbx), %cl
	xorl	%ebp, %ebp
	movl	$0, %esi
	testb	$16, %cl
	je	.LBB0_1399
# %bb.1398:                             # %cond.true13447
	movl	$67108863, %eax         # imm = 0x3FFFFFF
	andl	177500(%rbx), %eax
	leal	1(,%rax,4), %esi
.LBB0_1399:                             # %cond.end13453
	testb	$8, %cl
	je	.LBB0_1401
# %bb.1400:                             # %cond.true13459
	movl	177500(%rbx), %ebp
	shll	$2, %ebp
	andl	$268435452, %ebp        # imm = 0xFFFFFFC
.LBB0_1401:                             # %cond.end13464
	orl	%esi, %ebp
	xorl	%esi, %esi
	movl	$0, %eax
	testb	$4, %cl
	je	.LBB0_1403
# %bb.1402:                             # %cond.true13471
	movl	$67108863, %eax         # imm = 0x3FFFFFF
	andl	177504(%rbx), %eax
	leal	3(,%rax,4), %eax
.LBB0_1403:                             # %cond.end13477
	orl	%eax, %ebp
	testb	$2, %cl
	je	.LBB0_1405
# %bb.1404:                             # %cond.true13484
	movl	$67108863, %eax         # imm = 0x3FFFFFF
	andl	177504(%rbx), %eax
	leal	2(,%rax,4), %esi
.LBB0_1405:                             # %cond.end13490
	orl	%esi, %ebp
	xorl	%eax, %eax
	testb	$1, %cl
	je	.LBB0_1407
# %bb.1406:                             # %cond.true13497
	movl	$67108863, %eax         # imm = 0x3FFFFFF
	andl	177504(%rbx), %eax
	leal	1(,%rax,4), %eax
.LBB0_1407:                             # %cond.end13503
	orl	%eax, %ebp
.LBB0_1408:                             # %cond.end13513
	andl	$67108863, %ebp         # imm = 0x3FFFFFF
.LBB0_1409:                             # %cond.end13513
	movl	%ebp, 177496(%rbx)
	movb	22211(%rbx), %al
	movb	%al, 22289(%rbx)
	movb	%r10b, 22288(%rbx)
	movb	%r11b, 39753(%rbx)
	movb	39686(%rbx), %al
	movb	%al, 39754(%rbx)
	cmpb	$0, 67142(%rbx)
	movl	$67184, %eax            # imm = 0x10670
	movl	$67058, %ecx            # imm = 0x105F2
	cmoveq	%rax, %rcx
	movb	(%rbx,%rcx), %al
	movb	%al, 67184(%rbx)
	movb	303(%rbx), %al
	notb	%al
	testb	%al, 78(%rbx)
	je	.LBB0_1417
# %bb.1410:                             # %if.then13529
	xorl	%ecx, %ecx
	cmpb	$0, 417(%rbx)
	movl	$0, %ebp
	je	.LBB0_1412
# %bb.1411:                             # %cond.true13532
	movzbl	68980(%rbx), %ebp
	addl	%ebp, %ebp
.LBB0_1412:                             # %cond.end13536
	cmpb	$0, 418(%rbx)
	je	.LBB0_1416
# %bb.1413:                             # %cond.true13540
	movb	68957(%rbx), %dl
	movl	%edx, %eax
	orb	$1, %al
	movzbl	68959(%rbx), %ecx
	addl	%ecx, %ecx
	cmpb	$7, %al
	jne	.LBB0_1415
# %bb.1414:                             # %cond.true13550
	orl	$1, %ecx
	jmp	.LBB0_1416
.LBB0_1415:                             # %cond.false13554
	xorl	%eax, %eax
	cmpb	$2, %dl
	setb	%al
	orl	%eax, %ecx
.LBB0_1416:                             # %cond.end13571
	orl	%ebp, %ecx
	movb	%cl, 1491286(%rbx)
	movb	$1, 1491287(%rbx)
	movb	298(%rbx), %al
	movb	%al, 1491285(%rbx)
.LBB0_1417:                             # %if.end13576
	movb	%r15b, 21415(%rbx)
	movb	21325(%rbx), %al
	movb	%al, 21413(%rbx)
	movb	%r12b, 21412(%rbx)
	movb	21328(%rbx), %al
	movb	%al, 21416(%rbx)
	movb	580(%rbx), %dil
	notb	%dil
	andb	60(%rbx), %dil
	je	.LBB0_1419
# %bb.1418:                             # %if.then13584
	movb	2118(%rbx), %al
	movb	%al, 1491410(%rbx)
	movb	$1, 1491411(%rbx)
	movb	575(%rbx), %al
	movb	%al, 1491409(%rbx)
.LBB0_1419:                             # %if.end13586
	movb	1793(%rbx), %r10b
	notb	%r10b
	andb	59(%rbx), %r10b
	movabsq	$17179869183, %r15      # imm = 0x3FFFFFFFF
	je	.LBB0_1421
# %bb.1420:                             # %if.then13592
	movb	1788(%rbx), %al
	movb	2118(%rbx), %dl
	movb	%dl, 1492850(%rbx)
	movb	$1, 1492851(%rbx)
	movb	%al, 1492849(%rbx)
.LBB0_1421:                             # %if.end13595
	movb	3804(%rbx), %dl
	notb	%dl
	andb	50(%rbx), %dl
	je	.LBB0_1423
# %bb.1422:                             # %if.then13601
	movb	2118(%rbx), %al
	movb	%al, 1493350(%rbx)
	movb	$1, 1493351(%rbx)
	movb	3799(%rbx), %al
	movb	%al, 1493349(%rbx)
.LBB0_1423:                             # %if.end13604
	cmpb	$0, 68579(%rbx)
	movl	$70371, %eax            # imm = 0x112E3
	movl	$68971, %esi            # imm = 0x10D6B
	cmoveq	%rax, %rsi
	movb	(%rbx,%rsi), %al
	movb	%al, 70371(%rbx)
	testb	%r9b, %r9b
	je	.LBB0_1425
# %bb.1424:                             # %if.then13632
	movb	$0, 1491371(%rbx)
	xorl	%esi, %esi
	jmp	.LBB0_1431
.LBB0_1425:                             # %if.else13614
	cmpb	$0, 558(%rbx)
	je	.LBB0_1427
# %bb.1426:                             # %cond.true13617
	movb	552(%rbx), %al
	notb	%al
	andb	$1, %al
	jmp	.LBB0_1428
.LBB0_1427:                             # %cond.false13622
	movb	1491371(%rbx), %al
.LBB0_1428:                             # %if.else13633
	movb	%al, 1491371(%rbx)
	cmpb	$0, 557(%rbx)
	je	.LBB0_1430
# %bb.1429:                             # %cond.true13636
	movb	551(%rbx), %sil
	notb	%sil
	andb	$1, %sil
	jmp	.LBB0_1431
.LBB0_1430:                             # %cond.false13641
	movb	1491365(%rbx), %sil
.LBB0_1431:                             # %if.end13648
	movb	%sil, 1491365(%rbx)
	movb	834(%rbx), %al
	notb	%al
	testb	%al, 728(%rbx)
	je	.LBB0_1433
# %bb.1432:                             # %if.then13664
	movb	1371(%rbx), %al
	movb	1372(%rbx), %cl
	movb	%al, 1491613(%rbx)
	movb	$1, 1491614(%rbx)
	movb	%cl, 1491611(%rbx)
	movb	$1, 1491612(%rbx)
.LBB0_1433:                             # %if.end13666
	movb	837(%rbx), %al
	notb	%al
	testb	%al, 729(%rbx)
	je	.LBB0_1435
# %bb.1434:                             # %if.then13682
	movb	1371(%rbx), %al
	movb	1372(%rbx), %cl
	movb	%al, 1491617(%rbx)
	movb	$1, 1491618(%rbx)
	movb	%cl, 1491615(%rbx)
	movb	$1, 1491616(%rbx)
.LBB0_1435:                             # %if.end13684
	movb	840(%rbx), %al
	notb	%al
	testb	%al, 730(%rbx)
	je	.LBB0_1437
# %bb.1436:                             # %if.then13700
	movb	1371(%rbx), %al
	movb	1372(%rbx), %cl
	movb	%al, 1491621(%rbx)
	movb	$1, 1491622(%rbx)
	movb	%cl, 1491619(%rbx)
	movb	$1, 1491620(%rbx)
.LBB0_1437:                             # %if.end13702
	movb	843(%rbx), %al
	notb	%al
	testb	%al, 731(%rbx)
	je	.LBB0_1439
# %bb.1438:                             # %if.then13718
	movb	1371(%rbx), %al
	movb	1372(%rbx), %cl
	movb	%al, 1491625(%rbx)
	movb	$1, 1491626(%rbx)
	movb	%cl, 1491623(%rbx)
	movb	$1, 1491624(%rbx)
.LBB0_1439:                             # %if.end13720
	movb	846(%rbx), %al
	notb	%al
	testb	%al, 732(%rbx)
	je	.LBB0_1441
# %bb.1440:                             # %if.then13736
	movb	1371(%rbx), %al
	movb	1372(%rbx), %cl
	movb	%al, 1491629(%rbx)
