	.text
	.file	"VSimTop__2.modify.cpp"
	.section	.rodata.cst16,"aM",@progbits,16
	.p2align	4               # -- Begin function _ZN7VSimTop17_sequent__TOP__56EP13VSimTop__Syms
.LCPI0_0:
	.zero	16,1
.LCPI0_1:
	.quad	251658240               # 0xf000000
	.quad	268435455               # 0xfffffff
.LCPI0_2:
	.quad	243269632               # 0xe800000
	.quad	243270656               # 0xe800400
.LCPI0_3:
	.quad	239075328               # 0xe400000
	.quad	239077376               # 0xe400800
.LCPI0_4:
	.quad	134217728               # 0x8000000
	.quad	201342976               # 0xc004000
.LCPI0_5:
	.quad	201408512               # 0xc014000
	.quad	234913792               # 0xe008000
.LCPI0_6:
	.quad	234914816               # 0xe008400
	.quad	234915840               # 0xe008800
	.text
	.globl	_ZN7VSimTop17_sequent__TOP__56EP13VSimTop__Syms
	.p2align	4, 0x90
	.type	_ZN7VSimTop17_sequent__TOP__56EP13VSimTop__Syms,@function
_ZN7VSimTop17_sequent__TOP__56EP13VSimTop__Syms: # @_ZN7VSimTop17_sequent__TOP__56EP13VSimTop__Syms
	.cfi_startproc
# %bb.0:                                # %entry
	pushq	%rbp
	.cfi_def_cfa_offset 16
	pushq	%r15
	.cfi_def_cfa_offset 24
	pushq	%r14
	.cfi_def_cfa_offset 32
	pushq	%r13
	.cfi_def_cfa_offset 40
	pushq	%r12
	.cfi_def_cfa_offset 48
	pushq	%rbx
	.cfi_def_cfa_offset 56
	subq	$50184, %rsp            # imm = 0xC408
	.cfi_def_cfa_offset 50240
	.cfi_offset %rbx, -56
	.cfi_offset %r12, -48
	.cfi_offset %r13, -40
	.cfi_offset %r14, -32
	.cfi_offset %r15, -24
	.cfi_offset %rbp, -16
	movq	24(%rdi), %rbx
	movb	28576(%rbx), %sil
	testb	%sil, %sil
	je	.LBB0_2
# %bb.1:                                # %if.then
	movb	34496(%rbx), %al
	andb	$1, %al
	movb	%al, 30908(%rbx)
.LBB0_2:                                # %if.end
	cmpb	$0, 40284(%rbx)
	je	.LBB0_4
# %bb.3:                                # %if.then7
	movzwl	61559(%rbx), %eax
	movw	%ax, 40273(%rbx)
.LBB0_4:                                # %if.end8
	cmpb	$0, 40283(%rbx)
	je	.LBB0_6
# %bb.5:                                # %if.then15
	movzwl	61559(%rbx), %eax
	movw	%ax, 40252(%rbx)
.LBB0_6:                                # %if.end17
	cmpb	$0, 40282(%rbx)
	je	.LBB0_8
# %bb.7:                                # %if.then24
	movzwl	61559(%rbx), %eax
	movw	%ax, 40231(%rbx)
.LBB0_8:                                # %if.end26
	cmpb	$0, 40281(%rbx)
	je	.LBB0_10
# %bb.9:                                # %if.then33
	movzwl	61559(%rbx), %eax
	movw	%ax, 40210(%rbx)
.LBB0_10:                               # %if.end35
	cmpb	$0, 40278(%rbx)
	je	.LBB0_12
# %bb.11:                               # %if.then42
	movzwl	61559(%rbx), %eax
	movw	%ax, 40147(%rbx)
.LBB0_12:                               # %if.end44
	cmpb	$0, 40277(%rbx)
	je	.LBB0_14
# %bb.13:                               # %if.then51
	movzwl	61559(%rbx), %eax
	movw	%ax, 40126(%rbx)
.LBB0_14:                               # %if.end53
	cmpb	$0, 40279(%rbx)
	je	.LBB0_16
# %bb.15:                               # %if.then60
	movzwl	61559(%rbx), %eax
	movw	%ax, 40168(%rbx)
.LBB0_16:                               # %if.end62
	cmpb	$0, 40280(%rbx)
	je	.LBB0_18
# %bb.17:                               # %if.then69
	movzwl	61559(%rbx), %eax
	movw	%ax, 40189(%rbx)
.LBB0_18:                               # %if.end71
	movb	631(%rbx), %al
	orb	672(%rbx), %al
	testb	$1, %al
	jne	.LBB0_20
# %bb.19:                               # %if.then171
	movzbl	628(%rbx), %eax
	movb	273780(%rbx,%rax), %cl
	movb	%cl, 1491517(%rbx)
	movb	$1, 1491518(%rbx)
	movb	667(%rbx), %cl
	movb	%cl, 1491516(%rbx)
	movq	%rax, %rdx
	shlq	$5, %rdx
	movups	273716(%rbx,%rdx), %xmm0
	movups	273732(%rbx,%rdx), %xmm1
	movups	%xmm1, 1498692(%rbx)
	movups	%xmm0, 1498676(%rbx)
	movb	$1, 1491523(%rbx)
	movb	%cl, 1491522(%rbx)
	movzwl	273710(%rbx,%rax,2), %edx
	movw	%dx, 1497854(%rbx)
	movb	$1, 1491521(%rbx)
	movb	%cl, 1491520(%rbx)
	movb	273782(%rbx,%rax), %al
	movb	%al, 1491514(%rbx)
	movb	$1, 1491515(%rbx)
	movb	%cl, 1491513(%rbx)
.LBB0_20:                               # %if.end176
	movb	3779(%rbx), %al
	orb	3796(%rbx), %al
	testb	$1, %al
	jne	.LBB0_22
# %bb.21:                               # %if.then227
	movzbl	3776(%rbx), %eax
	movb	279842(%rbx,%rax), %cl
	movb	%cl, 1493347(%rbx)
	movb	$1, 1493348(%rbx)
	movb	3791(%rbx), %cl
	movb	%cl, 1493346(%rbx)
	movb	279840(%rbx,%rax), %dl
	movb	%dl, 1493344(%rbx)
	movb	$1, 1493345(%rbx)
	movb	%cl, 1493343(%rbx)
	movb	279844(%rbx,%rax), %dl
	movb	%dl, 1493340(%rbx)
	movb	$1, 1493341(%rbx)
	movb	%cl, 1493339(%rbx)
	movq	279848(%rbx,%rax,8), %rax
	movq	%rax, 1503968(%rbx)
	movb	$1, 1493338(%rbx)
	movb	%cl, 1493337(%rbx)
.LBB0_22:                               # %if.end232
	movb	70933(%rbx), %r8b
	movl	%r8d, %edi
	notb	%dil
	movb	459(%rbx), %al
	andb	%dil, %al
	movb	%al, 455(%rbx)
	movb	525(%rbx), %al
	andb	%dil, %al
	movb	%al, 518(%rbx)
	testb	%r8b, %r8b
	je	.LBB0_23
# %bb.2631:                             # %if.then282
	movb	$0, 2087(%rbx)
	movb	$0, 2093(%rbx)
	movb	$0, 2099(%rbx)
	movb	$0, 2105(%rbx)
	xorl	%eax, %eax
	jmp	.LBB0_32
.LBB0_23:                               # %if.else
	cmpb	$0, 2090(%rbx)
	je	.LBB0_25
# %bb.24:                               # %if.then248
	movb	$0, 2087(%rbx)
.LBB0_25:                               # %if.else255
	cmpb	$0, 2096(%rbx)
	je	.LBB0_27
# %bb.26:                               # %if.then257
	movb	$0, 2093(%rbx)
.LBB0_27:                               # %if.else264
	movb	2102(%rbx), %al
	testb	%al, %al
	je	.LBB0_29
# %bb.28:                               # %if.then266
	movb	%al, 2099(%rbx)
.LBB0_29:                               # %if.else274
	cmpb	$0, 2108(%rbx)
	je	.LBB0_31
# %bb.30:                               # %if.then276
	movb	$0, 2105(%rbx)
.LBB0_31:                               # %if.else283
	movb	2114(%rbx), %al
	testb	%al, %al
	je	.LBB0_33
.LBB0_32:                               # %if.end289.sink.split
	movb	%al, 2111(%rbx)
.LBB0_33:                               # %if.end289
	movb	1606(%rbx), %al
	orb	1567(%rbx), %al
	testb	$1, %al
	jne	.LBB0_35
# %bb.34:                               # %if.then310
	movzbl	1603(%rbx), %eax
	movb	277586(%rbx,%rax), %cl
	movb	%cl, 1492617(%rbx)
	movb	$1, 1492618(%rbx)
	movb	1562(%rbx), %cl
	movb	%cl, 1492616(%rbx)
	movl	277588(%rbx,%rax,4), %eax
	movl	%eax, 1500044(%rbx)
	movb	$1, 1492615(%rbx)
	movb	%cl, 1492614(%rbx)
.LBB0_35:                               # %if.end315
	movb	3787(%rbx), %al
	orb	3772(%rbx), %al
	testb	$1, %al
	jne	.LBB0_37
# %bb.36:                               # %if.then396
	movzbl	3784(%rbx), %eax
	movb	279866(%rbx,%rax), %cl
	movb	%cl, 1493303(%rbx)
	movb	$1, 1493304(%rbx)
	movb	3767(%rbx), %cl
	movb	%cl, 1493302(%rbx)
	movb	279864(%rbx,%rax), %dl
	movb	%dl, 1493300(%rbx)
	movb	$1, 1493301(%rbx)
	movb	%cl, 1493299(%rbx)
	movq	279888(%rbx,%rax,8), %rdx
	movq	%rdx, 1503944(%rbx)
	movb	$1, 1493298(%rbx)
	movb	%cl, 1493297(%rbx)
	movb	279868(%rbx,%rax), %dl
	movb	%dl, 1493295(%rbx)
	movb	$1, 1493296(%rbx)
	movb	%cl, 1493294(%rbx)
	movl	279872(%rbx,%rax,4), %edx
	movl	%edx, 1500532(%rbx)
	movb	$1, 1493292(%rbx)
	movb	%cl, 1493291(%rbx)
	movb	279880(%rbx,%rax), %al
	movb	%al, 1493288(%rbx)
	movb	$1, 1493289(%rbx)
	movb	%cl, 1493287(%rbx)
.LBB0_37:                               # %if.end401
	movb	1630(%rbx), %al
	orb	1591(%rbx), %al
	testb	$1, %al
	jne	.LBB0_39
# %bb.38:                               # %if.then437
	movzbl	1627(%rbx), %eax
	movb	277638(%rbx,%rax), %cl
	movb	%cl, 1492642(%rbx)
	movb	$1, 1492643(%rbx)
	movb	1586(%rbx), %cl
	movb	%cl, 1492641(%rbx)
	movl	277640(%rbx,%rax,4), %edx
	movl	%edx, 1500048(%rbx)
	movb	$1, 1492640(%rbx)
	movb	%cl, 1492639(%rbx)
	movb	277648(%rbx,%rax), %al
	movb	%al, 1492637(%rbx)
	movb	$1, 1492638(%rbx)
	movb	%cl, 1492636(%rbx)
.LBB0_39:                               # %if.end442
	movb	639(%rbx), %al
	orb	598(%rbx), %al
	testb	$1, %al
	jne	.LBB0_41
# %bb.40:                               # %if.then450
	movzbl	636(%rbx), %ecx
	movzwl	273784(%rbx,%rcx,2), %ecx
	movw	%cx, 1497840(%rbx)
	movb	$1, 1491443(%rbx)
	movb	593(%rbx), %cl
	movb	%cl, 1491442(%rbx)
.LBB0_41:                               # %if.end453
	testb	%sil, %sil
	je	.LBB0_43
# %bb.42:                               # %if.then456
	movb	33361(%rbx), %cl
	andb	$1, %cl
	movb	%cl, 30907(%rbx)
.LBB0_43:                               # %if.end460
	movabsq	$64424509440, %rbp      # imm = 0xF00000000
	movl	134168(%rbx), %ecx
	movl	134172(%rbx), %edx
	andl	$15, %edx
	shlq	$32, %rdx
	orq	%rcx, %rdx
	movq	%rdx, 241120(%rbx)
	testb	$1, %al
	jne	.LBB0_45
# %bb.44:                               # %if.then476
	movzbl	636(%rbx), %eax
	movq	273792(%rbx,%rax,8), %rax
	movq	%rax, 1503584(%rbx)
	movb	$1, 1491441(%rbx)
	movb	593(%rbx), %al
	movb	%al, 1491440(%rbx)
.LBB0_45:                               # %if.end481
	movl	133932(%rbx), %eax
	shlq	$32, %rax
	movl	133928(%rbx), %ecx
	andq	%rbp, %rax
	orq	%rcx, %rax
	movq	%rax, 241064(%rbx)
	movl	134004(%rbx), %eax
	shlq	$32, %rax
	movl	134000(%rbx), %ecx
	andq	%rbp, %rax
	orq	%rcx, %rax
	movq	%rax, 241072(%rbx)
	movl	134244(%rbx), %eax
	shlq	$32, %rax
	movl	134240(%rbx), %ecx
	andq	%rbp, %rax
	orq	%rcx, %rax
	movq	%rax, 241080(%rbx)
	movl	134436(%rbx), %eax
	shlq	$32, %rax
	movl	134432(%rbx), %ecx
	andq	%rbp, %rax
	orq	%rcx, %rax
	movq	%rax, 241088(%rbx)
	movl	133832(%rbx), %eax
	movl	133836(%rbx), %ecx
	shlq	$32, %rcx
	andq	%rbp, %rcx
	orq	%rax, %rcx
	movq	%rcx, 241096(%rbx)
	movl	133908(%rbx), %eax
	shlq	$32, %rax
	movl	133904(%rbx), %ecx
	andq	%rbp, %rax
	orq	%rcx, %rax
	movq	%rax, 241104(%rbx)
	movl	134072(%rbx), %eax
	movl	134076(%rbx), %ecx
	shlq	$32, %rcx
	andq	%rbp, %rcx
	orq	%rax, %rcx
	movq	%rcx, 241112(%rbx)
	andb	$1, %dil
	movb	%dil, 125(%rbx)
	cmpb	$0, 20874(%rbx)
	je	.LBB0_47
# %bb.46:                               # %if.then544
	movb	61549(%rbx), %al
	movb	61552(%rbx), %cl
	andb	20872(%rbx), %al
	andb	20873(%rbx), %cl
	orb	%al, %cl
	movb	%cl, 20804(%rbx)
.LBB0_47:                               # %if.end553
	cmpb	$0, 20871(%rbx)
	je	.LBB0_49
# %bb.48:                               # %if.then556
	movb	61549(%rbx), %al
	movb	61552(%rbx), %cl
	andb	20869(%rbx), %al
	andb	20870(%rbx), %cl
	orb	%al, %cl
	movb	%cl, 20783(%rbx)
.LBB0_49:                               # %if.end567
	cmpb	$0, 20868(%rbx)
	je	.LBB0_51
# %bb.50:                               # %if.then570
	movb	61549(%rbx), %al
	movb	61552(%rbx), %cl
	andb	20866(%rbx), %al
	andb	20867(%rbx), %cl
	orb	%al, %cl
	movb	%cl, 20762(%rbx)
.LBB0_51:                               # %if.end581
	cmpb	$0, 20865(%rbx)
	je	.LBB0_53
# %bb.52:                               # %if.then584
	movb	61549(%rbx), %al
	movb	61552(%rbx), %cl
	andb	20863(%rbx), %al
	andb	20864(%rbx), %cl
	orb	%al, %cl
	movb	%cl, 20741(%rbx)
.LBB0_53:                               # %if.end595
	cmpb	$0, 20862(%rbx)
	je	.LBB0_55
# %bb.54:                               # %if.then598
	movb	61549(%rbx), %al
	movb	61552(%rbx), %cl
	andb	20860(%rbx), %al
	andb	20861(%rbx), %cl
	orb	%al, %cl
	movb	%cl, 20720(%rbx)
.LBB0_55:                               # %if.end609
	cmpb	$0, 20859(%rbx)
	je	.LBB0_57
# %bb.56:                               # %if.then612
	movb	61549(%rbx), %al
	movb	61552(%rbx), %cl
	andb	20857(%rbx), %al
	andb	20858(%rbx), %cl
	orb	%al, %cl
	movb	%cl, 20699(%rbx)
.LBB0_57:                               # %if.end623
	cmpb	$0, 20856(%rbx)
	je	.LBB0_59
# %bb.58:                               # %if.then626
	movb	61549(%rbx), %al
	movb	61552(%rbx), %cl
	andb	20854(%rbx), %al
	andb	20855(%rbx), %cl
	orb	%al, %cl
	movb	%cl, 20678(%rbx)
.LBB0_59:                               # %if.end637
	cmpb	$0, 20850(%rbx)
	je	.LBB0_61
# %bb.60:                               # %if.then640
	movb	61549(%rbx), %al
	movb	61552(%rbx), %cl
	andb	20848(%rbx), %al
	andb	20849(%rbx), %cl
	orb	%al, %cl
	movb	%cl, 20636(%rbx)
.LBB0_61:                               # %if.end651
	cmpb	$0, 20847(%rbx)
	je	.LBB0_63
# %bb.62:                               # %if.then654
	movb	61549(%rbx), %al
	movb	61552(%rbx), %cl
	andb	20845(%rbx), %al
	andb	20846(%rbx), %cl
	orb	%al, %cl
	movb	%cl, 20615(%rbx)
.LBB0_63:                               # %if.end665
	cmpb	$0, 20835(%rbx)
	je	.LBB0_65
# %bb.64:                               # %if.then668
	movb	61549(%rbx), %al
	movb	61552(%rbx), %cl
	andb	20833(%rbx), %al
	andb	20834(%rbx), %cl
	orb	%al, %cl
	movb	%cl, 20531(%rbx)
.LBB0_65:                               # %if.end679
	cmpb	$0, 20829(%rbx)
	je	.LBB0_67
# %bb.66:                               # %if.then682
	movb	61549(%rbx), %al
	movb	61552(%rbx), %cl
	andb	20827(%rbx), %al
	andb	20828(%rbx), %cl
	orb	%al, %cl
	movb	%cl, 20489(%rbx)
.LBB0_67:                               # %if.end693
	cmpb	$0, 20841(%rbx)
	je	.LBB0_69
# %bb.68:                               # %if.then696
	movb	61549(%rbx), %al
	movb	61552(%rbx), %cl
	andb	20839(%rbx), %al
	andb	20840(%rbx), %cl
	orb	%al, %cl
	movb	%cl, 20573(%rbx)
.LBB0_69:                               # %if.end707
	cmpb	$0, 20838(%rbx)
	je	.LBB0_71
# %bb.70:                               # %if.then710
	movb	61549(%rbx), %al
	movb	61552(%rbx), %cl
	andb	20836(%rbx), %al
	andb	20837(%rbx), %cl
	orb	%al, %cl
	movb	%cl, 20552(%rbx)
.LBB0_71:                               # %if.end721
	cmpb	$0, 20844(%rbx)
	je	.LBB0_73
# %bb.72:                               # %if.then724
	movb	61549(%rbx), %al
	movb	61552(%rbx), %cl
	andb	20842(%rbx), %al
	andb	20843(%rbx), %cl
	orb	%al, %cl
	movb	%cl, 20594(%rbx)
.LBB0_73:                               # %if.end735
	cmpb	$0, 20832(%rbx)
	je	.LBB0_75
# %bb.74:                               # %if.then738
	movb	61549(%rbx), %al
	movb	61552(%rbx), %cl
	andb	20830(%rbx), %al
	andb	20831(%rbx), %cl
	orb	%al, %cl
	movb	%cl, 20510(%rbx)
.LBB0_75:                               # %if.end749
	cmpb	$0, 20853(%rbx)
	je	.LBB0_77
# %bb.76:                               # %if.then752
	movb	61549(%rbx), %al
	movb	61552(%rbx), %cl
	andb	20851(%rbx), %al
	andb	20852(%rbx), %cl
	orb	%al, %cl
	movb	%cl, 20657(%rbx)
.LBB0_77:                               # %if.end763
	movb	$-1, %al
	testb	%r8b, %r8b
	jne	.LBB0_80
# %bb.78:                               # %if.else767
	movb	69006(%rbx), %al
	notb	%al
	orb	317(%rbx), %al
	testb	$1, %al
	je	.LBB0_81
# %bb.79:                               # %if.then774
	movb	425(%rbx), %al
.LBB0_80:                               # %if.end777.sink.split
	movb	%al, 422(%rbx)
.LBB0_81:                               # %if.end777
	movzbl	615(%rbx), %ecx
	xorl	$1, %ecx
	movb	71105(%rbx), %al
	xorl	%edx, %edx
	cmpb	$3, %al
	sete	%dl
	testl	%ecx, %edx
	je	.LBB0_83
# %bb.82:                               # %if.then785
	movb	$1, 1491460(%rbx)
	movb	610(%rbx), %cl
	movb	%cl, 1491459(%rbx)
.LBB0_83:                               # %if.end786
	movl	632(%rbx), %ecx
	notl	%ecx
	xorl	%edi, %edi
	cmpb	$1, %al
	sete	%dil
	andl	%ecx, %edi
	je	.LBB0_85
# %bb.84:                               # %if.then795
	movb	$1, 1491475(%rbx)
	movb	627(%rbx), %al
	movb	%al, 1491474(%rbx)
.LBB0_85:                               # %if.end796
	testb	%r8b, %r8b
	je	.LBB0_86
# %bb.142:                              # %if.then1151
	movb	$0, 561(%rbx)
	movb	$0, 569(%rbx)
	movb	$0, 595(%rbx)
	movb	$0, 612(%rbx)
	movb	$0, 629(%rbx)
	movb	$0, 637(%rbx)
	movb	$0, 645(%rbx)
	movb	$0, 653(%rbx)
	movb	$0, 661(%rbx)
	movb	$0, 669(%rbx)
	movb	$0, 1564(%rbx)
	movb	$0, 1572(%rbx)
	movb	$0, 1580(%rbx)
	movb	$0, 1588(%rbx)
	movb	$0, 1596(%rbx)
	movb	$0, 1604(%rbx)
	movb	$0, 1612(%rbx)
	movb	$0, 1620(%rbx)
	movb	$0, 1628(%rbx)
	movb	$0, 1636(%rbx)
	movb	$0, 1774(%rbx)
	movb	$0, 1782(%rbx)
	movb	$0, 2137(%rbx)
	movb	$0, 2145(%rbx)
	movb	$0, 3769(%rbx)
	movb	$0, 3777(%rbx)
	movb	$0, 3785(%rbx)
	movb	$0, 3793(%rbx)
	movb	$0, 2085(%rbx)
	movb	$0, 2091(%rbx)
	movb	$0, 2098(%rbx)
	movb	$0, 2103(%rbx)
	movb	$0, 2110(%rbx)
	jmp	.LBB0_143
.LBB0_86:                               # %if.else800
	movb	565(%rbx), %al
	cmpb	566(%rbx), %al
	je	.LBB0_88
# %bb.87:                               # %if.then804
	movb	%al, 561(%rbx)
.LBB0_88:                               # %if.else812
	movb	573(%rbx), %al
	cmpb	574(%rbx), %al
	je	.LBB0_90
# %bb.89:                               # %if.then816
	movb	%al, 569(%rbx)
.LBB0_90:                               # %if.else824
	movb	599(%rbx), %al
	cmpb	600(%rbx), %al
	je	.LBB0_92
# %bb.91:                               # %if.then828
	movb	%al, 595(%rbx)
.LBB0_92:                               # %if.else836
	movb	616(%rbx), %al
	cmpb	617(%rbx), %al
	je	.LBB0_94
# %bb.93:                               # %if.then840
	movb	%al, 612(%rbx)
.LBB0_94:                               # %if.else848
	movb	633(%rbx), %al
	cmpb	634(%rbx), %al
	je	.LBB0_96
# %bb.95:                               # %if.then852
	movb	%al, 629(%rbx)
.LBB0_96:                               # %if.else860
	movb	641(%rbx), %al
	cmpb	642(%rbx), %al
	je	.LBB0_98
# %bb.97:                               # %if.then864
	movb	%al, 637(%rbx)
.LBB0_98:                               # %if.else872
	movb	649(%rbx), %al
	cmpb	650(%rbx), %al
	je	.LBB0_100
# %bb.99:                               # %if.then876
	movb	%al, 645(%rbx)
.LBB0_100:                              # %if.else884
	movb	657(%rbx), %al
	cmpb	658(%rbx), %al
	je	.LBB0_102
# %bb.101:                              # %if.then888
	movb	%al, 653(%rbx)
.LBB0_102:                              # %if.else896
	movb	665(%rbx), %al
	cmpb	666(%rbx), %al
	je	.LBB0_104
# %bb.103:                              # %if.then900
	movb	%al, 661(%rbx)
.LBB0_104:                              # %if.else908
	movb	673(%rbx), %al
	cmpb	674(%rbx), %al
	je	.LBB0_106
# %bb.105:                              # %if.then912
	movb	%al, 669(%rbx)
.LBB0_106:                              # %if.else920
	movb	1568(%rbx), %al
	cmpb	1569(%rbx), %al
	je	.LBB0_108
# %bb.107:                              # %if.then924
	movb	%al, 1564(%rbx)
.LBB0_108:                              # %if.else932
	movb	1576(%rbx), %al
	cmpb	1577(%rbx), %al
	je	.LBB0_110
# %bb.109:                              # %if.then936
	movb	%al, 1572(%rbx)
.LBB0_110:                              # %if.else944
	movb	1584(%rbx), %al
	cmpb	1585(%rbx), %al
	je	.LBB0_112
# %bb.111:                              # %if.then948
	movb	%al, 1580(%rbx)
.LBB0_112:                              # %if.else956
	movb	1592(%rbx), %al
	cmpb	1593(%rbx), %al
	je	.LBB0_114
# %bb.113:                              # %if.then960
	movb	%al, 1588(%rbx)
.LBB0_114:                              # %if.else968
	movb	1600(%rbx), %al
	cmpb	1601(%rbx), %al
	je	.LBB0_116
# %bb.115:                              # %if.then972
	movb	%al, 1596(%rbx)
.LBB0_116:                              # %if.else980
	movb	1608(%rbx), %al
	cmpb	1609(%rbx), %al
	je	.LBB0_118
# %bb.117:                              # %if.then984
	movb	%al, 1604(%rbx)
.LBB0_118:                              # %if.else992
	movb	1616(%rbx), %al
	cmpb	1617(%rbx), %al
	je	.LBB0_120
# %bb.119:                              # %if.then996
	movb	%al, 1612(%rbx)
.LBB0_120:                              # %if.else1004
	movb	1624(%rbx), %al
	cmpb	1625(%rbx), %al
	je	.LBB0_122
# %bb.121:                              # %if.then1008
	movb	%al, 1620(%rbx)
.LBB0_122:                              # %if.else1016
	movb	1632(%rbx), %al
	cmpb	1633(%rbx), %al
	je	.LBB0_124
# %bb.123:                              # %if.then1020
	movb	%al, 1628(%rbx)
.LBB0_124:                              # %if.else1028
	movb	1640(%rbx), %al
	cmpb	1641(%rbx), %al
	je	.LBB0_126
# %bb.125:                              # %if.then1032
	movb	%al, 1636(%rbx)
.LBB0_126:                              # %if.else1040
	movb	1778(%rbx), %al
	cmpb	1779(%rbx), %al
	je	.LBB0_128
# %bb.127:                              # %if.then1044
	movb	%al, 1774(%rbx)
.LBB0_128:                              # %if.else1052
	movb	1786(%rbx), %al
	cmpb	1787(%rbx), %al
	je	.LBB0_130
# %bb.129:                              # %if.then1056
	movb	%al, 1782(%rbx)
.LBB0_130:                              # %if.else1064
	movb	2141(%rbx), %al
	cmpb	2142(%rbx), %al
	je	.LBB0_132
# %bb.131:                              # %if.then1068
	movb	%al, 2137(%rbx)
.LBB0_132:                              # %if.else1076
	movb	2149(%rbx), %al
	cmpb	2150(%rbx), %al
	je	.LBB0_134
# %bb.133:                              # %if.then1080
	movb	%al, 2145(%rbx)
.LBB0_134:                              # %if.else1088
	movb	3773(%rbx), %al
	cmpb	3774(%rbx), %al
	je	.LBB0_136
# %bb.135:                              # %if.then1092
	movb	%al, 3769(%rbx)
.LBB0_136:                              # %if.else1100
	movb	3781(%rbx), %al
	cmpb	3782(%rbx), %al
	je	.LBB0_138
# %bb.137:                              # %if.then1104
	movb	%al, 3777(%rbx)
.LBB0_138:                              # %if.else1112
	movb	3789(%rbx), %al
	cmpb	3790(%rbx), %al
	je	.LBB0_140
# %bb.139:                              # %if.then1116
	movb	%al, 3785(%rbx)
.LBB0_140:                              # %if.else1124
	movb	3797(%rbx), %al
	cmpb	3798(%rbx), %al
	je	.LBB0_143
# %bb.141:                              # %if.then1128
	movb	%al, 3793(%rbx)
.LBB0_143:                              # %if.end1152
	testl	%edi, %edi
	je	.LBB0_145
# %bb.144:                              # %if.then1162
	movb	71113(%rbx), %al
	movb	%al, 1491472(%rbx)
	movb	$1, 1491473(%rbx)
	movb	627(%rbx), %al
	movb	%al, 1491471(%rbx)
.LBB0_145:                              # %if.end1164
	movb	556(%rbx), %r9b
	notb	%r9b
	andb	444(%rbx), %r9b
	je	.LBB0_147
# %bb.146:                              # %if.then1170
	leaq	77856(%rbx), %rax
	leaq	77864(%rbx), %rcx
	movb	532(%rbx), %dl
	movb	551(%rbx), %r11b
	cmpb	$1, %dl
	cmoveq	%rcx, %rax
	leaq	77872(%rbx), %rcx
	cmpb	$2, %dl
	cmovneq	%rax, %rcx
	leaq	77880(%rbx), %rax
	cmpb	$3, %dl
	cmovneq	%rcx, %rax
	movq	(%rax), %rax
	movq	%rax, 1503528(%rbx)
	movb	$1, 1491367(%rbx)
	movb	%r11b, 1491366(%rbx)
.LBB0_147:                              # %if.end1218
	testb	%r8b, %r8b
	je	.LBB0_148
# %bb.2632:                             # %if.then1233
	movb	$0, 292(%rbx)
	xorl	%eax, %eax
	jmp	.LBB0_151
.LBB0_148:                              # %if.else1222
	movb	296(%rbx), %al
	cmpb	297(%rbx), %al
	je	.LBB0_150
# %bb.149:                              # %if.then1226
	movb	%al, 292(%rbx)
.LBB0_150:                              # %if.else1234
	movb	2218(%rbx), %al
	cmpb	2219(%rbx), %al
	je	.LBB0_152
.LBB0_151:                              # %if.end1242.sink.split
	movb	%al, 2214(%rbx)
.LBB0_152:                              # %if.end1242
	testb	%sil, %sil
	je	.LBB0_154
# %bb.153:                              # %if.then1245
	movb	31161(%rbx), %al
	andb	$1, %al
	movb	%al, 30906(%rbx)
.LBB0_154:                              # %if.end1249
	testb	%r9b, %r9b
	je	.LBB0_155
# %bb.156:                              # %if.then1268
	movb	445(%rbx), %cl
	movb	447(%rbx), %al
	movb	%al, 1491369(%rbx)
	movb	$1, 1491370(%rbx)
	movb	551(%rbx), %dl
	movb	%dl, 1491368(%rbx)
	movq	241696(%rbx), %rax
	movb	%cl, 1491373(%rbx)
	movb	$1, 1491374(%rbx)
	movb	%dl, 1491372(%rbx)
	jmp	.LBB0_157
.LBB0_155:                              # %if.end1259.thread
	movq	241696(%rbx), %rax
.LBB0_157:                              # %if.end1270
	movabsq	$17179869183, %r10      # imm = 0x3FFFFFFFF
	andq	%r10, %rax
	movq	%rax, 240992(%rbx)
	testl	%edi, %edi
	je	.LBB0_159
# %bb.158:                              # %if.then1280
	movq	272784(%rbx), %rax
	movl	%eax, 1498608(%rbx)
	shrq	$32, %rax
	movl	%eax, 1498612(%rbx)
	movq	272792(%rbx), %rax
	movl	%eax, 1498616(%rbx)
	shrq	$32, %rax
	movl	%eax, 1498620(%rbx)
	movq	272800(%rbx), %rax
	movl	%eax, 1498624(%rbx)
	shrq	$32, %rax
	movl	%eax, 1498628(%rbx)
	movq	272808(%rbx), %rax
	movl	%eax, 1498632(%rbx)
	shrq	$32, %rax
	movl	%eax, 1498636(%rbx)
	movb	$1, 1491480(%rbx)
	movb	627(%rbx), %al
	movb	%al, 1491479(%rbx)
.LBB0_159:                              # %if.end1312
	cmpb	$0, 52378(%rbx)
	je	.LBB0_161
# %bb.160:                              # %if.then1706
	leaq	188300(%rbx), %r11
	leaq	188356(%rbx), %rdx
	leaq	189000(%rbx), %r8
	leaq	189056(%rbx), %rbp
	leaq	188348(%rbx), %rsi
	leaq	189048(%rbx), %r15
	leaq	188308(%rbx), %r14
	leaq	189008(%rbx), %r13
	leaq	188316(%rbx), %r12
	cmpb	$0, 52069(%rbx)
	cmovneq	%rdx, %rbp
	cmovneq	%rsi, %r15
	leaq	189016(%rbx), %rdx
	leaq	188324(%rbx), %rax
	cmovneq	%r11, %r8
	leaq	189024(%rbx), %rsi
	cmovneq	%r14, %r13
	leaq	188332(%rbx), %r11
	cmovneq	%r12, %rdx
	cmovneq	%rax, %rsi
	leaq	189032(%rbx), %rax
	leaq	188340(%rbx), %r14
	cmovneq	%r11, %rax
	leaq	189040(%rbx), %rcx
	cmovneq	%r14, %rcx
	leaq	187656(%rbx), %r11
	cmpb	$0, 52062(%rbx)
	cmovneq	%r11, %rbp
	leaq	187648(%rbx), %rdi
	cmovneq	%rdi, %r15
	leaq	187600(%rbx), %rdi
	cmovneq	%rdi, %r8
	leaq	187608(%rbx), %rdi
	cmovneq	%rdi, %r13
	leaq	187616(%rbx), %rdi
	cmovneq	%rdi, %rdx
	leaq	187624(%rbx), %rdi
	cmovneq	%rdi, %rsi
	leaq	187632(%rbx), %rdi
	cmovneq	%rdi, %rax
	leaq	187640(%rbx), %rdi
	cmoveq	%rcx, %rdi
	cmpb	$0, 52055(%rbx)
	leaq	186956(%rbx), %rcx
	cmovneq	%rcx, %rbp
	movq	(%rbp), %rcx
	movq	%rcx, 266392(%rbx)
	leaq	186948(%rbx), %rcx
	cmovneq	%rcx, %r15
	leaq	186900(%rbx), %rcx
	cmovneq	%rcx, %r8
	movq	(%r15), %rcx
	movq	%rcx, 266384(%rbx)
	movq	(%r8), %rcx
	movq	%rcx, 266336(%rbx)
	leaq	186908(%rbx), %rcx
	cmovneq	%rcx, %r13
	movq	(%r13), %rcx
	movabsq	$17179869183, %r10      # imm = 0x3FFFFFFFF
	movq	%rcx, 266344(%rbx)
	leaq	186916(%rbx), %rcx
	cmovneq	%rcx, %rdx
	movq	(%rdx), %rcx
	movq	%rcx, 266352(%rbx)
	leaq	186924(%rbx), %rcx
	cmovneq	%rcx, %rsi
	leaq	186932(%rbx), %rcx
	cmovneq	%rcx, %rax
	movq	(%rsi), %rcx
	movq	%rcx, 266360(%rbx)
	movq	(%rax), %rax
	movq	%rax, 266368(%rbx)
	leaq	186940(%rbx), %rax
	cmoveq	%rdi, %rax
	movq	(%rax), %rax
	movq	%rax, 266376(%rbx)
.LBB0_161:                              # %if.end1760
	cmpb	$0, 9799(%rbx)
	je	.LBB0_163
# %bb.162:                              # %if.then1765
	movb	9800(%rbx), %al
	movb	%al, 8819(%rbx)
.LBB0_163:                              # %if.end1767
	cmpb	$0, 9797(%rbx)
	je	.LBB0_165
# %bb.164:                              # %if.then1772
	movb	9798(%rbx), %al
	movb	%al, 8818(%rbx)
.LBB0_165:                              # %if.end1774
	cmpb	$0, 9795(%rbx)
	je	.LBB0_167
# %bb.166:                              # %if.then1779
	movb	9796(%rbx), %al
	movb	%al, 8817(%rbx)
.LBB0_167:                              # %if.end1781
	cmpb	$0, 9793(%rbx)
	je	.LBB0_169
# %bb.168:                              # %if.then1786
	movb	9794(%rbx), %al
	movb	%al, 8816(%rbx)
.LBB0_169:                              # %if.end1788
	cmpb	$0, 9791(%rbx)
	je	.LBB0_171
# %bb.170:                              # %if.then1793
	movb	9792(%rbx), %al
	movb	%al, 8815(%rbx)
.LBB0_171:                              # %if.end1795
	cmpb	$0, 9789(%rbx)
	je	.LBB0_173
# %bb.172:                              # %if.then1800
	movb	9790(%rbx), %al
	movb	%al, 8814(%rbx)
.LBB0_173:                              # %if.end1802
	cmpb	$0, 9787(%rbx)
	je	.LBB0_175
# %bb.174:                              # %if.then1807
	movb	9788(%rbx), %al
	movb	%al, 8813(%rbx)
.LBB0_175:                              # %if.end1809
	cmpb	$0, 9785(%rbx)
	je	.LBB0_177
# %bb.176:                              # %if.then1814
	movb	9786(%rbx), %al
	movb	%al, 8812(%rbx)
.LBB0_177:                              # %if.end1816
	cmpb	$0, 9783(%rbx)
	je	.LBB0_179
# %bb.178:                              # %if.then1821
	movb	9784(%rbx), %al
	movb	%al, 8811(%rbx)
.LBB0_179:                              # %if.end1823
	cmpb	$0, 9781(%rbx)
	je	.LBB0_181
# %bb.180:                              # %if.then1828
	movb	9782(%rbx), %al
	movb	%al, 8810(%rbx)
.LBB0_181:                              # %if.end1830
	cmpb	$0, 9779(%rbx)
	je	.LBB0_183
# %bb.182:                              # %if.then1835
	movb	9780(%rbx), %al
	movb	%al, 8809(%rbx)
.LBB0_183:                              # %if.end1837
	cmpb	$0, 9777(%rbx)
	je	.LBB0_185
# %bb.184:                              # %if.then1842
	movb	9778(%rbx), %al
	movb	%al, 8808(%rbx)
.LBB0_185:                              # %if.end1844
	cmpb	$0, 9775(%rbx)
	je	.LBB0_187
# %bb.186:                              # %if.then1849
	movb	9776(%rbx), %al
	movb	%al, 8807(%rbx)
.LBB0_187:                              # %if.end1851
	movb	70862(%rbx), %r8b
	orb	70913(%rbx), %r8b
	testb	$1, %r8b
	jne	.LBB0_189
# %bb.188:                              # %if.then1938
	movzbl	70859(%rbx), %eax
	movq	%rax, %rcx
	shlq	$5, %rcx
	movups	1009968(%rbx,%rcx), %xmm0
	movups	%xmm0, 1503312(%rbx)
	movups	1009984(%rbx,%rcx), %xmm0
	movups	%xmm0, 1503328(%rbx)
	movb	$1, 1497771(%rbx)
	movb	70908(%rbx), %cl
	movb	%cl, 1497770(%rbx)
	movb	1009940(%rbx,%rax), %dl
	movb	%dl, 1497773(%rbx)
	movb	$1, 1497774(%rbx)
	movb	%cl, 1497772(%rbx)
	movq	1009952(%rbx,%rax,8), %rax
	movq	%rax, 1505224(%rbx)
	movb	$1, 1497764(%rbx)
	movb	%cl, 1497763(%rbx)
.LBB0_189:                              # %if.end1943
	movb	70933(%rbx), %r14b
	testb	%r14b, %r14b
	je	.LBB0_190
# %bb.2633:                             # %if.then1970
	movb	$0, 577(%rbx)
	movb	$0, 1790(%rbx)
	xorl	%eax, %eax
	jmp	.LBB0_195
.LBB0_190:                              # %if.else1947
	movb	581(%rbx), %al
	cmpb	582(%rbx), %al
	je	.LBB0_192
# %bb.191:                              # %if.then1951
	movb	%al, 577(%rbx)
.LBB0_192:                              # %if.else1959
	movb	1794(%rbx), %al
	cmpb	1795(%rbx), %al
	je	.LBB0_194
# %bb.193:                              # %if.then1963
	movb	%al, 1790(%rbx)
.LBB0_194:                              # %if.else1971
	movb	3805(%rbx), %al
	cmpb	3806(%rbx), %al
	je	.LBB0_196
.LBB0_195:                              # %if.end1979.sink.split
	movb	%al, 3801(%rbx)
.LBB0_196:                              # %if.end1979
	testb	%r9b, %r9b
	je	.LBB0_198
# %bb.197:                              # %if.then1987
	movb	446(%rbx), %al
	movb	551(%rbx), %cl
	movb	%al, 1491376(%rbx)
	movb	$1, 1491377(%rbx)
	movb	%cl, 1491375(%rbx)
.LBB0_198:                              # %if.end1989
	movb	68356(%rbx), %r9b
	movb	68119(%rbx), %al
	orb	%r9b, %al
	movb	%al, 68094(%rbx)
	testb	%r14b, %r14b
	je	.LBB0_199
# %bb.2634:                             # %if.then2008
	movb	$0, 604(%rbx)
	xorl	%eax, %eax
	jmp	.LBB0_202
.LBB0_199:                              # %if.else1997
	movb	608(%rbx), %al
	cmpb	609(%rbx), %al
	je	.LBB0_201
# %bb.200:                              # %if.then2001
	movb	%al, 604(%rbx)
.LBB0_201:                              # %if.else2009
	movb	1683(%rbx), %al
	cmpb	1684(%rbx), %al
	je	.LBB0_203
.LBB0_202:                              # %if.end2017.sink.split
	movb	%al, 1679(%rbx)
.LBB0_203:                              # %if.end2017
	movb	647(%rbx), %r15b
	orb	607(%rbx), %r15b
	testb	$1, %r15b
	jne	.LBB0_205
# %bb.204:                              # %if.then2025
	movzbl	644(%rbx), %eax
	shlq	$5, %rax
	movl	273828(%rbx,%rax), %ecx
	movl	%ecx, 1498572(%rbx)
	movl	273832(%rbx,%rax), %ecx
	movl	%ecx, 1498576(%rbx)
	movl	273836(%rbx,%rax), %ecx
	movl	%ecx, 1498580(%rbx)
	movl	273840(%rbx,%rax), %ecx
	movl	%ecx, 1498584(%rbx)
	movl	273844(%rbx,%rax), %ecx
	movl	%ecx, 1498588(%rbx)
	movl	273848(%rbx,%rax), %ecx
	movl	%ecx, 1498592(%rbx)
	movl	273852(%rbx,%rax), %ecx
	movl	%ecx, 1498596(%rbx)
	movl	273856(%rbx,%rax), %eax
	movl	%eax, 1498600(%rbx)
	movb	$1, 1491451(%rbx)
	movb	602(%rbx), %al
	movb	%al, 1491450(%rbx)
.LBB0_205:                              # %if.end2079
	testb	%r14b, %r14b
	je	.LBB0_206
# %bb.2635:                             # %if.then2094
	movb	$0, 685(%rbx)
	xorl	%eax, %eax
	jmp	.LBB0_209
.LBB0_206:                              # %if.else2083
	movb	689(%rbx), %al
	cmpb	690(%rbx), %al
	je	.LBB0_208
# %bb.207:                              # %if.then2087
	movb	%al, 685(%rbx)
.LBB0_208:                              # %if.else2095
	movb	1656(%rbx), %al
	cmpb	1657(%rbx), %al
	je	.LBB0_210
.LBB0_209:                              # %if.end2103.sink.split
	movb	%al, 1652(%rbx)
.LBB0_210:                              # %if.end2103
	cmpb	$0, 22049(%rbx)
	je	.LBB0_212
# %bb.211:                              # %if.then2127
	movb	22047(%rbx), %al
	movb	22048(%rbx), %cl
	xorl	%edx, %edx
	testb	%al, %al
	movzbl	61550(%rbx), %edi
	cmovel	%edx, %edi
	testb	%cl, %cl
	movzbl	61553(%rbx), %ebp
	cmovel	%edx, %ebp
	orl	%edi, %ebp
	movb	%bpl, 21963(%rbx)
	andb	61549(%rbx), %al
	andb	61552(%rbx), %cl
	orb	%al, %cl
	movb	%cl, 21962(%rbx)
.LBB0_212:                              # %if.end2140
	movb	22061(%rbx), %al
	testb	%al, %al
	je	.LBB0_214
# %bb.213:                              # %if.then2143
	movb	61549(%rbx), %cl
	movb	61552(%rbx), %dl
	andb	22059(%rbx), %cl
	andb	22060(%rbx), %dl
	orb	%cl, %dl
	movb	%dl, 22014(%rbx)
.LBB0_214:                              # %if.end2154
	cmpb	$0, 22055(%rbx)
	je	.LBB0_216
# %bb.215:                              # %if.then2180
	movb	22053(%rbx), %cl
	movb	22054(%rbx), %dl
	xorl	%edi, %edi
	testb	%cl, %cl
	movzbl	61550(%rbx), %ebp
	cmovel	%edi, %ebp
	testb	%dl, %dl
	movzbl	61553(%rbx), %esi
	cmovel	%edi, %esi
	orl	%ebp, %esi
	movb	%sil, 21989(%rbx)
	andb	61549(%rbx), %cl
	andb	61552(%rbx), %dl
	orb	%cl, %dl
	movb	%dl, 21988(%rbx)
.LBB0_216:                              # %if.end2193
	testb	%al, %al
	je	.LBB0_218
# %bb.217:                              # %if.then2197
	xorl	%eax, %eax
	cmpb	$0, 22059(%rbx)
	movzbl	61550(%rbx), %ecx
	cmovel	%eax, %ecx
	cmpb	$0, 22060(%rbx)
	movzbl	61553(%rbx), %edx
	cmovel	%eax, %edx
	orl	%ecx, %edx
	movb	%dl, 22015(%rbx)
.LBB0_218:                              # %if.end2218
	cmpb	$0, 22058(%rbx)
	je	.LBB0_220
# %bb.219:                              # %if.then2236
	movb	22056(%rbx), %al
	movb	22057(%rbx), %sil
	movb	61549(%rbx), %dl
	andb	%al, %dl
	movb	61552(%rbx), %cl
	andb	%sil, %cl
	orb	%dl, %cl
	movb	%cl, 22001(%rbx)
	xorl	%ecx, %ecx
	testb	%al, %al
	movzbl	61550(%rbx), %eax
	cmovel	%ecx, %eax
	testb	%sil, %sil
	movzbl	61553(%rbx), %edx
	cmovel	%ecx, %edx
	orl	%eax, %edx
	movb	%dl, 22002(%rbx)
.LBB0_220:                              # %if.end2257
	cmpb	$0, 22046(%rbx)
	je	.LBB0_222
# %bb.221:                              # %if.then2275
	movb	22044(%rbx), %al
	movb	22045(%rbx), %sil
	movb	61549(%rbx), %dl
	andb	%al, %dl
	movb	61552(%rbx), %cl
	andb	%sil, %cl
	orb	%dl, %cl
	movb	%cl, 21949(%rbx)
	xorl	%ecx, %ecx
	testb	%al, %al
	movzbl	61550(%rbx), %eax
	cmovel	%ecx, %eax
	testb	%sil, %sil
	movzbl	61553(%rbx), %edx
	cmovel	%ecx, %edx
	orl	%eax, %edx
	movb	%dl, 21950(%rbx)
.LBB0_222:                              # %if.end2296
	cmpb	$0, 22052(%rbx)
	je	.LBB0_224
# %bb.223:                              # %if.then2314
	movb	22050(%rbx), %al
	movb	22051(%rbx), %sil
	movb	61549(%rbx), %dl
	andb	%al, %dl
	movb	61552(%rbx), %cl
	andb	%sil, %cl
	orb	%dl, %cl
	movb	%cl, 21975(%rbx)
	xorl	%ecx, %ecx
	testb	%al, %al
	movzbl	61550(%rbx), %eax
	cmovel	%ecx, %eax
	testb	%sil, %sil
	movzbl	61553(%rbx), %edx
	cmovel	%ecx, %edx
	orl	%eax, %edx
	movb	%dl, 21976(%rbx)
.LBB0_224:                              # %if.end2335
	cmpb	$0, 22064(%rbx)
	je	.LBB0_226
# %bb.225:                              # %if.then2353
	movb	22062(%rbx), %al
	movb	22063(%rbx), %sil
	movb	61549(%rbx), %dl
	andb	%al, %dl
	movb	61552(%rbx), %cl
	andb	%sil, %cl
	orb	%dl, %cl
	movb	%cl, 22027(%rbx)
	xorl	%ecx, %ecx
	testb	%al, %al
	movzbl	61550(%rbx), %eax
	cmovel	%ecx, %eax
	testb	%sil, %sil
	movzbl	61553(%rbx), %edx
	cmovel	%ecx, %edx
	orl	%eax, %edx
	movb	%dl, 22028(%rbx)
.LBB0_226:                              # %if.end2374
	cmpb	$0, 22067(%rbx)
	je	.LBB0_228
# %bb.227:                              # %if.then2392
	movb	22065(%rbx), %al
	movb	22066(%rbx), %sil
	movb	61549(%rbx), %dl
	andb	%al, %dl
	movb	61552(%rbx), %cl
	andb	%sil, %cl
	orb	%dl, %cl
	movb	%cl, 22040(%rbx)
	xorl	%ecx, %ecx
	testb	%al, %al
	movzbl	61550(%rbx), %eax
	cmovel	%ecx, %eax
	testb	%sil, %sil
	movzbl	61553(%rbx), %edx
	cmovel	%ecx, %edx
	orl	%eax, %edx
	movb	%dl, 22041(%rbx)
.LBB0_228:                              # %if.end2413
	movb	15470(%rbx), %al
	andb	10624(%rbx), %al
	movb	%al, 10760(%rbx)
	movb	17(%rbx), %r11b
	testb	%r11b, %r11b
	je	.LBB0_230
# %bb.229:
	xorl	%eax, %eax
	jmp	.LBB0_232
.LBB0_230:                              # %if.else2420
	cmpb	$0, 70914(%rbx)
	je	.LBB0_233
# %bb.231:                              # %if.then2422
	movb	70908(%rbx), %al
	notb	%al
	andb	$1, %al
.LBB0_232:                              # %if.end2429.sink.split
	movb	%al, 1497769(%rbx)
.LBB0_233:                              # %if.end2429
	testb	%r9b, %r9b
	je	.LBB0_235
# %bb.234:
	xorl	%eax, %eax
	jmp	.LBB0_236
.LBB0_235:                              # %cond.false2434
	movb	68108(%rbx), %al
	andb	$3, %al
.LBB0_236:                              # %cond.end2437
	movb	%al, 68091(%rbx)
	testb	$1, %r15b
	jne	.LBB0_238
# %bb.237:                              # %if.then2449
	movzbl	644(%rbx), %eax
	movl	273892(%rbx,%rax,4), %eax
	movl	%eax, 1498604(%rbx)
	movb	$1, 1491454(%rbx)
	movb	602(%rbx), %al
	movb	%al, 1491453(%rbx)
.LBB0_238:                              # %if.end2454
	testb	%r14b, %r14b
	je	.LBB0_239
# %bb.2636:                             # %if.then2469
	movb	$0, 2188(%rbx)
	xorl	%eax, %eax
	jmp	.LBB0_242
.LBB0_239:                              # %if.else2458
	movb	2192(%rbx), %al
	cmpb	2193(%rbx), %al
	je	.LBB0_241
# %bb.240:                              # %if.then2462
	movb	%al, 2188(%rbx)
.LBB0_241:                              # %if.else2470
	movb	2200(%rbx), %al
	cmpb	2201(%rbx), %al
	je	.LBB0_243
.LBB0_242:                              # %if.end2478.sink.split
	movb	%al, 2196(%rbx)
.LBB0_243:                              # %if.end2478
	movb	579(%rbx), %al
	orb	564(%rbx), %al
	testb	$1, %al
	jne	.LBB0_245
# %bb.244:                              # %if.then2559
	movzbl	576(%rbx), %eax
	movb	273482(%rbx,%rax), %cl
	movb	%cl, 1491394(%rbx)
	movb	$1, 1491395(%rbx)
	movb	559(%rbx), %cl
	movb	%cl, 1491393(%rbx)
	movb	273480(%rbx,%rax), %dl
	movb	%dl, 1491391(%rbx)
	movb	$1, 1491392(%rbx)
	movb	%cl, 1491390(%rbx)
	movq	273512(%rbx,%rax,8), %rdx
	movq	%rdx, 1503544(%rbx)
	movb	$1, 1491389(%rbx)
	movb	%cl, 1491388(%rbx)
	movb	273484(%rbx,%rax), %dl
	movb	%dl, 1491386(%rbx)
	movb	$1, 1491387(%rbx)
	movb	%cl, 1491385(%rbx)
	movq	273488(%rbx,%rax,8), %rdx
	movq	%rdx, 1503536(%rbx)
	movb	$1, 1491383(%rbx)
	movb	%cl, 1491382(%rbx)
	movb	273504(%rbx,%rax), %al
	movb	%al, 1491379(%rbx)
	movb	$1, 1491380(%rbx)
	movb	%cl, 1491378(%rbx)
.LBB0_245:                              # %if.end2564
	movb	1792(%rbx), %al
	orb	1777(%rbx), %al
	testb	$1, %al
	jne	.LBB0_247
# %bb.246:                              # %if.then2645
	movzbl	1789(%rbx), %eax
	movb	277978(%rbx,%rax), %cl
	movb	%cl, 1492834(%rbx)
	movb	$1, 1492835(%rbx)
	movb	1772(%rbx), %cl
	movb	%cl, 1492833(%rbx)
	movb	277976(%rbx,%rax), %dl
	movb	%dl, 1492831(%rbx)
	movb	$1, 1492832(%rbx)
	movb	%cl, 1492830(%rbx)
	movq	278000(%rbx,%rax,8), %rdx
	movq	%rdx, 1503752(%rbx)
	movb	$1, 1492829(%rbx)
	movb	%cl, 1492828(%rbx)
	movb	277984(%rbx,%rax), %dl
	movb	%dl, 1492826(%rbx)
	movb	$1, 1492827(%rbx)
	movb	%cl, 1492825(%rbx)
	movl	277988(%rbx,%rax,4), %edx
	movl	%edx, 1500076(%rbx)
	movb	$1, 1492823(%rbx)
	movb	%cl, 1492822(%rbx)
	movb	277996(%rbx,%rax), %al
	movb	%al, 1492819(%rbx)
	movb	$1, 1492820(%rbx)
	movb	%cl, 1492818(%rbx)
.LBB0_247:                              # %if.end2650
	movb	3803(%rbx), %al
	orb	3788(%rbx), %al
	testb	$1, %al
	jne	.LBB0_249
# %bb.248:                              # %if.then2731
	movzbl	3800(%rbx), %eax
	movb	279930(%rbx,%rax), %cl
	movb	%cl, 1493334(%rbx)
	movb	$1, 1493335(%rbx)
	movb	3783(%rbx), %cl
	movb	%cl, 1493333(%rbx)
	movb	279928(%rbx,%rax), %dl
	movb	%dl, 1493331(%rbx)
	movb	$1, 1493332(%rbx)
	movb	%cl, 1493330(%rbx)
	movq	279952(%rbx,%rax,8), %rdx
	movq	%rdx, 1503960(%rbx)
	movb	$1, 1493329(%rbx)
	movb	%cl, 1493328(%rbx)
	movb	279932(%rbx,%rax), %dl
	movb	%dl, 1493326(%rbx)
	movb	$1, 1493327(%rbx)
	movb	%cl, 1493325(%rbx)
	movl	279936(%rbx,%rax,4), %edx
	movl	%edx, 1500536(%rbx)
	movb	$1, 1493323(%rbx)
	movb	%cl, 1493322(%rbx)
	movb	279944(%rbx,%rax), %al
	movb	%al, 1493319(%rbx)
	movb	$1, 1493320(%rbx)
	movb	%cl, 1493318(%rbx)
.LBB0_249:                              # %if.end2736
	cmpb	$0, 15443(%rbx)
	je	.LBB0_251
# %bb.250:                              # %if.then2819
	movb	237600(%rbx), %dl
	shrb	%dl
	andb	$7, %dl
	leal	2(%rdx), %eax
	shrb	$3, %al
	movb	%al, 1495341(%rbx)
	movb	$1, 1495342(%rbx)
	movb	15444(%rbx), %al
	movb	%al, 1495340(%rbx)
	leal	5(%rdx), %ecx
	shrb	$3, %cl
	movb	%cl, 1495338(%rbx)
	movb	$1, 1495339(%rbx)
	movb	%al, 1495337(%rbx)
	leal	4(%rdx), %ecx
	shrb	$3, %cl
	movb	%cl, 1495335(%rbx)
	movb	$1, 1495336(%rbx)
	movb	%al, 1495334(%rbx)
	leal	3(%rdx), %ecx
	shrb	$3, %cl
	movb	%cl, 1495332(%rbx)
	movb	$1, 1495333(%rbx)
	movb	%al, 1495331(%rbx)
	leal	6(%rdx), %ecx
	shrb	$3, %cl
	movb	%cl, 1495329(%rbx)
	movb	$1, 1495330(%rbx)
	movb	%al, 1495328(%rbx)
	leal	7(%rdx), %ecx
	shrb	$3, %cl
	movb	%cl, 1495326(%rbx)
	movb	$1, 1495327(%rbx)
	movb	%al, 1495325(%rbx)
	movw	$256, 1495316(%rbx)     # imm = 0x100
	movb	%al, 1495315(%rbx)
	addb	$1, %dl
	shrb	$3, %dl
	movb	%dl, 1495313(%rbx)
	movb	$1, 1495314(%rbx)
	movb	%al, 1495312(%rbx)
.LBB0_251:                              # %if.end2829
	testb	%r14b, %r14b
	je	.LBB0_253
# %bb.252:
	xorl	%eax, %eax
	jmp	.LBB0_254
.LBB0_253:                              # %if.else2833
	movb	304(%rbx), %al
	cmpb	305(%rbx), %al
	je	.LBB0_255
.LBB0_254:                              # %if.end2841.sink.split
	movb	%al, 300(%rbx)
.LBB0_255:                              # %if.end2841
	testb	%r9b, %r9b
	je	.LBB0_257
# %bb.256:
	xorl	%eax, %eax
	jmp	.LBB0_258
.LBB0_257:                              # %if.else2845
	movb	68353(%rbx), %al
	cmpb	68354(%rbx), %al
	je	.LBB0_259
.LBB0_258:                              # %if.end2853.sink.split
	movb	%al, 68349(%rbx)
.LBB0_259:                              # %if.end2853
	testb	%r14b, %r14b
	je	.LBB0_261
# %bb.260:
	xorl	%eax, %eax
	jmp	.LBB0_262
.LBB0_261:                              # %if.else2857
	movb	2184(%rbx), %al
	cmpb	2185(%rbx), %al
	je	.LBB0_263
.LBB0_262:                              # %if.end2865.sink.split
	movb	%al, 2180(%rbx)
.LBB0_263:                              # %if.end2865
	movb	2173(%rbx), %al
	notb	%al
	andb	71(%rbx), %al
	je	.LBB0_265
# %bb.264:                              # %if.then2871
	movb	70897(%rbx), %cl
	movb	%cl, 1493063(%rbx)
	movb	$1, 1493064(%rbx)
	movb	2168(%rbx), %cl
	movb	%cl, 1493062(%rbx)
.LBB0_265:                              # %if.end2872
	testb	$1, %r15b
	jne	.LBB0_267
# %bb.266:                              # %if.then2882
	movzbl	644(%rbx), %ecx
	movb	273900(%rbx,%rcx), %cl
	movb	%cl, 1491448(%rbx)
	movb	$1, 1491449(%rbx)
	movb	602(%rbx), %cl
	movb	%cl, 1491447(%rbx)
.LBB0_267:                              # %if.end2887
	testb	%r14b, %r14b
	je	.LBB0_268
# %bb.2637:                             # %if.then2902
	movb	$0, 1661(%rbx)
	xorl	%ecx, %ecx
	jmp	.LBB0_271
.LBB0_268:                              # %if.else2891
	movb	1665(%rbx), %cl
	cmpb	1666(%rbx), %cl
	je	.LBB0_270
# %bb.269:                              # %if.then2895
	movb	%cl, 1661(%rbx)
.LBB0_270:                              # %if.else2903
	movb	2083(%rbx), %cl
	cmpb	2084(%rbx), %cl
	je	.LBB0_272
.LBB0_271:                              # %if.end2911.sink.split
	movb	%cl, 2079(%rbx)
.LBB0_272:                              # %if.end2911
	testb	%al, %al
	je	.LBB0_274
# %bb.273:                              # %if.then2979
	movups	230040(%rbx), %xmm0
	movups	%xmm0, 1500192(%rbx)
	movups	230056(%rbx), %xmm0
	movups	%xmm0, 1500208(%rbx)
	movb	$1, 1493072(%rbx)
	movb	2168(%rbx), %al
	movb	%al, 1493071(%rbx)
	movb	70898(%rbx), %cl
	movb	%cl, 1493060(%rbx)
	movb	$1, 1493061(%rbx)
	movb	%al, 1493059(%rbx)
	movb	70894(%rbx), %cl
	movb	%cl, 1493056(%rbx)
	movb	$1, 1493057(%rbx)
	movb	%al, 1493055(%rbx)
	movb	70895(%rbx), %cl
	movb	%cl, 1493050(%rbx)
	movb	$1, 1493051(%rbx)
	movb	%al, 1493049(%rbx)
.LBB0_274:                              # %if.end2981
	testb	%r14b, %r14b
	je	.LBB0_275
# %bb.2638:                             # %if.then3012
	movw	$0, 1492963(%rbx)
	xorl	%eax, %eax
	jmp	.LBB0_281
.LBB0_275:                              # %if.else2985
	cmpb	$0, 2102(%rbx)
	je	.LBB0_277
# %bb.276:                              # %if.then2988
	movb	2097(%rbx), %al
	notb	%al
	andb	$1, %al
	movb	%al, 1492964(%rbx)
.LBB0_277:                              # %if.else2999
	cmpb	$0, 2096(%rbx)
	je	.LBB0_279
# %bb.278:                              # %if.then3002
	movb	2092(%rbx), %al
	notb	%al
	andb	$1, %al
	movb	%al, 1492963(%rbx)
.LBB0_279:                              # %if.else3013
	cmpb	$0, 2114(%rbx)
	je	.LBB0_282
# %bb.280:                              # %if.then3016
	movb	2109(%rbx), %al
	notb	%al
	andb	$1, %al
.LBB0_281:                              # %if.end3023.sink.split
	movb	%al, 1492966(%rbx)
.LBB0_282:                              # %if.end3023
	movb	1769(%rbx), %al
	notb	%al
	testb	%al, 93(%rbx)
	je	.LBB0_284
# %bb.283:                              # %if.then3029
	cmpb	$0, 1732(%rbx)
	setne	1492813(%rbx)
	movb	$1, 1492814(%rbx)
	movb	1764(%rbx), %al
	movb	%al, 1492812(%rbx)
.LBB0_284:                              # %if.end3034
	testb	%r14b, %r14b
	je	.LBB0_285
# %bb.2639:                             # %if.then3051
	movb	$0, 1492962(%rbx)
	xorl	%eax, %eax
	jmp	.LBB0_289
.LBB0_285:                              # %if.else3038
	cmpb	$0, 2090(%rbx)
	je	.LBB0_287
# %bb.286:                              # %if.then3041
	movb	2086(%rbx), %al
	notb	%al
	andb	$1, %al
	movb	%al, 1492962(%rbx)
.LBB0_287:                              # %if.else3052
	cmpb	$0, 2108(%rbx)
	je	.LBB0_290
# %bb.288:                              # %if.then3055
	movb	2104(%rbx), %al
	notb	%al
	andb	$1, %al
.LBB0_289:                              # %if.end3062.sink.split
	movb	%al, 1492965(%rbx)
.LBB0_290:                              # %if.end3062
	testb	%r9b, %r9b
	je	.LBB0_291
# %bb.2640:                             # %if.then3101
	movb	$0, 68143(%rbx)
	movb	$0, 68180(%rbx)
	movb	$0, 68152(%rbx)
	xorl	%eax, %eax
	jmp	.LBB0_298
.LBB0_291:                              # %if.else3066
	movb	68147(%rbx), %al
	cmpb	68148(%rbx), %al
	je	.LBB0_293
# %bb.292:                              # %if.then3070
	movb	%al, 68143(%rbx)
.LBB0_293:                              # %if.else3078
	movb	68184(%rbx), %al
	cmpb	68185(%rbx), %al
	je	.LBB0_295
# %bb.294:                              # %if.then3082
	movb	%al, 68180(%rbx)
.LBB0_295:                              # %if.else3090
	movb	68156(%rbx), %al
	cmpb	68157(%rbx), %al
	je	.LBB0_297
# %bb.296:                              # %if.then3094
	movb	%al, 68152(%rbx)
.LBB0_297:                              # %if.else3102
	movb	68193(%rbx), %al
	cmpb	68194(%rbx), %al
	je	.LBB0_299
.LBB0_298:                              # %if.end3110.sink.split
	movb	%al, 68189(%rbx)
.LBB0_299:                              # %if.end3110
	movb	68117(%rbx), %al
	orb	%r9b, %al
	movb	%al, 68092(%rbx)
	movb	2183(%rbx), %al
	notb	%al
	testb	%al, 70(%rbx)
	je	.LBB0_301
# %bb.300:                              # %if.then3121
	movb	70907(%rbx), %al
	andb	$63, %al
	movb	%al, 1493081(%rbx)
	movb	$1, 1493082(%rbx)
	movb	2178(%rbx), %al
	movb	%al, 1493080(%rbx)
.LBB0_301:                              # %if.end3125
	movb	1638(%rbx), %al
	orb	1682(%rbx), %al
	testb	$1, %al
	jne	.LBB0_303
# %bb.302:                              # %if.then3133
	movzbl	1635(%rbx), %eax
	movq	277664(%rbx,%rax,8), %rax
	movq	%rax, 1503712(%rbx)
	movb	$1, 1492739(%rbx)
	movb	1677(%rbx), %al
	movb	%al, 1492738(%rbx)
.LBB0_303:                              # %if.end3136
	testb	%r14b, %r14b
	je	.LBB0_305
# %bb.304:
	xorl	%eax, %eax
	jmp	.LBB0_306
.LBB0_305:                              # %if.else3140
	movb	2174(%rbx), %al
	cmpb	2175(%rbx), %al
	jne	.LBB0_306
# %bb.307:                              # %if.end3148
	testb	$1, %r8b
	je	.LBB0_308
.LBB0_309:                              # %if.end3163
	testb	%r14b, %r14b
	je	.LBB0_311
.LBB0_310:
	xorl	%eax, %eax
	jmp	.LBB0_312
.LBB0_306:                              # %if.end3148.sink.split
	movb	%al, 2170(%rbx)
	testb	$1, %r8b
	jne	.LBB0_309
.LBB0_308:                              # %if.then3158
	movzbl	70859(%rbx), %eax
	movb	1009944(%rbx,%rax), %al
	movb	%al, 1497767(%rbx)
	movb	$1, 1497768(%rbx)
	movb	70908(%rbx), %al
	movb	%al, 1497766(%rbx)
	testb	%r14b, %r14b
	jne	.LBB0_310
.LBB0_311:                              # %if.else3167
	movb	557(%rbx), %al
	cmpb	558(%rbx), %al
	je	.LBB0_313
.LBB0_312:                              # %if.end3175.sink.split
	movb	%al, 553(%rbx)
.LBB0_313:                              # %if.end3175
	movb	3685(%rbx), %r8b
	notb	%r8b
	andb	61(%rbx), %r8b
	je	.LBB0_318
# %bb.314:                              # %if.then3181
	movb	243(%rbx), %dl
	testb	%dl, %dl
	je	.LBB0_316
# %bb.315:                              # %if.then3183
	movl	84972(%rbx), %eax
	movl	%eax, 1500496(%rbx)
	leaq	84976(%rbx), %r12
	leaq	84980(%rbx), %r13
	leaq	84984(%rbx), %rdi
	leaq	84988(%rbx), %rcx
	leaq	84992(%rbx), %rax
	leaq	84996(%rbx), %rsi
	leaq	85000(%rbx), %rbp
	jmp	.LBB0_317
.LBB0_316:                              # %if.else3214
	movl	_ZN7VSimTop12__Vconst1667E(%rip), %eax
	movl	%eax, 1500496(%rbx)
	movl	$_ZN7VSimTop12__Vconst1667E+28, %ebp
	movl	$_ZN7VSimTop12__Vconst1667E+24, %esi
	movl	$_ZN7VSimTop12__Vconst1667E+20, %eax
	movl	$_ZN7VSimTop12__Vconst1667E+16, %ecx
	movl	$_ZN7VSimTop12__Vconst1667E+12, %edi
	movl	$_ZN7VSimTop12__Vconst1667E+8, %r13d
	movl	$_ZN7VSimTop12__Vconst1667E+4, %r12d
.LBB0_317:                              # %if.then3248
	movl	(%rbp), %r15d
	movl	(%rsi), %r10d
	movl	(%rax), %eax
	movl	(%rcx), %ecx
	movl	(%rdi), %edi
	movl	(%r13), %ebp
	movl	(%r12), %esi
	movl	%esi, 1500500(%rbx)
	movl	%ebp, 1500504(%rbx)
	movl	%edi, 1500508(%rbx)
	movl	%ecx, 1500512(%rbx)
	movl	%eax, 1500516(%rbx)
	movl	%r10d, 1500520(%rbx)
	movl	%r15d, 1500524(%rbx)
	movb	$1, 1493245(%rbx)
	movb	3680(%rbx), %al
	movb	%al, 1493244(%rbx)
	andb	2231(%rbx), %dl
	orb	242(%rbx), %dl
	movb	%dl, 1493241(%rbx)
	movb	$1, 1493242(%rbx)
	movb	%al, 1493240(%rbx)
	movabsq	$17179869183, %r10      # imm = 0x3FFFFFFFF
.LBB0_318:                              # %if.end3257
	testb	%r14b, %r14b
	je	.LBB0_319
# %bb.2641:                             # %if.then3272
	movb	$0, 1538(%rbx)
	xorl	%eax, %eax
	jmp	.LBB0_322
.LBB0_319:                              # %if.else3261
	movb	1542(%rbx), %al
	cmpb	1543(%rbx), %al
	je	.LBB0_321
# %bb.320:                              # %if.then3265
	movb	%al, 1538(%rbx)
.LBB0_321:                              # %if.else3273
	movb	1770(%rbx), %al
	cmpb	1771(%rbx), %al
	je	.LBB0_323
.LBB0_322:                              # %if.end3281.sink.split
	movb	%al, 1766(%rbx)
.LBB0_323:                              # %if.end3281
	testb	%r11b, %r11b
	je	.LBB0_325
# %bb.324:
	xorl	%eax, %eax
	jmp	.LBB0_327
.LBB0_325:                              # %if.else3285
	cmpb	$0, 70915(%rbx)
	je	.LBB0_328
# %bb.326:                              # %if.then3287
	movb	70909(%rbx), %al
	notb	%al
	andb	$1, %al
.LBB0_327:                              # %if.end3294.sink.split
	movb	%al, 1497765(%rbx)
.LBB0_328:                              # %if.end3294
	movb	68118(%rbx), %al
	orb	%r9b, %al
	movb	%al, 68093(%rbx)
	movb	1559(%rbx), %al
	notb	%al
	testb	%al, 70935(%rbx)
	je	.LBB0_330
# %bb.329:                              # %if.then3305
	movb	70962(%rbx), %al
	andb	71045(%rbx), %al
	movb	70985(%rbx), %cl
	andb	71048(%rbx), %cl
	orb	%al, %cl
	movb	70998(%rbx), %al
	andb	71051(%rbx), %al
	movb	70948(%rbx), %dl
	andb	71054(%rbx), %dl
	orb	%al, %dl
	orb	%cl, %dl
	movb	71012(%rbx), %al
	andb	71057(%rbx), %al
	movb	71027(%rbx), %cl
	andb	71060(%rbx), %cl
	orb	%al, %cl
	orb	%dl, %cl
	movb	%cl, 1492606(%rbx)
	movb	$1, 1492607(%rbx)
	movb	1554(%rbx), %al
	movb	%al, 1492605(%rbx)
.LBB0_330:                              # %if.end3330
	movb	687(%rbx), %al
	orb	648(%rbx), %al
	testb	$1, %al
	jne	.LBB0_332
# %bb.331:                              # %if.then3417
	movzbl	684(%rbx), %eax
	movl	274120(%rbx,%rax,4), %ecx
	movl	%ecx, 1498672(%rbx)
	movb	$1, 1491495(%rbx)
	movb	643(%rbx), %cl
	movb	%cl, 1491494(%rbx)
	movq	%rax, %rdx
	shlq	$5, %rdx
	movl	274056(%rbx,%rdx), %esi
	movl	%esi, 1498640(%rbx)
	movl	274060(%rbx,%rdx), %esi
	movl	%esi, 1498644(%rbx)
	movl	274064(%rbx,%rdx), %esi
	movl	%esi, 1498648(%rbx)
	movl	274068(%rbx,%rdx), %esi
	movl	%esi, 1498652(%rbx)
	movl	274072(%rbx,%rdx), %esi
	movl	%esi, 1498656(%rbx)
	movl	274076(%rbx,%rdx), %esi
	movl	%esi, 1498660(%rbx)
	movl	274080(%rbx,%rdx), %esi
	movl	%esi, 1498664(%rbx)
	movl	274084(%rbx,%rdx), %edx
	movl	%edx, 1498668(%rbx)
	movb	$1, 1491492(%rbx)
	movb	%cl, 1491491(%rbx)
	movb	274128(%rbx,%rax), %al
	movb	%al, 1491489(%rbx)
	movb	$1, 1491490(%rbx)
	movb	%cl, 1491488(%rbx)
.LBB0_332:                              # %if.end3422
	movb	1654(%rbx), %al
	orb	1615(%rbx), %al
	testb	$1, %al
	jne	.LBB0_334
# %bb.333:                              # %if.then3458
	movzbl	1651(%rbx), %eax
	movb	277728(%rbx,%rax), %cl
	movb	%cl, 1492671(%rbx)
	movb	$1, 1492672(%rbx)
	movb	1610(%rbx), %cl
	movb	%cl, 1492670(%rbx)
	movq	277712(%rbx,%rax,8), %rdx
	movq	%rdx, 1503688(%rbx)
	movb	$1, 1492668(%rbx)
	movb	%cl, 1492667(%rbx)
	movb	277736(%rbx,%rax), %al
	movb	%al, 1492665(%rbx)
	movb	$1, 1492666(%rbx)
	movb	%cl, 1492664(%rbx)
.LBB0_334:                              # %if.end3463
	testb	%r9b, %r9b
	je	.LBB0_336
# %bb.335:
	xorl	%eax, %eax
	jmp	.LBB0_337
.LBB0_336:                              # %if.else3467
	movb	68317(%rbx), %al
	cmpb	68318(%rbx), %al
	je	.LBB0_338
.LBB0_337:                              # %if.end3475.sink.split
	movb	%al, 68313(%rbx)
.LBB0_338:                              # %if.end3475
	movzbl	68183(%rbx), %eax
	xorl	$1, %eax
	xorl	%ecx, %ecx
	cmpb	$1, 52968(%rbx)
	sete	%cl
	testl	%eax, %ecx
	je	.LBB0_340
# %bb.339:                              # %if.then3483
	movb	$1, 1497128(%rbx)
	movb	68178(%rbx), %al
	movb	%al, 1497127(%rbx)
.LBB0_340:                              # %if.end3484
	testb	%r11b, %r11b
	je	.LBB0_341
# %bb.2642:                             # %if.then3500
	movb	$0, 1497732(%rbx)
	xorl	%eax, %eax
	jmp	.LBB0_345
.LBB0_341:                              # %if.else3488
	cmpb	$0, 70892(%rbx)
	je	.LBB0_343
# %bb.342:                              # %if.then3490
	movb	70886(%rbx), %al
	notb	%al
	andb	$1, %al
	movb	%al, 1497732(%rbx)
.LBB0_343:                              # %if.else3501
	cmpb	$0, 70893(%rbx)
	je	.LBB0_346
# %bb.344:                              # %if.then3503
	movb	70887(%rbx), %al
	notb	%al
	andb	$1, %al
.LBB0_345:                              # %if.end3510.sink.split
	movb	%al, 1497718(%rbx)
.LBB0_346:                              # %if.end3510
	testb	%r9b, %r9b
	je	.LBB0_347
# %bb.2643:                             # %if.then3537
	movb	$0, 68135(%rbx)
	movb	$0, 68172(%rbx)
	movb	3946(%rbx), %al
	movb	%al, 10484(%rbx)
	xorl	%eax, %eax
	movabsq	$64424509440, %rdx      # imm = 0xF00000000
	jmp	.LBB0_352
.LBB0_347:                              # %if.else3514
	movb	68139(%rbx), %al
	cmpb	68140(%rbx), %al
	je	.LBB0_349
# %bb.348:                              # %if.then3518
	movb	%al, 68135(%rbx)
.LBB0_349:                              # %if.else3526
	movb	68176(%rbx), %al
	cmpb	68177(%rbx), %al
	movabsq	$64424509440, %rdx      # imm = 0xF00000000
	je	.LBB0_351
# %bb.350:                              # %if.then3530
	movb	%al, 68172(%rbx)
.LBB0_351:                              # %if.else3538
	movb	3946(%rbx), %al
	movb	%al, 10484(%rbx)
	movb	68220(%rbx), %al
	cmpb	68221(%rbx), %al
	je	.LBB0_353
.LBB0_352:                              # %if.end3546.sink.split
	movb	%al, 68216(%rbx)
.LBB0_353:                              # %if.end3546
	testb	%r14b, %r14b
	je	.LBB0_355
# %bb.354:
	xorl	%eax, %eax
	jmp	.LBB0_356
.LBB0_355:                              # %if.else3550
	movb	1560(%rbx), %al
	cmpb	1561(%rbx), %al
	je	.LBB0_357
.LBB0_356:                              # %if.end3558.sink.split
	movb	%al, 1556(%rbx)
.LBB0_357:                              # %if.end3558
	testb	%r8b, %r8b
	je	.LBB0_359
# %bb.358:                              # %if.then3566
	movb	1811(%rbx), %al
	andb	242(%rbx), %al
	movb	2232(%rbx), %cl
	andb	243(%rbx), %cl
	orb	%al, %cl
	movb	%cl, 1493238(%rbx)
	movb	$1, 1493239(%rbx)
	movb	3680(%rbx), %al
	movb	%al, 1493237(%rbx)
.LBB0_359:                              # %if.end3578
	movq	241512(%rbx), %rax
	andq	%r10, %rax
	movq	%rax, 241264(%rbx)
	movl	134292(%rbx), %eax
	shlq	$32, %rax
	movl	134288(%rbx), %ecx
	andq	%rdx, %rax
	orq	%rcx, %rax
	movq	%rax, 241320(%rbx)
	movl	134100(%rbx), %eax
	shlq	$32, %rax
	movl	134096(%rbx), %ecx
	andq	%rdx, %rax
	orq	%rcx, %rax
	movq	%rax, 241312(%rbx)
	movl	134024(%rbx), %eax
	movl	134028(%rbx), %ecx
	shlq	$32, %rcx
	andq	%rdx, %rcx
	orq	%rax, %rcx
	movq	%rcx, 241304(%rbx)
	movl	134364(%rbx), %eax
	shlq	$32, %rax
	movl	134360(%rbx), %ecx
	andq	%rdx, %rax
	orq	%rcx, %rax
	movq	%rax, 241288(%rbx)
	movl	134148(%rbx), %eax
	shlq	$32, %rax
	movl	134144(%rbx), %ecx
	andq	%rdx, %rax
	orq	%rcx, %rax
	movq	%rax, 241280(%rbx)
	callq	_Z9vl_rand64v
	movl	%eax, 264(%rsp)
	callq	_Z9vl_rand64v
	movl	%eax, 268(%rsp)
	callq	_Z9vl_rand64v
	movl	%eax, 272(%rsp)
	callq	_Z9vl_rand64v
	movl	%eax, 276(%rsp)
	callq	_Z9vl_rand64v
	movl	%eax, 280(%rsp)
	callq	_Z9vl_rand64v
	movl	%eax, 284(%rsp)
	callq	_Z9vl_rand64v
	movl	%eax, 288(%rsp)
	callq	_Z9vl_rand64v
	movl	%eax, 292(%rsp)
	callq	_Z9vl_rand64v
	movl	%eax, 296(%rsp)
	callq	_Z9vl_rand64v
	movl	%eax, 300(%rsp)
	callq	_Z9vl_rand64v
	movl	%eax, 304(%rsp)
	callq	_Z9vl_rand64v
	movl	%eax, 308(%rsp)
	callq	_Z9vl_rand64v
	movl	%eax, 312(%rsp)
	callq	_Z9vl_rand64v
	movl	%eax, 316(%rsp)
	callq	_Z9vl_rand64v
	movl	%eax, 320(%rsp)
	callq	_Z9vl_rand64v
	movl	%eax, 324(%rsp)
	callq	_Z9vl_rand64v
	movl	%eax, 328(%rsp)
	callq	_Z9vl_rand64v
	movl	%eax, 332(%rsp)
	callq	_Z9vl_rand64v
	movl	%eax, 336(%rsp)
	callq	_Z9vl_rand64v
	movl	%eax, 340(%rsp)
	callq	_Z9vl_rand64v
	movl	%eax, 344(%rsp)
	callq	_Z9vl_rand64v
	movl	%eax, 348(%rsp)
	callq	_Z9vl_rand64v
	movl	%eax, 352(%rsp)
	callq	_Z9vl_rand64v
	movl	%eax, 356(%rsp)
	callq	_Z9vl_rand64v
	movl	%eax, 360(%rsp)
	callq	_Z9vl_rand64v
	movl	%eax, 364(%rsp)
	callq	_Z9vl_rand64v
	movl	%eax, 368(%rsp)
	callq	_Z9vl_rand64v
	movl	%eax, 372(%rsp)
	callq	_Z9vl_rand64v
	movl	%eax, 376(%rsp)
	callq	_Z9vl_rand64v
	movl	%eax, 380(%rsp)
	callq	_Z9vl_rand64v
	movl	%eax, 384(%rsp)
	callq	_Z9vl_rand64v
	movl	%eax, 388(%rsp)
	callq	_Z9vl_rand64v
	movl	%eax, 392(%rsp)
	callq	_Z9vl_rand64v
	movl	%eax, 396(%rsp)
	callq	_Z9vl_rand64v
	movl	%eax, 400(%rsp)
	callq	_Z9vl_rand64v
	movl	%eax, 404(%rsp)
	callq	_Z9vl_rand64v
	movl	%eax, 408(%rsp)
	callq	_Z9vl_rand64v
	movl	%eax, 412(%rsp)
	callq	_Z9vl_rand64v
	movl	%eax, 416(%rsp)
	callq	_Z9vl_rand64v
	movl	%eax, 420(%rsp)
	callq	_Z9vl_rand64v
	movl	%eax, 424(%rsp)
	callq	_Z9vl_rand64v
	movl	%eax, 428(%rsp)
	callq	_Z9vl_rand64v
	movl	%eax, 432(%rsp)
	callq	_Z9vl_rand64v
	movl	%eax, 436(%rsp)
	callq	_Z9vl_rand64v
	movl	%eax, 440(%rsp)
	callq	_Z9vl_rand64v
	movl	%eax, 444(%rsp)
	callq	_Z9vl_rand64v
	movl	%eax, 448(%rsp)
	callq	_Z9vl_rand64v
	movl	%eax, 452(%rsp)
	callq	_Z9vl_rand64v
	movl	%eax, 456(%rsp)
	callq	_Z9vl_rand64v
	movl	%eax, 460(%rsp)
	callq	_Z9vl_rand64v
	movl	%eax, 464(%rsp)
	callq	_Z9vl_rand64v
	movl	%eax, 468(%rsp)
	callq	_Z9vl_rand64v
	movl	%eax, 472(%rsp)
	callq	_Z9vl_rand64v
	movl	%eax, 476(%rsp)
	callq	_Z9vl_rand64v
	movl	%eax, 480(%rsp)
	callq	_Z9vl_rand64v
	movl	%eax, 484(%rsp)
	callq	_Z9vl_rand64v
	movl	%eax, 488(%rsp)
	callq	_Z9vl_rand64v
	movl	%eax, 492(%rsp)
	callq	_Z9vl_rand64v
	movl	%eax, 496(%rsp)
	callq	_Z9vl_rand64v
	movl	%eax, 500(%rsp)
	callq	_Z9vl_rand64v
	movl	%eax, 504(%rsp)
	callq	_Z9vl_rand64v
	movl	%eax, 508(%rsp)
	callq	_Z9vl_rand64v
	callq	_Z9vl_rand64v
	movl	%eax, 512(%rsp)
	callq	_Z9vl_rand64v
	movq	%rax, %r14
	callq	_Z9vl_rand64v
	movl	%r14d, 516(%rsp)
	callq	_Z9vl_rand64v
	movl	%eax, 784(%rsp)
	leaq	788(%rsp), %rdi
	leaq	264(%rsp), %rsi
	movl	$252, %edx
	callq	memcpy
	movl	%r14d, 1040(%rsp)
	callq	_Z9vl_rand64v
	movl	%eax, 1312(%rsp)
	leaq	1316(%rsp), %rdi
	leaq	784(%rsp), %rsi
	movl	$256, %edx              # imm = 0x100
	callq	memcpy
	movl	%r14d, 1572(%rsp)
	callq	_Z9vl_rand64v
	movl	%eax, 1848(%rsp)
	leaq	1852(%rsp), %rdi
	leaq	1312(%rsp), %rsi
	movl	$260, %edx              # imm = 0x104
	callq	memcpy
	movl	%r14d, 2112(%rsp)
	callq	_Z9vl_rand64v
	movl	%eax, 2392(%rsp)
	leaq	2396(%rsp), %rdi
	leaq	1848(%rsp), %rsi
	movl	$264, %edx              # imm = 0x108
	callq	memcpy
	movl	%r14d, 2660(%rsp)
	callq	_Z9vl_rand64v
	movl	%eax, 2944(%rsp)
	leaq	2948(%rsp), %rdi
	leaq	2392(%rsp), %rsi
	movl	$268, %edx              # imm = 0x10C
	callq	memcpy
	movl	%r14d, 3216(%rsp)
	callq	_Z9vl_rand64v
	movl	%eax, 3504(%rsp)
	leaq	3508(%rsp), %rdi
	leaq	2944(%rsp), %rsi
	movl	$272, %edx              # imm = 0x110
	callq	memcpy
	movl	%r14d, 3780(%rsp)
	callq	_Z9vl_rand64v
	movl	%eax, 4072(%rsp)
	leaq	4076(%rsp), %rdi
	leaq	3504(%rsp), %rsi
	movl	$276, %edx              # imm = 0x114
	callq	memcpy
	movl	%r14d, 4352(%rsp)
	callq	_Z9vl_rand64v
	movl	%eax, 4648(%rsp)
	leaq	4652(%rsp), %rdi
	leaq	4072(%rsp), %rsi
	movl	$280, %edx              # imm = 0x118
	callq	memcpy
	movl	%r14d, 4932(%rsp)
	callq	_Z9vl_rand64v
	movl	%eax, 5232(%rsp)
	leaq	5236(%rsp), %rdi
	leaq	4648(%rsp), %rsi
	movl	$284, %edx              # imm = 0x11C
	callq	memcpy
	movl	%r14d, 5520(%rsp)
	callq	_Z9vl_rand64v
	movl	%eax, 5824(%rsp)
	leaq	5828(%rsp), %rdi
	leaq	5232(%rsp), %rsi
	movl	$288, %edx              # imm = 0x120
	callq	memcpy
	movl	%r14d, 6116(%rsp)
	callq	_Z9vl_rand64v
	movl	%eax, 6424(%rsp)
	leaq	6428(%rsp), %rdi
	leaq	5824(%rsp), %rsi
	movl	$292, %edx              # imm = 0x124
	callq	memcpy
	movl	%r14d, 6720(%rsp)
	callq	_Z9vl_rand64v
	movl	%eax, 7032(%rsp)
	leaq	7036(%rsp), %rdi
	leaq	6424(%rsp), %rsi
	movl	$296, %edx              # imm = 0x128
	callq	memcpy
	movl	%r14d, 7332(%rsp)
	callq	_Z9vl_rand64v
	movl	%eax, 7648(%rsp)
	leaq	7652(%rsp), %rdi
	leaq	7032(%rsp), %rsi
	movl	$300, %edx              # imm = 0x12C
	callq	memcpy
	movl	%r14d, 7952(%rsp)
	callq	_Z9vl_rand64v
	movl	%eax, 8272(%rsp)
	leaq	8276(%rsp), %rdi
	leaq	7648(%rsp), %rsi
	movl	$304, %edx              # imm = 0x130
	callq	memcpy
	movl	%r14d, 8580(%rsp)
	callq	_Z9vl_rand64v
	movl	%eax, 8904(%rsp)
	leaq	8908(%rsp), %rdi
	leaq	8272(%rsp), %rsi
	movl	$308, %edx              # imm = 0x134
	callq	memcpy
	movl	%r14d, 9216(%rsp)
	callq	_Z9vl_rand64v
	movl	%eax, 9544(%rsp)
	leaq	9548(%rsp), %rdi
	leaq	8904(%rsp), %rsi
	movl	$312, %edx              # imm = 0x138
	callq	memcpy
	movl	%r14d, 9860(%rsp)
	callq	_Z9vl_rand64v
	movl	%eax, 10192(%rsp)
	leaq	10196(%rsp), %rdi
	leaq	9544(%rsp), %rsi
	movl	$316, %edx              # imm = 0x13C
	callq	memcpy
	movl	%r14d, 10512(%rsp)
	callq	_Z9vl_rand64v
	movl	%eax, 10848(%rsp)
	leaq	10852(%rsp), %rdi
	leaq	10192(%rsp), %rsi
	movl	$320, %edx              # imm = 0x140
	callq	memcpy
	movl	%r14d, 11172(%rsp)
	callq	_Z9vl_rand64v
	movl	%eax, 11512(%rsp)
	leaq	11516(%rsp), %rdi
	leaq	10848(%rsp), %rsi
	movl	$324, %edx              # imm = 0x144
	callq	memcpy
	movl	%r14d, 11840(%rsp)
	callq	_Z9vl_rand64v
	movl	%eax, 12184(%rsp)
	leaq	12188(%rsp), %rdi
	leaq	11512(%rsp), %rsi
	movl	$328, %edx              # imm = 0x148
	callq	memcpy
	movl	%r14d, 12516(%rsp)
	callq	_Z9vl_rand64v
	movl	%eax, 12864(%rsp)
	leaq	12868(%rsp), %rdi
	leaq	12184(%rsp), %rsi
	movl	$332, %edx              # imm = 0x14C
	callq	memcpy
	movl	%r14d, 13200(%rsp)
	callq	_Z9vl_rand64v
	movl	%eax, 13552(%rsp)
	leaq	13556(%rsp), %rdi
	leaq	12864(%rsp), %rsi
	movl	$336, %edx              # imm = 0x150
	callq	memcpy
	movl	%r14d, 13892(%rsp)
	callq	_Z9vl_rand64v
	movl	%eax, 14248(%rsp)
	leaq	14252(%rsp), %rdi
	leaq	13552(%rsp), %rsi
	movl	$340, %edx              # imm = 0x154
	callq	memcpy
	movl	%r14d, 14592(%rsp)
	callq	_Z9vl_rand64v
	movl	%eax, 14952(%rsp)
	leaq	14956(%rsp), %rdi
	leaq	14248(%rsp), %rsi
	movl	$344, %edx              # imm = 0x158
	callq	memcpy
	movl	%r14d, 15300(%rsp)
	callq	_Z9vl_rand64v
	movl	%eax, 15664(%rsp)
	leaq	15668(%rsp), %rdi
	leaq	14952(%rsp), %rsi
	movl	$348, %edx              # imm = 0x15C
	callq	memcpy
	movl	%r14d, 16016(%rsp)
	callq	_Z9vl_rand64v
	movl	%eax, 16384(%rsp)
	leaq	16388(%rsp), %rdi
	leaq	15664(%rsp), %rsi
	movl	$352, %edx              # imm = 0x160
	callq	memcpy
	movl	%r14d, 16740(%rsp)
	callq	_Z9vl_rand64v
	movl	%eax, 17112(%rsp)
	leaq	17116(%rsp), %rdi
	leaq	16384(%rsp), %rsi
	movl	$356, %edx              # imm = 0x164
	callq	memcpy
	movl	%r14d, 17472(%rsp)
	callq	_Z9vl_rand64v
	movl	%eax, 17848(%rsp)
	leaq	17852(%rsp), %rdi
	leaq	17112(%rsp), %rsi
	movl	$360, %edx              # imm = 0x168
	callq	memcpy
	movl	%r14d, 18212(%rsp)
	callq	_Z9vl_rand64v
	movl	%eax, 18592(%rsp)
	leaq	18596(%rsp), %rdi
	leaq	17848(%rsp), %rsi
	movl	$364, %edx              # imm = 0x16C
	callq	memcpy
	movl	%r14d, 18960(%rsp)
	callq	_Z9vl_rand64v
	movl	%eax, 19344(%rsp)
	leaq	19348(%rsp), %rdi
	leaq	18592(%rsp), %rsi
	movl	$368, %edx              # imm = 0x170
	callq	memcpy
	movl	%r14d, 19716(%rsp)
	callq	_Z9vl_rand64v
	movl	%eax, 20104(%rsp)
	leaq	20108(%rsp), %rdi
	leaq	19344(%rsp), %rsi
	movl	$372, %edx              # imm = 0x174
	callq	memcpy
	movl	%r14d, 20480(%rsp)
	callq	_Z9vl_rand64v
	movl	%eax, 20872(%rsp)
	leaq	20876(%rsp), %rdi
	leaq	20104(%rsp), %rsi
	movl	$376, %edx              # imm = 0x178
	callq	memcpy
	movl	%r14d, 21252(%rsp)
	callq	_Z9vl_rand64v
	movl	%eax, 21648(%rsp)
	leaq	21652(%rsp), %rdi
	leaq	20872(%rsp), %rsi
	movl	$380, %edx              # imm = 0x17C
	callq	memcpy
	movl	%r14d, 22032(%rsp)
	callq	_Z9vl_rand64v
	movl	%eax, 22432(%rsp)
	leaq	22436(%rsp), %rdi
	leaq	21648(%rsp), %rsi
	movl	$384, %edx              # imm = 0x180
	callq	memcpy
	movl	%r14d, 22820(%rsp)
	callq	_Z9vl_rand64v
	movl	%eax, 23224(%rsp)
	leaq	23228(%rsp), %rdi
	leaq	22432(%rsp), %rsi
	movl	$388, %edx              # imm = 0x184
	callq	memcpy
	movl	%r14d, 23616(%rsp)
	callq	_Z9vl_rand64v
	movl	%eax, 24024(%rsp)
	leaq	24028(%rsp), %rdi
	leaq	23224(%rsp), %rsi
	movl	$392, %edx              # imm = 0x188
	callq	memcpy
	movl	%r14d, 24420(%rsp)
	callq	_Z9vl_rand64v
	movl	%eax, 24832(%rsp)
	leaq	24836(%rsp), %rdi
	leaq	24024(%rsp), %rsi
	movl	$396, %edx              # imm = 0x18C
	callq	memcpy
	movl	%r14d, 25232(%rsp)
	callq	_Z9vl_rand64v
	movl	%eax, 25648(%rsp)
	leaq	25652(%rsp), %rdi
	leaq	24832(%rsp), %rsi
	movl	$400, %edx              # imm = 0x190
	callq	memcpy
	movl	%r14d, 26052(%rsp)
	callq	_Z9vl_rand64v
	movl	%eax, 26472(%rsp)
	leaq	26476(%rsp), %rdi
	leaq	25648(%rsp), %rsi
	movl	$404, %edx              # imm = 0x194
	callq	memcpy
	movl	%r14d, 26880(%rsp)
	callq	_Z9vl_rand64v
	movl	%eax, 27304(%rsp)
	leaq	27308(%rsp), %rdi
	leaq	26472(%rsp), %rsi
	movl	$408, %edx              # imm = 0x198
	callq	memcpy
	movl	%r14d, 27716(%rsp)
	callq	_Z9vl_rand64v
	movl	%eax, 28144(%rsp)
	leaq	28148(%rsp), %rdi
	leaq	27304(%rsp), %rsi
	movl	$412, %edx              # imm = 0x19C
	callq	memcpy
	movl	%r14d, 28560(%rsp)
	callq	_Z9vl_rand64v
	movl	%eax, 28992(%rsp)
	leaq	28996(%rsp), %rdi
	leaq	28144(%rsp), %rsi
	movl	$416, %edx              # imm = 0x1A0
	callq	memcpy
	movl	%r14d, 29412(%rsp)
	callq	_Z9vl_rand64v
	movl	%eax, 29848(%rsp)
	leaq	29852(%rsp), %rdi
	leaq	28992(%rsp), %rsi
	movl	$420, %edx              # imm = 0x1A4
	callq	memcpy
	movl	%r14d, 30272(%rsp)
	callq	_Z9vl_rand64v
	movl	%eax, 30712(%rsp)
	leaq	30716(%rsp), %rdi
	leaq	29848(%rsp), %rsi
	movl	$424, %edx              # imm = 0x1A8
	callq	memcpy
	movl	%r14d, 31140(%rsp)
	callq	_Z9vl_rand64v
	movl	%eax, 31584(%rsp)
	leaq	31588(%rsp), %rdi
	leaq	30712(%rsp), %rsi
	movl	$428, %edx              # imm = 0x1AC
	callq	memcpy
	movl	%r14d, 32016(%rsp)
	callq	_Z9vl_rand64v
	movl	%eax, 32464(%rsp)
	leaq	32468(%rsp), %rdi
	leaq	31584(%rsp), %rsi
	movl	$432, %edx              # imm = 0x1B0
	callq	memcpy
	movl	%r14d, 32900(%rsp)
	callq	_Z9vl_rand64v
	movl	%eax, 33352(%rsp)
	leaq	33356(%rsp), %rdi
	leaq	32464(%rsp), %rsi
	movl	$436, %edx              # imm = 0x1B4
	callq	memcpy
	movl	%r14d, 33792(%rsp)
	callq	_Z9vl_rand64v
	movl	%eax, 34248(%rsp)
	leaq	34252(%rsp), %rdi
	leaq	33352(%rsp), %rsi
	movl	$440, %edx              # imm = 0x1B8
	callq	memcpy
	movl	%r14d, 34692(%rsp)
	callq	_Z9vl_rand64v
	movl	%eax, 35152(%rsp)
	leaq	35156(%rsp), %rdi
	leaq	34248(%rsp), %rsi
	movl	$444, %edx              # imm = 0x1BC
	callq	memcpy
	movl	%r14d, 35600(%rsp)
	callq	_Z9vl_rand64v
	movl	%eax, 36064(%rsp)
	leaq	36068(%rsp), %rdi
	leaq	35152(%rsp), %rsi
	movl	$448, %edx              # imm = 0x1C0
	callq	memcpy
	movl	%r14d, 36516(%rsp)
	callq	_Z9vl_rand64v
	movl	%eax, 36984(%rsp)
	leaq	36988(%rsp), %rdi
	leaq	36064(%rsp), %rsi
	movl	$452, %edx              # imm = 0x1C4
	callq	memcpy
	movl	%r14d, 37440(%rsp)
	callq	_Z9vl_rand64v
	movl	%eax, 37912(%rsp)
	leaq	37916(%rsp), %rdi
	leaq	36984(%rsp), %rsi
	movl	$456, %edx              # imm = 0x1C8
	callq	memcpy
	movl	%r14d, 38372(%rsp)
	callq	_Z9vl_rand64v
	movl	%eax, 38848(%rsp)
	leaq	38852(%rsp), %rdi
	leaq	37912(%rsp), %rsi
	movl	$460, %edx              # imm = 0x1CC
	callq	memcpy
	movl	%r14d, 39312(%rsp)
	callq	_Z9vl_rand64v
	movl	%eax, 39792(%rsp)
	leaq	39796(%rsp), %rdi
	leaq	38848(%rsp), %rsi
	movl	$464, %edx              # imm = 0x1D0
	callq	memcpy
	movl	%r14d, 40260(%rsp)
	callq	_Z9vl_rand64v
	movl	%eax, 40744(%rsp)
	leaq	40748(%rsp), %rdi
	leaq	39792(%rsp), %rsi
	movl	$468, %edx              # imm = 0x1D4
	callq	memcpy
	movl	%r14d, 41216(%rsp)
	callq	_Z9vl_rand64v
	movl	%eax, 41704(%rsp)
	leaq	41708(%rsp), %rdi
	leaq	40744(%rsp), %rsi
	movl	$472, %edx              # imm = 0x1D8
	callq	memcpy
	movl	%r14d, 42180(%rsp)
	callq	_Z9vl_rand64v
	movl	%eax, 42672(%rsp)
	leaq	42676(%rsp), %rdi
	leaq	41704(%rsp), %rsi
	movl	$476, %edx              # imm = 0x1DC
	callq	memcpy
	movl	%r14d, 43152(%rsp)
	callq	_Z9vl_rand64v
	movl	%eax, 43648(%rsp)
	leaq	43652(%rsp), %rdi
	leaq	42672(%rsp), %rsi
	movl	$480, %edx              # imm = 0x1E0
	callq	memcpy
	movl	%r14d, 44132(%rsp)
	callq	_Z9vl_rand64v
	movl	%eax, 44632(%rsp)
	leaq	44636(%rsp), %rdi
	leaq	43648(%rsp), %rsi
	movl	$484, %edx              # imm = 0x1E4
	callq	memcpy
	movl	%r14d, 45120(%rsp)
	callq	_Z9vl_rand64v
	movl	%eax, 45624(%rsp)
	leaq	45628(%rsp), %rdi
	leaq	44632(%rsp), %rsi
	movl	$488, %edx              # imm = 0x1E8
	callq	memcpy
	movl	%r14d, 46116(%rsp)
	callq	_Z9vl_rand64v
	movl	%eax, 46624(%rsp)
	leaq	46628(%rsp), %rdi
	leaq	45624(%rsp), %rsi
	movl	$492, %edx              # imm = 0x1EC
	callq	memcpy
	movl	%r14d, 47120(%rsp)
	callq	_Z9vl_rand64v
	movl	%eax, 47632(%rsp)
	leaq	47636(%rsp), %rdi
	leaq	46624(%rsp), %rsi
	movl	$496, %edx              # imm = 0x1F0
	callq	memcpy
	movl	%r14d, 48132(%rsp)
	callq	_Z9vl_rand64v
	movl	%eax, 48648(%rsp)
	leaq	48652(%rsp), %rdi
	leaq	47632(%rsp), %rsi
	movl	$500, %edx              # imm = 0x1F4
	callq	memcpy
	movl	%r14d, 49152(%rsp)
	callq	_Z9vl_rand64v
	movl	%eax, 49672(%rsp)
	leaq	49676(%rsp), %rdi
	leaq	48648(%rsp), %rsi
	movl	$504, %edx              # imm = 0x1F8
	callq	memcpy
	movl	%r14d, 50180(%rsp)
	leaq	93500(%rbx), %rdi
	leaq	49672(%rsp), %rsi
	movl	$512, %edx              # imm = 0x200
	callq	memcpy
	callq	_Z9vl_rand64v
	movl	%eax, 8(%rsp)
	callq	_Z9vl_rand64v
	movl	%eax, 12(%rsp)
	callq	_Z9vl_rand64v
	movl	%eax, 16(%rsp)
	callq	_Z9vl_rand64v
	movl	%eax, 20(%rsp)
	callq	_Z9vl_rand64v
	movl	%eax, 24(%rsp)
	callq	_Z9vl_rand64v
	movl	%eax, 28(%rsp)
	callq	_Z9vl_rand64v
	movl	%eax, 32(%rsp)
	callq	_Z9vl_rand64v
	movl	%eax, 36(%rsp)
	callq	_Z9vl_rand64v
	movl	%eax, 40(%rsp)
	callq	_Z9vl_rand64v
	movl	%eax, 44(%rsp)
	callq	_Z9vl_rand64v
	movl	%eax, 48(%rsp)
	callq	_Z9vl_rand64v
	movl	%eax, 52(%rsp)
	callq	_Z9vl_rand64v
	movl	%eax, 56(%rsp)
	callq	_Z9vl_rand64v
	movl	%eax, 60(%rsp)
	callq	_Z9vl_rand64v
	movl	%eax, 64(%rsp)
	callq	_Z9vl_rand64v
	movl	%eax, 68(%rsp)
	callq	_Z9vl_rand64v
	movl	%eax, 72(%rsp)
	callq	_Z9vl_rand64v
	movl	%eax, 76(%rsp)
	callq	_Z9vl_rand64v
	movl	%eax, 80(%rsp)
	callq	_Z9vl_rand64v
	movl	%eax, 84(%rsp)
	callq	_Z9vl_rand64v
	movl	%eax, 88(%rsp)
	callq	_Z9vl_rand64v
	movl	%eax, 92(%rsp)
	callq	_Z9vl_rand64v
	movl	%eax, 96(%rsp)
	callq	_Z9vl_rand64v
	movl	%eax, 100(%rsp)
	callq	_Z9vl_rand64v
	movl	%eax, 104(%rsp)
	callq	_Z9vl_rand64v
	movl	%eax, 108(%rsp)
	callq	_Z9vl_rand64v
	movl	%eax, 112(%rsp)
	callq	_Z9vl_rand64v
	movl	%eax, 116(%rsp)
	callq	_Z9vl_rand64v
	movl	%eax, 120(%rsp)
	callq	_Z9vl_rand64v
	movl	%eax, 124(%rsp)
	callq	_Z9vl_rand64v
	movl	%eax, 128(%rsp)
	callq	_Z9vl_rand64v
	movl	%eax, 132(%rsp)
	callq	_Z9vl_rand64v
	movl	%eax, 136(%rsp)
	callq	_Z9vl_rand64v
	movl	%eax, 140(%rsp)
	callq	_Z9vl_rand64v
	movl	%eax, 144(%rsp)
	callq	_Z9vl_rand64v
	movl	%eax, 148(%rsp)
	callq	_Z9vl_rand64v
	movl	%eax, 152(%rsp)
	callq	_Z9vl_rand64v
	movl	%eax, 156(%rsp)
	callq	_Z9vl_rand64v
	movl	%eax, 160(%rsp)
	callq	_Z9vl_rand64v
	movl	%eax, 164(%rsp)
	callq	_Z9vl_rand64v
	movl	%eax, 168(%rsp)
	callq	_Z9vl_rand64v
	movl	%eax, 172(%rsp)
	callq	_Z9vl_rand64v
	movl	%eax, 176(%rsp)
	callq	_Z9vl_rand64v
	movl	%eax, 180(%rsp)
	callq	_Z9vl_rand64v
	movl	%eax, 184(%rsp)
	callq	_Z9vl_rand64v
	movl	%eax, 188(%rsp)
	callq	_Z9vl_rand64v
	movl	%eax, 192(%rsp)
	callq	_Z9vl_rand64v
	movl	%eax, 196(%rsp)
	callq	_Z9vl_rand64v
	movl	%eax, 200(%rsp)
	callq	_Z9vl_rand64v
	movl	%eax, 204(%rsp)
	callq	_Z9vl_rand64v
	movl	%eax, 208(%rsp)
	callq	_Z9vl_rand64v
	movl	%eax, 212(%rsp)
	callq	_Z9vl_rand64v
	movl	%eax, 216(%rsp)
	callq	_Z9vl_rand64v
	movl	%eax, 220(%rsp)
	callq	_Z9vl_rand64v
	movl	%eax, 224(%rsp)
	callq	_Z9vl_rand64v
	movl	%eax, 228(%rsp)
	callq	_Z9vl_rand64v
	movl	%eax, 232(%rsp)
	callq	_Z9vl_rand64v
	movl	%eax, 236(%rsp)
	callq	_Z9vl_rand64v
	movl	%eax, 240(%rsp)
	callq	_Z9vl_rand64v
	movl	%eax, 244(%rsp)
	callq	_Z9vl_rand64v
	movl	%eax, 248(%rsp)
	callq	_Z9vl_rand64v
	movl	%eax, 252(%rsp)
	callq	_Z9vl_rand64v
	callq	_Z9vl_rand64v
	movl	%eax, 256(%rsp)
	callq	_Z9vl_rand64v
	movq	%rax, %r14
	callq	_Z9vl_rand64v
	movl	%r14d, 260(%rsp)
	callq	_Z9vl_rand64v
	movl	%eax, 520(%rsp)
	leaq	524(%rsp), %rdi
	leaq	8(%rsp), %rsi
	movl	$252, %edx
	callq	memcpy
	movl	%r14d, 776(%rsp)
	callq	_Z9vl_rand64v
	movl	%eax, 1048(%rsp)
	leaq	1052(%rsp), %rdi
	leaq	520(%rsp), %rsi
	movl	$256, %edx              # imm = 0x100
	callq	memcpy
	movl	%r14d, 1308(%rsp)
	callq	_Z9vl_rand64v
	movl	%eax, 1576(%rsp)
	leaq	1580(%rsp), %rdi
	leaq	1048(%rsp), %rsi
	movl	$260, %edx              # imm = 0x104
	callq	memcpy
	movl	%r14d, 1840(%rsp)
	callq	_Z9vl_rand64v
	movl	%eax, 2120(%rsp)
	leaq	2124(%rsp), %rdi
	leaq	1576(%rsp), %rsi
	movl	$264, %edx              # imm = 0x108
	callq	memcpy
	movl	%r14d, 2388(%rsp)
	callq	_Z9vl_rand64v
	movl	%eax, 2664(%rsp)
	leaq	2668(%rsp), %rdi
	leaq	2120(%rsp), %rsi
	movl	$268, %edx              # imm = 0x10C
	callq	memcpy
	movl	%r14d, 2936(%rsp)
	callq	_Z9vl_rand64v
	movl	%eax, 3224(%rsp)
	leaq	3228(%rsp), %rdi
	leaq	2664(%rsp), %rsi
	movl	$272, %edx              # imm = 0x110
	callq	memcpy
	movl	%r14d, 3500(%rsp)
	callq	_Z9vl_rand64v
	movl	%eax, 3784(%rsp)
	leaq	3788(%rsp), %rdi
	leaq	3224(%rsp), %rsi
	movl	$276, %edx              # imm = 0x114
	callq	memcpy
	movl	%r14d, 4064(%rsp)
	callq	_Z9vl_rand64v
	movl	%eax, 4360(%rsp)
	leaq	4364(%rsp), %rdi
	leaq	3784(%rsp), %rsi
	movl	$280, %edx              # imm = 0x118
	callq	memcpy
	movl	%r14d, 4644(%rsp)
	callq	_Z9vl_rand64v
	movl	%eax, 4936(%rsp)
	leaq	4940(%rsp), %rdi
	leaq	4360(%rsp), %rsi
	movl	$284, %edx              # imm = 0x11C
	callq	memcpy
	movl	%r14d, 5224(%rsp)
	callq	_Z9vl_rand64v
	movl	%eax, 5528(%rsp)
	leaq	5532(%rsp), %rdi
	leaq	4936(%rsp), %rsi
	movl	$288, %edx              # imm = 0x120
	callq	memcpy
	movl	%r14d, 5820(%rsp)
	callq	_Z9vl_rand64v
	movl	%eax, 6120(%rsp)
	leaq	6124(%rsp), %rdi
	leaq	5528(%rsp), %rsi
	movl	$292, %edx              # imm = 0x124
	callq	memcpy
	movl	%r14d, 6416(%rsp)
	callq	_Z9vl_rand64v
	movl	%eax, 6728(%rsp)
	leaq	6732(%rsp), %rdi
	leaq	6120(%rsp), %rsi
	movl	$296, %edx              # imm = 0x128
	callq	memcpy
	movl	%r14d, 7028(%rsp)
	callq	_Z9vl_rand64v
	movl	%eax, 7336(%rsp)
	leaq	7340(%rsp), %rdi
	leaq	6728(%rsp), %rsi
	movl	$300, %edx              # imm = 0x12C
	callq	memcpy
	movl	%r14d, 7640(%rsp)
	callq	_Z9vl_rand64v
	movl	%eax, 7960(%rsp)
	leaq	7964(%rsp), %rdi
	leaq	7336(%rsp), %rsi
	movl	$304, %edx              # imm = 0x130
	callq	memcpy
	movl	%r14d, 8268(%rsp)
	callq	_Z9vl_rand64v
	movl	%eax, 8584(%rsp)
	leaq	8588(%rsp), %rdi
	leaq	7960(%rsp), %rsi
	movl	$308, %edx              # imm = 0x134
	callq	memcpy
	movl	%r14d, 8896(%rsp)
	callq	_Z9vl_rand64v
	movl	%eax, 9224(%rsp)
	leaq	9228(%rsp), %rdi
	leaq	8584(%rsp), %rsi
	movl	$312, %edx              # imm = 0x138
	callq	memcpy
	movl	%r14d, 9540(%rsp)
	callq	_Z9vl_rand64v
	movl	%eax, 9864(%rsp)
	leaq	9868(%rsp), %rdi
	leaq	9224(%rsp), %rsi
	movl	$316, %edx              # imm = 0x13C
	callq	memcpy
	movl	%r14d, 10184(%rsp)
	callq	_Z9vl_rand64v
	movl	%eax, 10520(%rsp)
	leaq	10524(%rsp), %rdi
	leaq	9864(%rsp), %rsi
	movl	$320, %edx              # imm = 0x140
	callq	memcpy
	movl	%r14d, 10844(%rsp)
	callq	_Z9vl_rand64v
	movl	%eax, 11176(%rsp)
	leaq	11180(%rsp), %rdi
	leaq	10520(%rsp), %rsi
	movl	$324, %edx              # imm = 0x144
	callq	memcpy
	movl	%r14d, 11504(%rsp)
	callq	_Z9vl_rand64v
	movl	%eax, 11848(%rsp)
	leaq	11852(%rsp), %rdi
	leaq	11176(%rsp), %rsi
	movl	$328, %edx              # imm = 0x148
	callq	memcpy
	movl	%r14d, 12180(%rsp)
	callq	_Z9vl_rand64v
	movl	%eax, 12520(%rsp)
	leaq	12524(%rsp), %rdi
	leaq	11848(%rsp), %rsi
	movl	$332, %edx              # imm = 0x14C
	callq	memcpy
	movl	%r14d, 12856(%rsp)
	callq	_Z9vl_rand64v
	movl	%eax, 13208(%rsp)
	leaq	13212(%rsp), %rdi
	leaq	12520(%rsp), %rsi
	movl	$336, %edx              # imm = 0x150
	callq	memcpy
	movl	%r14d, 13548(%rsp)
	callq	_Z9vl_rand64v
	movl	%eax, 13896(%rsp)
	leaq	13900(%rsp), %rdi
	leaq	13208(%rsp), %rsi
	movl	$340, %edx              # imm = 0x154
	callq	memcpy
	movl	%r14d, 14240(%rsp)
	callq	_Z9vl_rand64v
	movl	%eax, 14600(%rsp)
	leaq	14604(%rsp), %rdi
	leaq	13896(%rsp), %rsi
	movl	$344, %edx              # imm = 0x158
	callq	memcpy
	movl	%r14d, 14948(%rsp)
	callq	_Z9vl_rand64v
	movl	%eax, 15304(%rsp)
	leaq	15308(%rsp), %rdi
	leaq	14600(%rsp), %rsi
	movl	$348, %edx              # imm = 0x15C
	callq	memcpy
	movl	%r14d, 15656(%rsp)
	callq	_Z9vl_rand64v
	movl	%eax, 16024(%rsp)
	leaq	16028(%rsp), %rdi
	leaq	15304(%rsp), %rsi
	movl	$352, %edx              # imm = 0x160
	callq	memcpy
	movl	%r14d, 16380(%rsp)
	callq	_Z9vl_rand64v
	movl	%eax, 16744(%rsp)
	leaq	16748(%rsp), %rdi
	leaq	16024(%rsp), %rsi
	movl	$356, %edx              # imm = 0x164
	callq	memcpy
	movl	%r14d, 17104(%rsp)
	callq	_Z9vl_rand64v
	movl	%eax, 17480(%rsp)
	leaq	17484(%rsp), %rdi
	leaq	16744(%rsp), %rsi
	movl	$360, %edx              # imm = 0x168
	callq	memcpy
	movl	%r14d, 17844(%rsp)
	callq	_Z9vl_rand64v
	movl	%eax, 18216(%rsp)
	leaq	18220(%rsp), %rdi
	leaq	17480(%rsp), %rsi
	movl	$364, %edx              # imm = 0x16C
	callq	memcpy
	movl	%r14d, 18584(%rsp)
	callq	_Z9vl_rand64v
	movl	%eax, 18968(%rsp)
	leaq	18972(%rsp), %rdi
	leaq	18216(%rsp), %rsi
	movl	$368, %edx              # imm = 0x170
	callq	memcpy
	movl	%r14d, 19340(%rsp)
	callq	_Z9vl_rand64v
	movl	%eax, 19720(%rsp)
	leaq	19724(%rsp), %rdi
	leaq	18968(%rsp), %rsi
	movl	$372, %edx              # imm = 0x174
	callq	memcpy
	movl	%r14d, 20096(%rsp)
	callq	_Z9vl_rand64v
	movl	%eax, 20488(%rsp)
	leaq	20492(%rsp), %rdi
	leaq	19720(%rsp), %rsi
	movl	$376, %edx              # imm = 0x178
	callq	memcpy
	movl	%r14d, 20868(%rsp)
	callq	_Z9vl_rand64v
	movl	%eax, 21256(%rsp)
	leaq	21260(%rsp), %rdi
	leaq	20488(%rsp), %rsi
	movl	$380, %edx              # imm = 0x17C
	callq	memcpy
	movl	%r14d, 21640(%rsp)
	callq	_Z9vl_rand64v
	movl	%eax, 22040(%rsp)
	leaq	22044(%rsp), %rdi
	leaq	21256(%rsp), %rsi
	movl	$384, %edx              # imm = 0x180
	callq	memcpy
	movl	%r14d, 22428(%rsp)
	callq	_Z9vl_rand64v
	movl	%eax, 22824(%rsp)
	leaq	22828(%rsp), %rdi
	leaq	22040(%rsp), %rsi
	movl	$388, %edx              # imm = 0x184
	callq	memcpy
	movl	%r14d, 23216(%rsp)
	callq	_Z9vl_rand64v
	movl	%eax, 23624(%rsp)
	leaq	23628(%rsp), %rdi
	leaq	22824(%rsp), %rsi
	movl	$392, %edx              # imm = 0x188
	callq	memcpy
	movl	%r14d, 24020(%rsp)
	callq	_Z9vl_rand64v
	movl	%eax, 24424(%rsp)
	leaq	24428(%rsp), %rdi
	leaq	23624(%rsp), %rsi
	movl	$396, %edx              # imm = 0x18C
	callq	memcpy
	movl	%r14d, 24824(%rsp)
	callq	_Z9vl_rand64v
	movl	%eax, 25240(%rsp)
	leaq	25244(%rsp), %rdi
	leaq	24424(%rsp), %rsi
	movl	$400, %edx              # imm = 0x190
	callq	memcpy
	movl	%r14d, 25644(%rsp)
	callq	_Z9vl_rand64v
	movl	%eax, 26056(%rsp)
	leaq	26060(%rsp), %rdi
	leaq	25240(%rsp), %rsi
	movl	$404, %edx              # imm = 0x194
	callq	memcpy
	movl	%r14d, 26464(%rsp)
	callq	_Z9vl_rand64v
	movl	%eax, 26888(%rsp)
	leaq	26892(%rsp), %rdi
	leaq	26056(%rsp), %rsi
	movl	$408, %edx              # imm = 0x198
	callq	memcpy
	movl	%r14d, 27300(%rsp)
	callq	_Z9vl_rand64v
	movl	%eax, 27720(%rsp)
	leaq	27724(%rsp), %rdi
	leaq	26888(%rsp), %rsi
	movl	$412, %edx              # imm = 0x19C
	callq	memcpy
	movl	%r14d, 28136(%rsp)
	callq	_Z9vl_rand64v
	movl	%eax, 28568(%rsp)
	leaq	28572(%rsp), %rdi
	leaq	27720(%rsp), %rsi
	movl	$416, %edx              # imm = 0x1A0
	callq	memcpy
	movl	%r14d, 28988(%rsp)
	callq	_Z9vl_rand64v
	movl	%eax, 29416(%rsp)
	leaq	29420(%rsp), %rdi
	leaq	28568(%rsp), %rsi
	movl	$420, %edx              # imm = 0x1A4
	callq	memcpy
	movl	%r14d, 29840(%rsp)
	callq	_Z9vl_rand64v
	movl	%eax, 30280(%rsp)
	leaq	30284(%rsp), %rdi
	leaq	29416(%rsp), %rsi
	movl	$424, %edx              # imm = 0x1A8
	callq	memcpy
	movl	%r14d, 30708(%rsp)
	callq	_Z9vl_rand64v
	movl	%eax, 31144(%rsp)
	leaq	31148(%rsp), %rdi
	leaq	30280(%rsp), %rsi
	movl	$428, %edx              # imm = 0x1AC
	callq	memcpy
	movl	%r14d, 31576(%rsp)
	callq	_Z9vl_rand64v
	movl	%eax, 32024(%rsp)
	leaq	32028(%rsp), %rdi
	leaq	31144(%rsp), %rsi
	movl	$432, %edx              # imm = 0x1B0
	callq	memcpy
	movl	%r14d, 32460(%rsp)
	callq	_Z9vl_rand64v
	movl	%eax, 32904(%rsp)
	leaq	32908(%rsp), %rdi
	leaq	32024(%rsp), %rsi
	movl	$436, %edx              # imm = 0x1B4
	callq	memcpy
	movl	%r14d, 33344(%rsp)
	callq	_Z9vl_rand64v
	movl	%eax, 33800(%rsp)
	leaq	33804(%rsp), %rdi
	leaq	32904(%rsp), %rsi
	movl	$440, %edx              # imm = 0x1B8
	callq	memcpy
	movl	%r14d, 34244(%rsp)
	callq	_Z9vl_rand64v
	movl	%eax, 34696(%rsp)
	leaq	34700(%rsp), %rdi
	leaq	33800(%rsp), %rsi
	movl	$444, %edx              # imm = 0x1BC
	callq	memcpy
	movl	%r14d, 35144(%rsp)
	callq	_Z9vl_rand64v
	movl	%eax, 35608(%rsp)
	leaq	35612(%rsp), %rdi
	leaq	34696(%rsp), %rsi
	movl	$448, %edx              # imm = 0x1C0
	callq	memcpy
	movl	%r14d, 36060(%rsp)
	callq	_Z9vl_rand64v
	movl	%eax, 36520(%rsp)
	leaq	36524(%rsp), %rdi
	leaq	35608(%rsp), %rsi
	movl	$452, %edx              # imm = 0x1C4
	callq	memcpy
	movl	%r14d, 36976(%rsp)
	callq	_Z9vl_rand64v
	movl	%eax, 37448(%rsp)
	leaq	37452(%rsp), %rdi
	leaq	36520(%rsp), %rsi
	movl	$456, %edx              # imm = 0x1C8
	callq	memcpy
	movl	%r14d, 37908(%rsp)
	callq	_Z9vl_rand64v
	movl	%eax, 38376(%rsp)
	leaq	38380(%rsp), %rdi
	leaq	37448(%rsp), %rsi
	movl	$460, %edx              # imm = 0x1CC
	callq	memcpy
	movl	%r14d, 38840(%rsp)
	callq	_Z9vl_rand64v
	movl	%eax, 39320(%rsp)
	leaq	39324(%rsp), %rdi
	leaq	38376(%rsp), %rsi
	movl	$464, %edx              # imm = 0x1D0
	callq	memcpy
	movl	%r14d, 39788(%rsp)
	callq	_Z9vl_rand64v
	movl	%eax, 40264(%rsp)
	leaq	40268(%rsp), %rdi
	leaq	39320(%rsp), %rsi
	movl	$468, %edx              # imm = 0x1D4
	callq	memcpy
	movl	%r14d, 40736(%rsp)
	callq	_Z9vl_rand64v
	movl	%eax, 41224(%rsp)
	leaq	41228(%rsp), %rdi
	leaq	40264(%rsp), %rsi
	movl	$472, %edx              # imm = 0x1D8
	callq	memcpy
	movl	%r14d, 41700(%rsp)
	callq	_Z9vl_rand64v
	movl	%eax, 42184(%rsp)
	leaq	42188(%rsp), %rdi
	leaq	41224(%rsp), %rsi
	movl	$476, %edx              # imm = 0x1DC
	callq	memcpy
	movl	%r14d, 42664(%rsp)
	callq	_Z9vl_rand64v
	movl	%eax, 43160(%rsp)
	leaq	43164(%rsp), %rdi
	leaq	42184(%rsp), %rsi
	movl	$480, %edx              # imm = 0x1E0
	callq	memcpy
	movl	%r14d, 43644(%rsp)
	callq	_Z9vl_rand64v
	movl	%eax, 44136(%rsp)
	leaq	44140(%rsp), %rdi
	leaq	43160(%rsp), %rsi
	movl	$484, %edx              # imm = 0x1E4
	callq	memcpy
	movl	%r14d, 44624(%rsp)
	callq	_Z9vl_rand64v
	movl	%eax, 45128(%rsp)
	leaq	45132(%rsp), %rdi
	leaq	44136(%rsp), %rsi
	movl	$488, %edx              # imm = 0x1E8
	callq	memcpy
	movl	%r14d, 45620(%rsp)
	callq	_Z9vl_rand64v
	movl	%eax, 46120(%rsp)
	leaq	46124(%rsp), %rdi
	leaq	45128(%rsp), %rsi
	movl	$492, %edx              # imm = 0x1EC
	callq	memcpy
	movl	%r14d, 46616(%rsp)
	callq	_Z9vl_rand64v
	movl	%eax, 47128(%rsp)
	leaq	47132(%rsp), %rdi
	leaq	46120(%rsp), %rsi
	movl	$496, %edx              # imm = 0x1F0
	callq	memcpy
	movl	%r14d, 47628(%rsp)
	callq	_Z9vl_rand64v
	movl	%eax, 48136(%rsp)
	leaq	48140(%rsp), %rdi
	leaq	47128(%rsp), %rsi
	movl	$500, %edx              # imm = 0x1F4
	callq	memcpy
	movl	%r14d, 48640(%rsp)
	callq	_Z9vl_rand64v
	movl	%eax, 49160(%rsp)
	leaq	49164(%rsp), %rdi
	leaq	48136(%rsp), %rsi
	movl	$504, %edx              # imm = 0x1F8
	callq	memcpy
	movl	%r14d, 49668(%rsp)
	leaq	96072(%rbx), %rdi
	leaq	49160(%rsp), %rsi
	movl	$512, %edx              # imm = 0x200
	callq	memcpy
	movb	70933(%rbx), %r9b
	testb	%r9b, %r9b
	je	.LBB0_361
# %bb.360:
	xorl	%eax, %eax
	jmp	.LBB0_362
.LBB0_361:                              # %if.else4423
	movb	3686(%rbx), %al
	cmpb	3687(%rbx), %al
	je	.LBB0_363
.LBB0_362:                              # %if.end4431.sink.split
	movb	%al, 3682(%rbx)
.LBB0_363:                              # %if.end4431
	movb	17(%rbx), %sil
	testb	%sil, %sil
	je	.LBB0_365
# %bb.364:
	xorl	%eax, %eax
	jmp	.LBB0_366
.LBB0_365:                              # %if.else4435
	movb	70883(%rbx), %dl
	movb	70885(%rbx), %al
	notb	%dl
	andb	$1, %dl
	cmpb	%dl, %al
	je	.LBB0_367
.LBB0_366:                              # %if.end4445.sink.split
	movb	%al, 70881(%rbx)
.LBB0_367:                              # %if.end4445
	movb	4169(%rbx), %dl
	notb	%dl
	andb	4168(%rbx), %dl
	movb	%dl, 4176(%rbx)
	movb	4180(%rbx), %al
	notb	%al
	andb	4179(%rbx), %al
	movb	%al, 4187(%rbx)
	movb	2198(%rbx), %cl
	orb	70929(%rbx), %cl
	testb	$1, %cl
	jne	.LBB0_369
# %bb.368:                              # %if.then4463
	movzbl	2195(%rbx), %ecx
	movb	279104(%rbx,%rcx), %cl
	movb	%cl, 1497795(%rbx)
	movb	$1, 1497796(%rbx)
	movb	70924(%rbx), %cl
	movb	%cl, 1497794(%rbx)
.LBB0_369:                              # %if.end4466
	testb	%dl, %dl
	je	.LBB0_371
# %bb.370:                              # %if.then4474
	movb	4167(%rbx), %cl
	movb	%cl, 4177(%rbx)
.LBB0_371:                              # %if.end4475
	testb	%al, %al
	je	.LBB0_373
# %bb.372:                              # %if.then4483
	movb	4178(%rbx), %al
	movb	%al, 4188(%rbx)
.LBB0_373:                              # %if.end4484
	testb	%r9b, %r9b
	je	.LBB0_375
# %bb.374:
	xorl	%eax, %eax
	jmp	.LBB0_376
.LBB0_375:                              # %if.else4488
	movb	3757(%rbx), %al
	cmpb	3758(%rbx), %al
	je	.LBB0_377
.LBB0_376:                              # %if.end4496.sink.split
	movb	%al, 3753(%rbx)
.LBB0_377:                              # %if.end4496
	movb	1638(%rbx), %al
	orb	1682(%rbx), %al
	testb	$1, %al
	jne	.LBB0_379
# %bb.378:                              # %if.then4521
	movzbl	1635(%rbx), %eax
	movb	277662(%rbx,%rax), %cl
	movb	%cl, 1492735(%rbx)
	movb	$1, 1492736(%rbx)
	movb	1677(%rbx), %cl
	movb	%cl, 1492734(%rbx)
	movb	277680(%rbx,%rax), %al
	movb	%al, 1492732(%rbx)
	movb	$1, 1492733(%rbx)
	movb	%cl, 1492731(%rbx)
.LBB0_379:                              # %if.end4526
	movb	46887(%rbx), %r10b
	movb	%r10b, 60278(%rbx)
	movb	46888(%rbx), %r8b
	movb	%r8b, 60518(%rbx)
	movb	2190(%rbx), %al
	orb	70921(%rbx), %al
	testb	$1, %al
	jne	.LBB0_381
# %bb.380:                              # %if.then4658
	movzbl	2187(%rbx), %eax
	movb	279018(%rbx,%rax), %cl
	movb	%cl, 1497791(%rbx)
	movb	$1, 1497792(%rbx)
	movb	70916(%rbx), %cl
	movb	%cl, 1497790(%rbx)
	movb	279016(%rbx,%rax), %dl
	movb	%dl, 1497788(%rbx)
	movb	$1, 1497789(%rbx)
	movb	%cl, 1497787(%rbx)
	movq	%rax, %rdx
	shlq	$5, %rdx
	movups	279040(%rbx,%rdx), %xmm0
	movups	%xmm0, 1503344(%rbx)
	movups	279056(%rbx,%rdx), %xmm0
	movups	%xmm0, 1503360(%rbx)
	movb	$1, 1497786(%rbx)
	movb	%cl, 1497785(%rbx)
	movb	279020(%rbx,%rax), %dl
	movb	%dl, 1497783(%rbx)
	movb	$1, 1497784(%rbx)
	movb	%cl, 1497782(%rbx)
	movb	279022(%rbx,%rax), %dl
	movb	%dl, 1497779(%rbx)
	movb	$1, 1497780(%rbx)
	movb	%cl, 1497778(%rbx)
	movq	279024(%rbx,%rax,8), %rax
	movq	%rax, 1505232(%rbx)
	movb	$1, 1497776(%rbx)
	movb	%cl, 1497775(%rbx)
.LBB0_381:                              # %if.end4663
	testb	%r9b, %r9b
	je	.LBB0_382
# %bb.2644:                             # %if.then4690
	movb	$0, 1644(%rbx)
	movb	$0, 1669(%rbx)
	xorl	%edi, %edi
	jmp	.LBB0_387
.LBB0_382:                              # %if.else4667
	movb	1648(%rbx), %al
	cmpb	1649(%rbx), %al
	je	.LBB0_384
# %bb.383:                              # %if.then4671
	movb	%al, 1644(%rbx)
.LBB0_384:                              # %if.else4679
	movb	1673(%rbx), %al
	cmpb	1674(%rbx), %al
	je	.LBB0_386
# %bb.385:                              # %if.then4683
	movb	%al, 1669(%rbx)
.LBB0_386:                              # %if.else4691
	movb	1515(%rbx), %dil
	cmpb	1516(%rbx), %dil
	je	.LBB0_388
.LBB0_387:                              # %if.end4699.sink.split
	movb	%dil, 1511(%rbx)
.LBB0_388:                              # %if.end4699
	cmpb	$0, 68358(%rbx)
	je	.LBB0_390
# %bb.389:
	xorl	%edi, %edi
	jmp	.LBB0_391
.LBB0_390:                              # %if.else4702
	movb	68852(%rbx), %dil
	cmpb	68853(%rbx), %dil
	je	.LBB0_392
.LBB0_391:                              # %if.end4710.sink.split
	movb	%dil, 68849(%rbx)
.LBB0_392:                              # %if.end4710
	movzbl	68183(%rbx), %eax
	xorl	$1, %eax
	xorl	%ecx, %ecx
	cmpb	$1, 52968(%rbx)
	sete	%cl
	testl	%eax, %ecx
	je	.LBB0_394
# %bb.393:                              # %if.then4720
	movb	52974(%rbx), %al
	movb	%al, 1497139(%rbx)
	movb	$1, 1497140(%rbx)
	movb	68178(%rbx), %al
	movb	%al, 1497138(%rbx)
.LBB0_394:                              # %if.end4722
	movb	1647(%rbx), %al
	notb	%al
	testb	%al, 91(%rbx)
	je	.LBB0_396
# %bb.395:                              # %if.then4728
	movl	83260(%rbx), %eax
	movl	%eax, 1500060(%rbx)
	movb	$1, 1492699(%rbx)
	movb	1642(%rbx), %al
	movb	%al, 1492698(%rbx)
.LBB0_396:                              # %if.end4729
	movb	1697(%rbx), %al
	notb	%al
	testb	%al, 1687(%rbx)
	je	.LBB0_398
# %bb.397:                              # %if.then4744
	movb	1719(%rbx), %al
	movb	1720(%rbx), %cl
	movb	%al, 1492750(%rbx)
	movb	$1, 1492751(%rbx)
	movb	%cl, 1492748(%rbx)
	movb	$1, 1492749(%rbx)
.LBB0_398:                              # %if.end4745
	movb	1700(%rbx), %al
	notb	%al
	testb	%al, 1688(%rbx)
	je	.LBB0_400
# %bb.399:                              # %if.then4761
	movb	1719(%rbx), %al
	movb	1720(%rbx), %cl
	movb	%al, 1492754(%rbx)
	movb	$1, 1492755(%rbx)
	movb	%cl, 1492752(%rbx)
	movb	$1, 1492753(%rbx)
.LBB0_400:                              # %if.end4763
	movb	1672(%rbx), %al
	notb	%al
	testb	%al, 92(%rbx)
	je	.LBB0_402
# %bb.401:                              # %if.then4778
	movb	1667(%rbx), %al
	movb	1718(%rbx), %cl
	movb	%cl, 1492721(%rbx)
	movb	$1, 1492722(%rbx)
	movb	%al, 1492720(%rbx)
	movl	83260(%rbx), %ecx
	movl	%ecx, 1500064(%rbx)
	movb	$1, 1492724(%rbx)
	movb	%al, 1492723(%rbx)
.LBB0_402:                              # %if.end4781
	movl	%r9d, %eax
	notb	%al
	movb	3709(%rbx), %cl
	andb	%al, %cl
	movb	%cl, 3708(%rbx)
	movb	3718(%rbx), %cl
	andb	%al, %cl
	movb	%cl, 3717(%rbx)
	movb	3693(%rbx), %cl
	andb	%al, %cl
	movb	%cl, 3692(%rbx)
	andb	3729(%rbx), %al
	movb	%al, 3728(%rbx)
	movb	1691(%rbx), %al
	notb	%al
	testb	%al, 1685(%rbx)
	je	.LBB0_404
# %bb.403:                              # %if.then4821
	movb	1719(%rbx), %al
	movb	1720(%rbx), %cl
	movb	%al, 1492742(%rbx)
	movb	$1, 1492743(%rbx)
	movb	%cl, 1492740(%rbx)
	movb	$1, 1492741(%rbx)
.LBB0_404:                              # %if.end4823
	movb	1694(%rbx), %al
	notb	%al
	testb	%al, 1686(%rbx)
	je	.LBB0_406
# %bb.405:                              # %if.then4839
	movb	1719(%rbx), %al
	movb	1720(%rbx), %cl
	movb	%al, 1492746(%rbx)
	movb	$1, 1492747(%rbx)
	movb	%cl, 1492744(%rbx)
	movb	$1, 1492745(%rbx)
.LBB0_406:                              # %if.end4841
	testb	%r9b, %r9b
	je	.LBB0_407
# %bb.2645:                             # %if.then4886
	movb	$0, 1492635(%rbx)
	movb	$0, 1492631(%rbx)
	movb	$0, 1492677(%rbx)
	xorl	%edi, %edi
	jmp	.LBB0_415
.LBB0_407:                              # %if.else4845
	cmpb	$0, 1584(%rbx)
	je	.LBB0_409
# %bb.408:                              # %if.then4848
	movb	1578(%rbx), %al
	notb	%al
	andb	$1, %al
	movb	%al, 1492635(%rbx)
.LBB0_409:                              # %if.else4859
	cmpb	$0, 1585(%rbx)
	je	.LBB0_411
# %bb.410:                              # %if.then4862
	movb	1579(%rbx), %al
	notb	%al
	andb	$1, %al
	movb	%al, 1492631(%rbx)
.LBB0_411:                              # %if.else4873
	cmpb	$0, 1624(%rbx)
	je	.LBB0_413
# %bb.412:                              # %if.then4876
	movb	1618(%rbx), %al
	notb	%al
	andb	$1, %al
	movb	%al, 1492677(%rbx)
.LBB0_413:                              # %if.else4887
	cmpb	$0, 1625(%rbx)
	je	.LBB0_416
# %bb.414:                              # %if.then4890
	movb	1619(%rbx), %dil
	notb	%dil
	andb	$1, %dil
.LBB0_415:                              # %if.end4897.sink.split
	movb	%dil, 1492673(%rbx)
.LBB0_416:                              # %if.end4897
	cmpb	$0, 46873(%rbx)
	je	.LBB0_418
# %bb.417:                              # %if.then4899
	movq	262752(%rbx), %rax
	shrq	$12, %rax
	andl	$134217727, %eax        # imm = 0x7FFFFFF
	movl	%eax, 205412(%rbx)
.LBB0_418:                              # %if.end4903
	testb	%r9b, %r9b
	je	.LBB0_419
# %bb.2646:                             # %if.then5293
	movw	$0, 1491455(%rbx)
	movw	$0, 1491496(%rbx)
	movb	$0, 1491493(%rbx)
	movb	$0, 1491487(%rbx)
	movb	$0, 1492627(%rbx)
	movb	$0, 1492621(%rbx)
	movb	$0, 1492653(%rbx)
	movb	$0, 1492646(%rbx)
	movb	$0, 1492669(%rbx)
	movb	$0, 1492663(%rbx)
	movb	$0, 1492695(%rbx)
	movb	$0, 1492688(%rbx)
	movb	$0, 1491402(%rbx)
	movb	$0, 1491396(%rbx)
	movb	$0, 1491476(%rbx)
	movb	$0, 1491470(%rbx)
	movb	$0, 1491519(%rbx)
	movb	$0, 1491512(%rbx)
	movb	$0, 1492842(%rbx)
	movb	$0, 1492836(%rbx)
	movb	$0, 1493022(%rbx)
	movb	$0, 1493016(%rbx)
	movb	$0, 1493311(%rbx)
	movb	$0, 1493305(%rbx)
	movb	$0, 1493342(%rbx)
	xorl	%edi, %edi
	jmp	.LBB0_475
.LBB0_419:                              # %if.else4907
	cmpb	$0, 616(%rbx)
	je	.LBB0_421
# %bb.420:                              # %if.then4910
	movb	610(%rbx), %al
	notb	%al
	andb	$1, %al
	movb	%al, 1491456(%rbx)
.LBB0_421:                              # %if.else4922
	cmpb	$0, 617(%rbx)
	je	.LBB0_423
# %bb.422:                              # %if.then4925
	movb	611(%rbx), %al
	notb	%al
	andb	$1, %al
	movb	%al, 1491455(%rbx)
.LBB0_423:                              # %if.else4936
	cmpb	$0, 657(%rbx)
	je	.LBB0_425
# %bb.424:                              # %if.then4939
	movb	651(%rbx), %al
	notb	%al
	andb	$1, %al
	movb	%al, 1491497(%rbx)
.LBB0_425:                              # %if.else4950
	cmpb	$0, 658(%rbx)
	je	.LBB0_427
# %bb.426:                              # %if.then4953
	movb	652(%rbx), %al
	notb	%al
	andb	$1, %al
	movb	%al, 1491496(%rbx)
.LBB0_427:                              # %if.else4964
	cmpb	$0, 650(%rbx)
	je	.LBB0_429
# %bb.428:                              # %if.then4967
	movb	644(%rbx), %al
	notb	%al
	andb	$1, %al
	movb	%al, 1491493(%rbx)
.LBB0_429:                              # %if.else4979
	cmpb	$0, 649(%rbx)
	je	.LBB0_431
# %bb.430:                              # %if.then4982
	movb	643(%rbx), %al
	notb	%al
	andb	$1, %al
	movb	%al, 1491487(%rbx)
.LBB0_431:                              # %if.else4994
	cmpb	$0, 1577(%rbx)
	je	.LBB0_433
# %bb.432:                              # %if.then4997
	movb	1571(%rbx), %al
	notb	%al
	andb	$1, %al
	movb	%al, 1492627(%rbx)
.LBB0_433:                              # %if.else5008
	cmpb	$0, 1576(%rbx)
	je	.LBB0_435
# %bb.434:                              # %if.then5011
	movb	1570(%rbx), %al
	notb	%al
	andb	$1, %al
	movb	%al, 1492621(%rbx)
.LBB0_435:                              # %if.else5022
	cmpb	$0, 1601(%rbx)
	je	.LBB0_437
# %bb.436:                              # %if.then5025
	movb	1595(%rbx), %al
	notb	%al
	andb	$1, %al
	movb	%al, 1492653(%rbx)
.LBB0_437:                              # %if.else5036
	cmpb	$0, 1600(%rbx)
	je	.LBB0_439
# %bb.438:                              # %if.then5039
	movb	1594(%rbx), %al
	notb	%al
	andb	$1, %al
	movb	%al, 1492646(%rbx)
.LBB0_439:                              # %if.else5050
	cmpb	$0, 1617(%rbx)
	je	.LBB0_441
# %bb.440:                              # %if.then5053
	movb	1611(%rbx), %al
	notb	%al
	andb	$1, %al
	movb	%al, 1492669(%rbx)
.LBB0_441:                              # %if.else5064
	cmpb	$0, 1616(%rbx)
	je	.LBB0_443
# %bb.442:                              # %if.then5067
	movb	1610(%rbx), %al
	notb	%al
	andb	$1, %al
	movb	%al, 1492663(%rbx)
.LBB0_443:                              # %if.else5079
	cmpb	$0, 1641(%rbx)
	je	.LBB0_445
# %bb.444:                              # %if.then5082
	movb	1635(%rbx), %al
	notb	%al
	andb	$1, %al
	movb	%al, 1492695(%rbx)
.LBB0_445:                              # %if.else5094
	cmpb	$0, 1640(%rbx)
	je	.LBB0_447
# %bb.446:                              # %if.then5097
	movb	1634(%rbx), %al
	notb	%al
	andb	$1, %al
	movb	%al, 1492688(%rbx)
.LBB0_447:                              # %if.else5108
	cmpb	$0, 574(%rbx)
	je	.LBB0_449
# %bb.448:                              # %if.then5111
	movb	568(%rbx), %al
	notb	%al
	andb	$1, %al
	movb	%al, 1491402(%rbx)
.LBB0_449:                              # %if.else5122
	cmpb	$0, 573(%rbx)
	je	.LBB0_451
# %bb.450:                              # %if.then5125
	movb	567(%rbx), %al
	notb	%al
	andb	$1, %al
	movb	%al, 1491396(%rbx)
.LBB0_451:                              # %if.else5136
	cmpb	$0, 634(%rbx)
	je	.LBB0_453
# %bb.452:                              # %if.then5139
	movb	628(%rbx), %al
	notb	%al
	andb	$1, %al
	movb	%al, 1491476(%rbx)
.LBB0_453:                              # %if.else5151
	cmpb	$0, 633(%rbx)
	je	.LBB0_455
# %bb.454:                              # %if.then5154
	movb	627(%rbx), %al
	notb	%al
	andb	$1, %al
	movb	%al, 1491470(%rbx)
.LBB0_455:                              # %if.else5166
	cmpb	$0, 674(%rbx)
	je	.LBB0_457
# %bb.456:                              # %if.then5169
	movb	668(%rbx), %al
	notb	%al
	andb	$1, %al
	movb	%al, 1491519(%rbx)
.LBB0_457:                              # %if.else5180
	cmpb	$0, 673(%rbx)
	je	.LBB0_459
# %bb.458:                              # %if.then5183
	movb	667(%rbx), %al
	notb	%al
	andb	$1, %al
	movb	%al, 1491512(%rbx)
.LBB0_459:                              # %if.else5195
	cmpb	$0, 1787(%rbx)
	je	.LBB0_461
# %bb.460:                              # %if.then5198
	movb	1781(%rbx), %al
	notb	%al
	andb	$1, %al
	movb	%al, 1492842(%rbx)
.LBB0_461:                              # %if.else5209
	cmpb	$0, 1786(%rbx)
	je	.LBB0_463
# %bb.462:                              # %if.then5212
	movb	1780(%rbx), %al
	notb	%al
	andb	$1, %al
	movb	%al, 1492836(%rbx)
.LBB0_463:                              # %if.else5223
	cmpb	$0, 2150(%rbx)
	je	.LBB0_465
# %bb.464:                              # %if.then5226
	movb	2144(%rbx), %al
	notb	%al
	andb	$1, %al
	movb	%al, 1493022(%rbx)
.LBB0_465:                              # %if.else5237
	cmpb	$0, 2149(%rbx)
	je	.LBB0_467
# %bb.466:                              # %if.then5240
	movb	2143(%rbx), %al
	notb	%al
	andb	$1, %al
	movb	%al, 1493016(%rbx)
.LBB0_467:                              # %if.else5251
	cmpb	$0, 3782(%rbx)
	je	.LBB0_469
# %bb.468:                              # %if.then5254
	movb	3776(%rbx), %al
	notb	%al
	andb	$1, %al
	movb	%al, 1493311(%rbx)
.LBB0_469:                              # %if.else5266
	cmpb	$0, 3781(%rbx)
	je	.LBB0_471
# %bb.470:                              # %if.then5269
	movb	3775(%rbx), %al
	notb	%al
	andb	$1, %al
	movb	%al, 1493305(%rbx)
.LBB0_471:                              # %if.else5280
	cmpb	$0, 3798(%rbx)
	je	.LBB0_473
# %bb.472:                              # %if.then5283
	movb	3792(%rbx), %al
	notb	%al
	andb	$1, %al
	movb	%al, 1493342(%rbx)
.LBB0_473:                              # %if.else5294
	cmpb	$0, 3797(%rbx)
	je	.LBB0_476
# %bb.474:                              # %if.then5297
	movb	3791(%rbx), %dil
	notb	%dil
	andb	$1, %dil
.LBB0_475:                              # %if.end5305.sink.split
	movb	%dil, 1493336(%rbx)
.LBB0_476:                              # %if.end5305
	movb	11403(%rbx), %al
	movb	%al, 11453(%rbx)
	movb	11401(%rbx), %al
	movb	%al, 11452(%rbx)
	movb	11399(%rbx), %al
	movb	%al, 11451(%rbx)
	movb	11397(%rbx), %al
	movb	%al, 11450(%rbx)
	movb	11395(%rbx), %al
	movb	%al, 11449(%rbx)
	movb	11405(%rbx), %al
	movb	%al, 11454(%rbx)
	movb	11391(%rbx), %al
	movb	11393(%rbx), %cl
	movb	%cl, 11448(%rbx)
	movb	%al, 11447(%rbx)
	movb	11944(%rbx), %al
	movb	%al, 11994(%rbx)
	movb	11942(%rbx), %al
	movb	%al, 11993(%rbx)
	movb	11940(%rbx), %al
	movb	%al, 11992(%rbx)
	movb	11938(%rbx), %al
	movb	%al, 11991(%rbx)
	movb	11936(%rbx), %al
	movb	%al, 11990(%rbx)
	movb	11946(%rbx), %al
	movb	%al, 11995(%rbx)
	movb	11932(%rbx), %al
	movb	11934(%rbx), %cl
	movb	%cl, 11989(%rbx)
	movb	%al, 11988(%rbx)
	movb	12485(%rbx), %al
	movb	%al, 12535(%rbx)
	movb	12483(%rbx), %al
	movb	%al, 12534(%rbx)
	movb	12481(%rbx), %al
	movb	%al, 12533(%rbx)
	movb	12479(%rbx), %al
	movb	%al, 12532(%rbx)
	movb	12477(%rbx), %al
	movb	%al, 12531(%rbx)
	movb	12487(%rbx), %al
	movb	%al, 12536(%rbx)
	movb	12473(%rbx), %al
	movb	12475(%rbx), %cl
	movb	%cl, 12530(%rbx)
	movb	%al, 12529(%rbx)
	testb	%r9b, %r9b
	je	.LBB0_477
# %bb.2647:                             # %if.then5711
	movb	$0, 1491384(%rbx)
	movb	$0, 1491381(%rbx)
	movw	$0, 1491485(%rbx)
	movw	$0, 1492619(%rbx)
	movw	$0, 1492661(%rbx)
	movb	$0, 1492824(%rbx)
	movb	$0, 1492821(%rbx)
	movb	$0, 1493004(%rbx)
	movb	$0, 1493001(%rbx)
	movb	$0, 1493293(%rbx)
	movb	$0, 1493290(%rbx)
	movb	$0, 1493324(%rbx)
	movb	$0, 1493321(%rbx)
	movw	$0, 1491510(%rbx)
	movw	$0, 1492644(%rbx)
	movw	$0, 1492686(%rbx)
	movb	$0, 1500(%rbx)
	movb	$0, 1491444(%rbx)
	movb	%r10b, 60158(%rbx)
	movb	%r8b, 60398(%rbx)
	movb	$0, 1491445(%rbx)
	movb	$0, 1491267(%rbx)
	movb	$0, 1491263(%rbx)
	movb	$0, 1493138(%rbx)
	xorl	%eax, %eax
	jmp	.LBB0_535
.LBB0_477:                              # %if.else5309
	cmpb	$0, 565(%rbx)
	je	.LBB0_479
# %bb.478:                              # %if.then5312
	movb	559(%rbx), %al
	notb	%al
	andb	$1, %al
	movb	%al, 1491384(%rbx)
.LBB0_479:                              # %if.else5324
	cmpb	$0, 566(%rbx)
	je	.LBB0_481
# %bb.480:                              # %if.then5327
	movb	560(%rbx), %al
	notb	%al
	andb	$1, %al
	movb	%al, 1491381(%rbx)
.LBB0_481:                              # %if.else5338
	cmpb	$0, 642(%rbx)
	je	.LBB0_483
# %bb.482:                              # %if.then5341
	movb	636(%rbx), %al
	notb	%al
	andb	$1, %al
	movb	%al, 1491486(%rbx)
.LBB0_483:                              # %if.else5353
	cmpb	$0, 641(%rbx)
	je	.LBB0_485
# %bb.484:                              # %if.then5356
	movb	635(%rbx), %al
	notb	%al
	andb	$1, %al
	movb	%al, 1491485(%rbx)
.LBB0_485:                              # %if.else5367
	cmpb	$0, 1569(%rbx)
	je	.LBB0_487
# %bb.486:                              # %if.then5370
	movb	1563(%rbx), %al
	notb	%al
	andb	$1, %al
	movb	%al, 1492620(%rbx)
.LBB0_487:                              # %if.else5381
	cmpb	$0, 1568(%rbx)
	je	.LBB0_489
# %bb.488:                              # %if.then5384
	movb	1562(%rbx), %al
	notb	%al
	andb	$1, %al
	movb	%al, 1492619(%rbx)
.LBB0_489:                              # %if.else5396
	cmpb	$0, 1609(%rbx)
	je	.LBB0_491
# %bb.490:                              # %if.then5399
	movb	1603(%rbx), %al
	notb	%al
	andb	$1, %al
	movb	%al, 1492662(%rbx)
.LBB0_491:                              # %if.else5411
	cmpb	$0, 1608(%rbx)
	je	.LBB0_493
# %bb.492:                              # %if.then5414
	movb	1602(%rbx), %al
	notb	%al
	andb	$1, %al
	movb	%al, 1492661(%rbx)
.LBB0_493:                              # %if.else5425
	cmpb	$0, 1778(%rbx)
	je	.LBB0_495
# %bb.494:                              # %if.then5428
	movb	1772(%rbx), %al
	notb	%al
	andb	$1, %al
	movb	%al, 1492824(%rbx)
.LBB0_495:                              # %if.else5440
	cmpb	$0, 1779(%rbx)
	je	.LBB0_497
# %bb.496:                              # %if.then5443
	movb	1773(%rbx), %al
	notb	%al
	andb	$1, %al
	movb	%al, 1492821(%rbx)
.LBB0_497:                              # %if.else5454
	cmpb	$0, 2141(%rbx)
	je	.LBB0_499
# %bb.498:                              # %if.then5457
	movb	2135(%rbx), %al
	notb	%al
	andb	$1, %al
	movb	%al, 1493004(%rbx)
.LBB0_499:                              # %if.else5468
	cmpb	$0, 2142(%rbx)
	je	.LBB0_501
# %bb.500:                              # %if.then5471
	movb	2136(%rbx), %al
	notb	%al
	andb	$1, %al
	movb	%al, 1493001(%rbx)
.LBB0_501:                              # %if.else5482
	cmpb	$0, 3773(%rbx)
	je	.LBB0_503
# %bb.502:                              # %if.then5485
	movb	3767(%rbx), %al
	notb	%al
	andb	$1, %al
	movb	%al, 1493293(%rbx)
.LBB0_503:                              # %if.else5497
	cmpb	$0, 3774(%rbx)
	je	.LBB0_505
# %bb.504:                              # %if.then5500
	movb	3768(%rbx), %al
	notb	%al
	andb	$1, %al
	movb	%al, 1493290(%rbx)
.LBB0_505:                              # %if.else5511
	cmpb	$0, 3789(%rbx)
	je	.LBB0_507
# %bb.506:                              # %if.then5514
	movb	3783(%rbx), %al
	notb	%al
	andb	$1, %al
	movb	%al, 1493324(%rbx)
.LBB0_507:                              # %if.else5526
	cmpb	$0, 3790(%rbx)
	je	.LBB0_509
# %bb.508:                              # %if.then5529
	movb	3784(%rbx), %al
	notb	%al
	andb	$1, %al
	movb	%al, 1493321(%rbx)
.LBB0_509:                              # %if.else5541
	cmpb	$0, 666(%rbx)
	je	.LBB0_511
# %bb.510:                              # %if.then5544
	movb	660(%rbx), %al
	notb	%al
	andb	$1, %al
	movb	%al, 1491511(%rbx)
.LBB0_511:                              # %if.else5555
	cmpb	$0, 665(%rbx)
	je	.LBB0_513
# %bb.512:                              # %if.then5558
	movb	659(%rbx), %al
	notb	%al
	andb	$1, %al
	movb	%al, 1491510(%rbx)
.LBB0_513:                              # %if.else5569
	cmpb	$0, 1593(%rbx)
	je	.LBB0_515
# %bb.514:                              # %if.then5572
	movb	1587(%rbx), %al
	notb	%al
	andb	$1, %al
	movb	%al, 1492645(%rbx)
.LBB0_515:                              # %if.else5583
	cmpb	$0, 1592(%rbx)
	je	.LBB0_517
# %bb.516:                              # %if.then5586
	movb	1586(%rbx), %al
	notb	%al
	andb	$1, %al
	movb	%al, 1492644(%rbx)
.LBB0_517:                              # %if.else5598
	cmpb	$0, 1633(%rbx)
	je	.LBB0_519
# %bb.518:                              # %if.then5601
	movb	1627(%rbx), %al
	notb	%al
	andb	$1, %al
	movb	%al, 1492687(%rbx)
.LBB0_519:                              # %if.else5613
	cmpb	$0, 1632(%rbx)
	je	.LBB0_521
# %bb.520:                              # %if.then5616
	movb	1626(%rbx), %al
	notb	%al
	andb	$1, %al
	movb	%al, 1492686(%rbx)
.LBB0_521:                              # %if.else5627
	movb	1504(%rbx), %al
	cmpb	1505(%rbx), %al
	je	.LBB0_523
# %bb.522:                              # %if.then5631
	movb	%al, 1500(%rbx)
.LBB0_523:                              # %if.else5639
	cmpb	$0, 599(%rbx)
	je	.LBB0_525
# %bb.524:                              # %if.then5642
	movb	593(%rbx), %al
	notb	%al
	andb	$1, %al
	movb	%al, 1491444(%rbx)
.LBB0_525:                              # %if.else5656
	movb	%r10b, 60158(%rbx)
	movb	%r8b, 60398(%rbx)
	cmpb	$0, 600(%rbx)
	je	.LBB0_527
# %bb.526:                              # %if.then5659
	movb	594(%rbx), %al
	notb	%al
	andb	$1, %al
	movb	%al, 1491445(%rbx)
.LBB0_527:                              # %if.else5670
	cmpb	$0, 296(%rbx)
	je	.LBB0_529
# %bb.528:                              # %if.then5673
	movb	290(%rbx), %al
	notb	%al
	andb	$1, %al
	movb	%al, 1491267(%rbx)
.LBB0_529:                              # %if.else5684
	cmpb	$0, 297(%rbx)
	je	.LBB0_531
# %bb.530:                              # %if.then5687
	movb	291(%rbx), %al
	notb	%al
	andb	$1, %al
	movb	%al, 1491263(%rbx)
.LBB0_531:                              # %if.else5698
	cmpb	$0, 2218(%rbx)
	je	.LBB0_533
# %bb.532:                              # %if.then5701
	movb	2212(%rbx), %al
	notb	%al
	andb	$1, %al
	movb	%al, 1493138(%rbx)
.LBB0_533:                              # %if.else5712
	cmpb	$0, 2219(%rbx)
	je	.LBB0_536
# %bb.534:                              # %if.then5715
	movb	2213(%rbx), %al
	notb	%al
	andb	$1, %al
.LBB0_535:                              # %if.end5722.sink.split
	movb	%al, 1493134(%rbx)
.LBB0_536:                              # %if.end5722
	cmpb	$0, 67913(%rbx)
	je	.LBB0_538
# %bb.537:                              # %if.then5724
	movl	88172(%rbx), %eax
	movl	%eax, 220408(%rbx)
.LBB0_538:                              # %if.end5725
	movb	556(%rbx), %al
	notb	%al
	andb	444(%rbx), %al
	andb	527(%rbx), %al
	orb	%r9b, %al
	notb	%al
	andb	538(%rbx), %al
	movb	%al, 533(%rbx)
	cmpb	$0, 68356(%rbx)
	je	.LBB0_539
# %bb.2648:                             # %if.then5781
	movw	$0, 68102(%rbx)
	xorl	%eax, %eax
	jmp	.LBB0_545
.LBB0_539:                              # %if.else5745
	movzbl	68115(%rbx), %eax
	movq	271768(%rbx), %rcx
	movl	%ecx, %edx
	shrl	$2, %edx
	testl	%eax, %edx
	je	.LBB0_541
# %bb.540:                              # %if.then5751
	movb	271928(%rbx), %dl
	shrb	$2, %dl
	andb	$1, %dl
	movb	%dl, 68103(%rbx)
.LBB0_541:                              # %if.else5762
	movl	%ecx, %edx
	shrl	%edx
	testl	%eax, %edx
	je	.LBB0_543
# %bb.542:                              # %if.then5770
	movb	271928(%rbx), %dl
	shrb	%dl
	andb	$1, %dl
	movb	%dl, 68102(%rbx)
.LBB0_543:                              # %if.else5782
	testl	%eax, %ecx
	je	.LBB0_546
# %bb.544:                              # %if.then5789
	movb	271928(%rbx), %al
	andb	$1, %al
.LBB0_545:                              # %if.end5796.sink.split
	movb	%al, 68101(%rbx)
.LBB0_546:                              # %if.end5796
	movb	15471(%rbx), %al
	movb	%al, 10829(%rbx)
	movb	%al, 10824(%rbx)
	movb	%al, 10820(%rbx)
	movb	%al, 10834(%rbx)
	movq	262984(%rbx), %rax
	movq	%rax, 263144(%rbx)
	movb	1622(%rbx), %al
	orb	1664(%rbx), %al
	testb	$1, %al
	jne	.LBB0_548
# %bb.547:                              # %if.then5807
	movzbl	1619(%rbx), %eax
	movb	277636(%rbx,%rax), %al
	movb	%al, 1492717(%rbx)
	movb	$1, 1492718(%rbx)
	movb	1659(%rbx), %al
	movb	%al, 1492716(%rbx)
.LBB0_548:                              # %if.end5811
	movb	1002(%rbx), %al
	notb	%al
	testb	%al, 784(%rbx)
	je	.LBB0_550
# %bb.549:                              # %if.then5826
	movb	1371(%rbx), %al
	movb	1372(%rbx), %cl
	movb	%al, 1491837(%rbx)
	movb	$1, 1491838(%rbx)
	movb	%cl, 1491835(%rbx)
	movb	$1, 1491836(%rbx)
.LBB0_550:                              # %if.end5827
	testb	%sil, %sil
	je	.LBB0_552
# %bb.551:
	xorl	%eax, %eax
	jmp	.LBB0_554
.LBB0_552:                              # %if.else5831
	cmpb	$0, 70905(%rbx)
	je	.LBB0_555
# %bb.553:                              # %if.then5833
	movb	70899(%rbx), %al
	notb	%al
	andb	$1, %al
.LBB0_554:                              # %if.end5840.sink.split
	movb	%al, 1497744(%rbx)
.LBB0_555:                              # %if.end5840
	cmpb	$0, 2779(%rbx)
	je	.LBB0_559
# %bb.556:                              # %cond.true5843
	cmpb	$0, 2775(%rbx)
	je	.LBB0_558
# %bb.557:                              # %cond.true5846
	movb	2711(%rbx), %al
	jmp	.LBB0_560
.LBB0_559:                              # %cond.false5853
	movb	2777(%rbx), %al
	andb	$1, %al
	xorb	$65, %al
	jmp	.LBB0_560
.LBB0_558:                              # %cond.false5848
	movb	2774(%rbx), %al
	orb	$32, %al
.LBB0_560:                              # %cond.end5858
	movb	%al, 2410(%rbx)
	cmpb	$0, 2974(%rbx)
	je	.LBB0_564
# %bb.561:                              # %cond.true5863
	cmpb	$0, 2970(%rbx)
	je	.LBB0_563
# %bb.562:                              # %cond.true5866
	movb	2906(%rbx), %al
	jmp	.LBB0_565
.LBB0_564:                              # %cond.false5873
	movb	2972(%rbx), %al
	andb	$1, %al
	xorb	$65, %al
	jmp	.LBB0_565
.LBB0_563:                              # %cond.false5868
	movb	2969(%rbx), %al
	orb	$32, %al
.LBB0_565:                              # %cond.end5878
	movb	%al, 2411(%rbx)
	movb	900(%rbx), %al
	notb	%al
	testb	%al, 750(%rbx)
	je	.LBB0_567
# %bb.566:                              # %if.then5896
	movb	1371(%rbx), %al
	movb	1372(%rbx), %cl
	movb	%al, 1491701(%rbx)
	movb	$1, 1491702(%rbx)
	movb	%cl, 1491699(%rbx)
	movb	$1, 1491700(%rbx)
.LBB0_567:                              # %if.end5898
	movzbl	25029(%rbx), %eax
	movd	%eax, %xmm0
                                        # kill: def $al killed $al killed $eax
	shrb	%al
	movl	25028(%rbx), %edi
	movzbl	25015(%rbx), %ebp
	movzbl	25014(%rbx), %esi
	movd	%esi, %xmm1
	movl	%esi, %ecx
	shrb	%cl
	movzbl	25021(%rbx), %esi
	movd	%esi, %xmm2
	movl	%esi, %edx
	shrb	%dl
	movzbl	%dl, %edx
	movd	%edx, %xmm3
	movl	25020(%rbx), %edx
	movd	%edx, %xmm4
                                        # kill: def $dl killed $dl killed $edx
	shrb	%dl
	movzbl	%dl, %edx
	movd	%edx, %xmm5
	movzbl	25019(%rbx), %edx
	punpcklbw	%xmm3, %xmm2    # xmm2 = xmm2[0],xmm3[0],xmm2[1],xmm3[1],xmm2[2],xmm3[2],xmm2[3],xmm3[3],xmm2[4],xmm3[4],xmm2[5],xmm3[5],xmm2[6],xmm3[6],xmm2[7],xmm3[7]
	movd	%edx, %xmm3
                                        # kill: def $dl killed $dl killed $edx
	shrb	%dl
	punpcklbw	%xmm5, %xmm4    # xmm4 = xmm4[0],xmm5[0],xmm4[1],xmm5[1],xmm4[2],xmm5[2],xmm4[3],xmm5[3],xmm4[4],xmm5[4],xmm4[5],xmm5[5],xmm4[6],xmm5[6],xmm4[7],xmm5[7]
	movzbl	%dl, %edx
	movd	%edx, %xmm5
	movzbl	25018(%rbx), %edx
	punpcklwd	%xmm2, %xmm4    # xmm4 = xmm4[0],xmm2[0],xmm4[1],xmm2[1],xmm4[2],xmm2[2],xmm4[3],xmm2[3]
	movd	%edx, %xmm2
                                        # kill: def $dl killed $dl killed $edx
	shrb	%dl
	punpcklbw	%xmm5, %xmm3    # xmm3 = xmm3[0],xmm5[0],xmm3[1],xmm5[1],xmm3[2],xmm5[2],xmm3[3],xmm5[3],xmm3[4],xmm5[4],xmm3[5],xmm5[5],xmm3[6],xmm5[6],xmm3[7],xmm5[7]
	movzbl	%dl, %edx
	movd	%edx, %xmm5
	movzbl	25017(%rbx), %edx
	punpcklbw	%xmm5, %xmm2    # xmm2 = xmm2[0],xmm5[0],xmm2[1],xmm5[1],xmm2[2],xmm5[2],xmm2[3],xmm5[3],xmm2[4],xmm5[4],xmm2[5],xmm5[5],xmm2[6],xmm5[6],xmm2[7],xmm5[7]
	movd	%edx, %xmm5
                                        # kill: def $dl killed $dl killed $edx
	shrb	%dl
	punpcklwd	%xmm3, %xmm2    # xmm2 = xmm2[0],xmm3[0],xmm2[1],xmm3[1],xmm2[2],xmm3[2],xmm2[3],xmm3[3]
	movzbl	%dl, %edx
	movd	%edx, %xmm3
	movl	25016(%rbx), %edx
	punpckldq	%xmm4, %xmm2    # xmm2 = xmm2[0],xmm4[0],xmm2[1],xmm4[1]
	movd	%edx, %xmm4
                                        # kill: def $dl killed $dl killed $edx
	shrb	%dl
	punpcklbw	%xmm3, %xmm5    # xmm5 = xmm5[0],xmm3[0],xmm5[1],xmm3[1],xmm5[2],xmm3[2],xmm5[3],xmm3[3],xmm5[4],xmm3[4],xmm5[5],xmm3[5],xmm5[6],xmm3[6],xmm5[7],xmm3[7]
	movzbl	%dl, %edx
	movd	%edx, %xmm3
	punpcklbw	%xmm3, %xmm4    # xmm4 = xmm4[0],xmm3[0],xmm4[1],xmm3[1],xmm4[2],xmm3[2],xmm4[3],xmm3[3],xmm4[4],xmm3[4],xmm4[5],xmm3[5],xmm4[6],xmm3[6],xmm4[7],xmm3[7]
	movd	%ebp, %xmm6
	movl	%ebp, %edx
	shrb	%dl
	punpcklwd	%xmm5, %xmm4    # xmm4 = xmm4[0],xmm5[0],xmm4[1],xmm5[1],xmm4[2],xmm5[2],xmm4[3],xmm5[3]
	movzbl	%dl, %edx
	movd	%edx, %xmm3
	punpcklbw	%xmm3, %xmm6    # xmm6 = xmm6[0],xmm3[0],xmm6[1],xmm3[1],xmm6[2],xmm3[2],xmm6[3],xmm3[3],xmm6[4],xmm3[4],xmm6[5],xmm3[5],xmm6[6],xmm3[6],xmm6[7],xmm3[7]
	movzbl	%cl, %ecx
	movd	%ecx, %xmm3
	punpcklbw	%xmm3, %xmm1    # xmm1 = xmm1[0],xmm3[0],xmm1[1],xmm3[1],xmm1[2],xmm3[2],xmm1[3],xmm3[3],xmm1[4],xmm3[4],xmm1[5],xmm3[5],xmm1[6],xmm3[6],xmm1[7],xmm3[7]
	movd	%edi, %xmm3
	movl	%edi, %ecx
	shrb	%cl
	movzbl	25027(%rbx), %edx
	punpcklwd	%xmm6, %xmm1    # xmm1 = xmm1[0],xmm6[0],xmm1[1],xmm6[1],xmm1[2],xmm6[2],xmm1[3],xmm6[3]
	movd	%edx, %xmm5
                                        # kill: def $dl killed $dl killed $edx
	shrb	%dl
	movzbl	25026(%rbx), %esi
	movl	25024(%rbx), %edi
	punpckldq	%xmm4, %xmm1    # xmm1 = xmm1[0],xmm4[0],xmm1[1],xmm4[1]
	movzbl	%al, %eax
	movd	%eax, %xmm4
	movzbl	25025(%rbx), %ebp
	punpcklqdq	%xmm2, %xmm1    # xmm1 = xmm1[0],xmm2[0]
	movdqa	.LCPI0_0(%rip), %xmm2   # xmm2 = [1,1,1,1,1,1,1,1,1,1,1,1,1,1,1,1]
	pand	%xmm2, %xmm1
	movdqu	%xmm1, 25134(%rbx)
	movd	%esi, %xmm1
	movl	%esi, %eax
	shrb	%al
	punpcklbw	%xmm4, %xmm0    # xmm0 = xmm0[0],xmm4[0],xmm0[1],xmm4[1],xmm0[2],xmm4[2],xmm0[3],xmm4[3],xmm0[4],xmm4[4],xmm0[5],xmm4[5],xmm0[6],xmm4[6],xmm0[7],xmm4[7]
	movzbl	%cl, %ecx
	movd	%ecx, %xmm4
	punpcklbw	%xmm4, %xmm3    # xmm3 = xmm3[0],xmm4[0],xmm3[1],xmm4[1],xmm3[2],xmm4[2],xmm3[3],xmm4[3],xmm3[4],xmm4[4],xmm3[5],xmm4[5],xmm3[6],xmm4[6],xmm3[7],xmm4[7]
	movd	%edi, %xmm4
	movl	%edi, %ecx
	shrb	%cl
	punpcklwd	%xmm0, %xmm3    # xmm3 = xmm3[0],xmm0[0],xmm3[1],xmm0[1],xmm3[2],xmm0[2],xmm3[3],xmm0[3]
	movzbl	%dl, %edx
	movd	%edx, %xmm0
	punpcklbw	%xmm0, %xmm5    # xmm5 = xmm5[0],xmm0[0],xmm5[1],xmm0[1],xmm5[2],xmm0[2],xmm5[3],xmm0[3],xmm5[4],xmm0[4],xmm5[5],xmm0[5],xmm5[6],xmm0[6],xmm5[7],xmm0[7]
	movzbl	%al, %eax
	movd	%eax, %xmm0
	punpcklbw	%xmm0, %xmm1    # xmm1 = xmm1[0],xmm0[0],xmm1[1],xmm0[1],xmm1[2],xmm0[2],xmm1[3],xmm0[3],xmm1[4],xmm0[4],xmm1[5],xmm0[5],xmm1[6],xmm0[6],xmm1[7],xmm0[7]
	movd	%ebp, %xmm0
	movl	%ebp, %eax
	shrb	%al
	movzbl	25022(%rbx), %edx
	punpcklwd	%xmm5, %xmm1    # xmm1 = xmm1[0],xmm5[0],xmm1[1],xmm5[1],xmm1[2],xmm5[2],xmm1[3],xmm5[3]
	movd	%edx, %xmm5
                                        # kill: def $dl killed $dl killed $edx
	shrb	%dl
	movzbl	25023(%rbx), %esi
	punpckldq	%xmm3, %xmm1    # xmm1 = xmm1[0],xmm3[0],xmm1[1],xmm3[1]
	movzbl	%al, %eax
	movd	%eax, %xmm3
	punpcklbw	%xmm3, %xmm0    # xmm0 = xmm0[0],xmm3[0],xmm0[1],xmm3[1],xmm0[2],xmm3[2],xmm0[3],xmm3[3],xmm0[4],xmm3[4],xmm0[5],xmm3[5],xmm0[6],xmm3[6],xmm0[7],xmm3[7]
	movzbl	%cl, %eax
	movd	%eax, %xmm3
	punpcklbw	%xmm3, %xmm4    # xmm4 = xmm4[0],xmm3[0],xmm4[1],xmm3[1],xmm4[2],xmm3[2],xmm4[3],xmm3[3],xmm4[4],xmm3[4],xmm4[5],xmm3[5],xmm4[6],xmm3[6],xmm4[7],xmm3[7]
	movd	%esi, %xmm3
	movl	%esi, %eax
	shrb	%al
	punpcklwd	%xmm0, %xmm4    # xmm4 = xmm4[0],xmm0[0],xmm4[1],xmm0[1],xmm4[2],xmm0[2],xmm4[3],xmm0[3]
	movzbl	%al, %eax
	movd	%eax, %xmm0
	punpcklbw	%xmm0, %xmm3    # xmm3 = xmm3[0],xmm0[0],xmm3[1],xmm0[1],xmm3[2],xmm0[2],xmm3[3],xmm0[3],xmm3[4],xmm0[4],xmm3[5],xmm0[5],xmm3[6],xmm0[6],xmm3[7],xmm0[7]
	movzbl	%dl, %eax
	movd	%eax, %xmm0
	punpcklbw	%xmm0, %xmm5    # xmm5 = xmm5[0],xmm0[0],xmm5[1],xmm0[1],xmm5[2],xmm0[2],xmm5[3],xmm0[3],xmm5[4],xmm0[4],xmm5[5],xmm0[5],xmm5[6],xmm0[6],xmm5[7],xmm0[7]
	punpcklwd	%xmm3, %xmm5    # xmm5 = xmm5[0],xmm3[0],xmm5[1],xmm3[1],xmm5[2],xmm3[2],xmm5[3],xmm3[3]
	punpckldq	%xmm4, %xmm5    # xmm5 = xmm5[0],xmm4[0],xmm5[1],xmm4[1]
	punpcklqdq	%xmm1, %xmm5    # xmm5 = xmm5[0],xmm1[0]
	pand	%xmm2, %xmm5
	movdqu	%xmm5, 25150(%rbx)
	movb	73810(%rbx), %al
	movl	%eax, %ecx
	shrb	%cl
	andb	$1, %cl
	movb	%cl, 23143(%rbx)
	movb	73824(%rbx), %cl
	movl	%ecx, %edx
	shrb	$3, %dl
	andb	$1, %dl
	movb	%dl, 23173(%rbx)
	andb	$1, %al
	movb	%al, 23142(%rbx)
	movb	73808(%rbx), %dl
	movl	%edx, %eax
	shrb	$2, %al
	andb	$1, %al
	movb	%al, 23140(%rbx)
	andb	$1, %cl
	movb	%cl, 23170(%rbx)
	movb	73804(%rbx), %dil
	movb	73806(%rbx), %al
	movl	%eax, %ecx
	shrb	$2, %cl
	andb	$1, %cl
	movb	%cl, 23136(%rbx)
	movb	73822(%rbx), %cl
	andb	$1, %cl
	movb	%cl, 23166(%rbx)
	movl	%eax, %ecx
	shrb	%cl
	andb	$1, %cl
	movb	%cl, 23135(%rbx)
	movb	73820(%rbx), %cl
	shrb	$3, %cl
	andb	$1, %cl
	movb	%cl, 23165(%rbx)
	movl	%edi, %ecx
	shrb	%cl
	andb	$1, %cl
	movb	%cl, 23131(%rbx)
	movb	73818(%rbx), %r8b
	movl	%r8d, %ecx
	shrb	$3, %cl
	andb	$1, %cl
	movb	%cl, 23161(%rbx)
	shrb	$3, %dl
	andb	$1, %dl
	movb	%dl, 23141(%rbx)
	movl	%eax, %ecx
	shrb	$3, %cl
	andb	$1, %cl
	movb	%cl, 23137(%rbx)
	movb	73814(%rbx), %sil
	movl	%esi, %ecx
	andb	$1, %cl
	movb	%cl, 23150(%rbx)
	movl	%edi, %ecx
	shrb	$3, %cl
	andb	$1, %cl
	movb	%cl, 23133(%rbx)
	andb	$1, %al
	movb	%al, 23134(%rbx)
	movl	%r8d, %eax
	shrb	$2, %al
	andb	$1, %al
	movb	%al, 23160(%rbx)
	movb	73834(%rbx), %al
	movl	%eax, %ecx
	andb	$1, %cl
	movb	%cl, 23190(%rbx)
	andb	$1, %r8b
	movb	%r8b, 23158(%rbx)
	movb	73816(%rbx), %dl
	movl	%edx, %ecx
	andb	$1, %cl
	movb	%cl, 23154(%rbx)
	movb	73808(%rbx), %r9b
	movb	73810(%rbx), %r8b
	movl	%r8d, %ecx
	shrb	$3, %cl
	andb	$1, %cl
	movb	%cl, 23145(%rbx)
	movl	%edi, %ecx
	andb	$1, %cl
	movb	%cl, 23130(%rbx)
	shrb	%al
	andb	$1, %al
	movb	%al, 23191(%rbx)
	movl	%r9d, %eax
	andb	$1, %al
	movb	%al, 23138(%rbx)
	shrb	$2, %dl
	andb	$1, %dl
	movb	%dl, 23156(%rbx)
	movb	73832(%rbx), %al
	andb	$1, %al
	movb	%al, 23186(%rbx)
	shrb	$2, %dil
	andb	$1, %dil
	movb	%dil, 23132(%rbx)
	movb	73820(%rbx), %al
	andb	$1, %al
	movb	%al, 23162(%rbx)
	shrb	%sil
	andb	$1, %sil
	movb	%sil, 23151(%rbx)
	movb	73828(%rbx), %sil
	movl	%esi, %ecx
	shrb	$3, %cl
	andb	$1, %cl
	movb	%cl, 23181(%rbx)
	shrb	%r9b
	andb	$1, %r9b
	movb	%r9b, 23139(%rbx)
	movb	73822(%rbx), %cl
	shrb	$3, %cl
	andb	$1, %cl
	movb	%cl, 23169(%rbx)
	movb	73824(%rbx), %cl
	shrb	%cl
	andb	$1, %cl
	movb	%cl, 23171(%rbx)
	shrb	$2, %r8b
	andb	$1, %r8b
	movb	%r8b, 23144(%rbx)
	movb	73826(%rbx), %cl
	movl	%ecx, %edx
	andb	$1, %dl
	movb	%dl, 23174(%rbx)
	movl	%ecx, %edx
	shrb	$2, %dl
	andb	$1, %dl
	movb	%dl, 23176(%rbx)
	movb	73812(%rbx), %al
	movl	%eax, %edx
	andb	$1, %dl
	movb	%dl, 23146(%rbx)
	movl	%eax, %edx
	shrb	%dl
	andb	$1, %dl
	movb	%dl, 23147(%rbx)
	shrb	$3, %cl
	andb	$1, %cl
	movb	%cl, 23177(%rbx)
	movl	%eax, %ecx
	shrb	$2, %cl
	andb	$1, %cl
	movb	%cl, 23148(%rbx)
	andb	$1, %sil
	movb	%sil, 23178(%rbx)
	shrb	$3, %al
	andb	$1, %al
	movb	%al, 23149(%rbx)
	movb	73814(%rbx), %cl
	movl	%ecx, %eax
	shrb	$2, %al
	andb	$1, %al
	movb	%al, 23152(%rbx)
	movb	73830(%rbx), %sil
	movl	%esi, %edx
	andb	$1, %dl
	movb	%dl, 23182(%rbx)
	shrb	$3, %cl
	andb	$1, %cl
	movb	%cl, 23153(%rbx)
	movb	73816(%rbx), %cl
	movl	%ecx, %edx
	shrb	%dl
	andb	$1, %dl
	movb	%dl, 23155(%rbx)
	movl	%esi, %edx
	shrb	$3, %dl
	andb	$1, %dl
	movb	%dl, 23185(%rbx)
	shrb	$3, %cl
	andb	$1, %cl
	movb	%cl, 23157(%rbx)
	movb	73818(%rbx), %cl
	shrb	%cl
	andb	$1, %cl
	movb	%cl, 23159(%rbx)
	movb	73832(%rbx), %cl
	movl	%ecx, %edx
	shrb	$3, %dl
	andb	$1, %dl
	movb	%dl, 23189(%rbx)
	movb	73820(%rbx), %al
	movl	%eax, %edx
	shrb	%dl
	andb	$1, %dl
	movb	%dl, 23163(%rbx)
	movb	73834(%rbx), %dil
	movl	%edi, %edx
	shrb	$3, %dl
	andb	$1, %dl
	movb	%dl, 23193(%rbx)
	shrb	$2, %al
	andb	$1, %al
	movb	%al, 23164(%rbx)
	movb	73822(%rbx), %al
	movl	%eax, %edx
	shrb	%dl
	andb	$1, %dl
	movb	%dl, 23167(%rbx)
	shrb	$2, %al
	andb	$1, %al
	movb	%al, 23168(%rbx)
	movb	73824(%rbx), %al
	shrb	$2, %al
	andb	$1, %al
	movb	%al, 23172(%rbx)
	movb	73826(%rbx), %al
	shrb	%al
	andb	$1, %al
	movb	%al, 23175(%rbx)
	movb	73828(%rbx), %al
	movl	%eax, %edx
	shrb	%dl
	andb	$1, %dl
	movb	%dl, 23179(%rbx)
	shrb	$2, %al
	andb	$1, %al
	movb	%al, 23180(%rbx)
	movl	%esi, %eax
	shrb	%al
	andb	$1, %al
	movb	%al, 23183(%rbx)
	shrb	$2, %sil
	andb	$1, %sil
	movb	%sil, 23184(%rbx)
	movl	%ecx, %eax
	shrb	%al
	andb	$1, %al
	movb	%al, 23187(%rbx)
	shrb	$2, %cl
	andb	$1, %cl
	movb	%cl, 23188(%rbx)
	shrb	$2, %dil
	andb	$1, %dil
	movb	%dil, 23192(%rbx)
	movb	73668(%rbx), %al
	movl	%eax, %ecx
	shrb	$4, %cl
	andb	$1, %cl
	movb	%cl, 19490(%rbx)
	movl	%eax, %ecx
	shrb	$3, %cl
	andb	$1, %cl
	movb	%cl, 19489(%rbx)
	andb	$1, %al
	movb	%al, 19486(%rbx)
	movb	73666(%rbx), %al
	movl	%eax, %ecx
	shrb	$4, %cl
	andb	$1, %cl
	movb	%cl, 19485(%rbx)
	movl	%eax, %ecx
	shrb	$3, %cl
	andb	$1, %cl
	movb	%cl, 19484(%rbx)
	andb	$1, %al
	movb	%al, 19481(%rbx)
	movb	73664(%rbx), %al
	movl	%eax, %ecx
	shrb	$4, %cl
	andb	$1, %cl
	movb	%cl, 19480(%rbx)
	movl	%eax, %ecx
	shrb	$3, %cl
	andb	$1, %cl
	movb	%cl, 19479(%rbx)
	andb	$1, %al
	movb	%al, 19476(%rbx)
	movb	73662(%rbx), %al
	movl	%eax, %ecx
	shrb	$4, %cl
	andb	$1, %cl
	movb	%cl, 19475(%rbx)
	movl	%eax, %ecx
	shrb	$3, %cl
	andb	$1, %cl
	movb	%cl, 19474(%rbx)
	andb	$1, %al
	movb	%al, 19471(%rbx)
	movb	73660(%rbx), %al
	movl	%eax, %ecx
	shrb	$4, %cl
	andb	$1, %cl
	movb	%cl, 19470(%rbx)
	movl	%eax, %ecx
	shrb	$3, %cl
	andb	$1, %cl
	movb	%cl, 19469(%rbx)
	andb	$1, %al
	movb	%al, 19466(%rbx)
	movb	73658(%rbx), %al
	movl	%eax, %ecx
	shrb	$4, %cl
	andb	$1, %cl
	movb	%cl, 19465(%rbx)
	movl	%eax, %ecx
	shrb	$3, %cl
	andb	$1, %cl
	movb	%cl, 19464(%rbx)
	andb	$1, %al
	movb	%al, 19461(%rbx)
	movb	73656(%rbx), %al
	movl	%eax, %ecx
	shrb	$4, %cl
	andb	$1, %cl
	movb	%cl, 19460(%rbx)
	movl	%eax, %ecx
	shrb	$3, %cl
	andb	$1, %cl
	movb	%cl, 19459(%rbx)
	andb	$1, %al
	movb	%al, 19456(%rbx)
	movb	73654(%rbx), %al
	movl	%eax, %ecx
	shrb	$4, %cl
	andb	$1, %cl
	movb	%cl, 19455(%rbx)
	movl	%eax, %ecx
	shrb	$3, %cl
	andb	$1, %cl
	movb	%cl, 19454(%rbx)
	andb	$1, %al
	movb	%al, 19451(%rbx)
	movb	73652(%rbx), %al
	shrb	$3, %al
	andb	$1, %al
	movb	%al, 19449(%rbx)
	movb	73650(%rbx), %al
	movl	%eax, %ecx
	shrb	$4, %cl
	andb	$1, %cl
	movb	%cl, 19445(%rbx)
	shrb	$3, %al
	andb	$1, %al
	movb	%al, 19444(%rbx)
	movb	73648(%rbx), %al
	movl	%eax, %ecx
	shrb	$4, %cl
	andb	$1, %cl
	movb	%cl, 19440(%rbx)
	shrb	$3, %al
	andb	$1, %al
	movb	%al, 19439(%rbx)
	movb	73646(%rbx), %al
	movl	%eax, %ecx
	shrb	$4, %cl
	andb	$1, %cl
	movb	%cl, 19435(%rbx)
	shrb	$3, %al
	andb	$1, %al
	movb	%al, 19434(%rbx)
	movb	73644(%rbx), %al
	movl	%eax, %ecx
	shrb	$4, %cl
	andb	$1, %cl
	movb	%cl, 19430(%rbx)
	shrb	$3, %al
	andb	$1, %al
	movb	%al, 19429(%rbx)
	movb	73668(%rbx), %al
	shrb	%al
	andb	$1, %al
	movb	%al, 19487(%rbx)
	movb	73642(%rbx), %al
	movl	%eax, %ecx
	shrb	$4, %cl
	andb	$1, %cl
	movb	%cl, 19425(%rbx)
	shrb	$3, %al
	andb	$1, %al
	movb	%al, 19424(%rbx)
	movb	73666(%rbx), %al
	shrb	%al
	andb	$1, %al
	movb	%al, 19482(%rbx)
	movb	73640(%rbx), %al
	movl	%eax, %ecx
	shrb	$4, %cl
	andb	$1, %cl
	movb	%cl, 19420(%rbx)
	movl	%eax, %ecx
	shrb	$3, %cl
	andb	$1, %cl
	movb	%cl, 19419(%rbx)
	movb	73664(%rbx), %cl
	movl	%ecx, %edx
	shrb	$2, %dl
	andb	$1, %dl
	movb	%dl, 19478(%rbx)
	andb	$1, %al
	movb	%al, 19416(%rbx)
	shrb	%cl
	andb	$1, %cl
	movb	%cl, 19477(%rbx)
	movb	73638(%rbx), %al
	movl	%eax, %ecx
	shrb	$4, %cl
	andb	$1, %cl
	movb	%cl, 19415(%rbx)
	movl	%eax, %ecx
	shrb	$3, %cl
	andb	$1, %cl
	movb	%cl, 19414(%rbx)
	movb	73662(%rbx), %cl
	movl	%ecx, %edx
	shrb	$2, %dl
	andb	$1, %dl
	movb	%dl, 19473(%rbx)
	andb	$1, %al
	movb	%al, 19411(%rbx)
	shrb	%cl
	andb	$1, %cl
	movb	%cl, 19472(%rbx)
	movb	73636(%rbx), %sil
	movl	%esi, %ecx
	shrb	$4, %cl
	andb	$1, %cl
	movb	%cl, 19410(%rbx)
	movl	%esi, %ecx
	shrb	$3, %cl
	andb	$1, %cl
	movb	%cl, 19409(%rbx)
	movb	73660(%rbx), %cl
	movl	%ecx, %edx
	shrb	$2, %dl
	andb	$1, %dl
	movb	%dl, 19468(%rbx)
	movl	%esi, %edx
	andb	$1, %dl
	movb	%dl, 19406(%rbx)
	shrb	%cl
	andb	$1, %cl
	movb	%cl, 19467(%rbx)
	movb	73634(%rbx), %cl
	movl	%ecx, %edx
	shrb	$4, %dl
	andb	$1, %dl
	movb	%dl, 19405(%rbx)
	movl	%ecx, %edx
	shrb	$3, %dl
	andb	$1, %dl
	movb	%dl, 19404(%rbx)
	movb	73658(%rbx), %al
	movl	%eax, %edx
	shrb	$2, %dl
	andb	$1, %dl
	movb	%dl, 19463(%rbx)
	movl	%ecx, %edx
	andb	$1, %dl
	movb	%dl, 19401(%rbx)
	shrb	%al
	andb	$1, %al
	movb	%al, 19462(%rbx)
	movb	73632(%rbx), %al
	movl	%eax, %edx
	shrb	$4, %dl
	andb	$1, %dl
	movb	%dl, 19400(%rbx)
	shrb	$3, %al
	andb	$1, %al
	movb	%al, 19399(%rbx)
	shrb	%sil
	andb	$1, %sil
	movb	%sil, 19407(%rbx)
	movb	73610(%rbx), %al
	movl	%eax, %edx
	shrb	$4, %dl
	andb	$1, %dl
	movb	%dl, 19345(%rbx)
	movl	%eax, %edx
	shrb	$3, %dl
	andb	$1, %dl
	movb	%dl, 19344(%rbx)
	shrb	$2, %al
	andb	$1, %al
	movb	%al, 19343(%rbx)
	shrb	%cl
	andb	$1, %cl
	movb	%cl, 19402(%rbx)
	movb	73608(%rbx), %cl
	movl	%ecx, %eax
	shrb	$4, %al
	andb	$1, %al
	movb	%al, 19340(%rbx)
	movl	%ecx, %eax
	shrb	$3, %al
	andb	$1, %al
	movb	%al, 19339(%rbx)
	movl	%ecx, %eax
	shrb	$2, %al
	andb	$1, %al
	movb	%al, 19338(%rbx)
	movb	73606(%rbx), %sil
	movl	%esi, %edx
	shrb	$3, %dl
	andb	$1, %dl
	movb	%dl, 19334(%rbx)
	movl	%esi, %edx
	shrb	$2, %dl
	andb	$1, %dl
	movb	%dl, 19333(%rbx)
	movb	73652(%rbx), %dl
	shrb	$4, %dl
	andb	$1, %dl
	movb	%dl, 19450(%rbx)
	movb	73640(%rbx), %dl
	shrb	$2, %dl
	andb	$1, %dl
	movb	%dl, 19418(%rbx)
	movb	73616(%rbx), %dil
	movl	%edi, %edx
	andb	$1, %dl
	movb	%dl, 19356(%rbx)
	shrb	%cl
	andb	$1, %cl
	movb	%cl, 19337(%rbx)
	movb	73646(%rbx), %cl
	andb	$1, %cl
	movb	%cl, 19431(%rbx)
	movb	73620(%rbx), %cl
	movl	%ecx, %edx
	shrb	%dl
	andb	$1, %dl
	movb	%dl, 19367(%rbx)
	movb	73644(%rbx), %al
	movl	%eax, %edx
	shrb	$2, %dl
	andb	$1, %dl
	movb	%dl, 19428(%rbx)
	andb	$1, %cl
	movb	%cl, 19366(%rbx)
	shrb	%sil
	andb	$1, %sil
	movb	%sil, 19332(%rbx)
	movb	73668(%rbx), %cl
	shrb	$2, %cl
	andb	$1, %cl
	movb	%cl, 19488(%rbx)
	andb	$1, %al
	movb	%al, 19426(%rbx)
	movb	73618(%rbx), %sil
	movl	%esi, %eax
	shrb	%al
	andb	$1, %al
	movb	%al, 19362(%rbx)
	movb	73666(%rbx), %al
	shrb	$2, %al
	andb	$1, %al
	movb	%al, 19483(%rbx)
	movb	73642(%rbx), %r8b
	movl	%r8d, %eax
	andb	$1, %al
	movb	%al, 19421(%rbx)
	shrb	%dil
	andb	$1, %dil
	movb	%dil, 19357(%rbx)
	movb	73612(%rbx), %al
	shrb	$2, %al
	andb	$1, %al
	movb	%al, 19348(%rbx)
	movb	73656(%rbx), %al
	shrb	%al
	andb	$1, %al
	movb	%al, 19457(%rbx)
	movb	73630(%rbx), %al
	shrb	$4, %al
	andb	$1, %al
	movb	%al, 19395(%rbx)
	movb	73628(%rbx), %al
	shrb	$2, %al
	andb	$1, %al
	movb	%al, 19388(%rbx)
	movb	73634(%rbx), %al
	shrb	$2, %al
	andb	$1, %al
	movb	%al, 19403(%rbx)
	movb	73610(%rbx), %cl
	movl	%ecx, %eax
	andb	$1, %al
	movb	%al, 19341(%rbx)
	movb	73648(%rbx), %al
	movl	%eax, %edx
	andb	$1, %dl
	movb	%dl, 19436(%rbx)
	movb	73622(%rbx), %r10b
	movl	%r10d, %edx
	shrb	%dl
	andb	$1, %dl
	movb	%dl, 19372(%rbx)
	movb	73650(%rbx), %dil
	movl	%edi, %edx
	shrb	$2, %dl
	andb	$1, %dl
	movb	%dl, 19443(%rbx)
	movb	73626(%rbx), %r9b
	movl	%r9d, %edx
	andb	$1, %dl
	movb	%dl, 19381(%rbx)
	shrb	$2, %r8b
	andb	$1, %r8b
	movb	%r8b, 19423(%rbx)
	andb	$1, %sil
	movb	%sil, 19361(%rbx)
	movb	73646(%rbx), %dl
	shrb	$2, %dl
	andb	$1, %dl
	movb	%dl, 19433(%rbx)
	andb	$1, %r10b
	movb	%r10b, 19371(%rbx)
	shrb	%cl
	andb	$1, %cl
	movb	%cl, 19342(%rbx)
	shrb	$2, %al
	andb	$1, %al
	movb	%al, 19438(%rbx)
	movb	73624(%rbx), %al
	movl	%eax, %ecx
	andb	$1, %cl
	movb	%cl, 19376(%rbx)
	movb	73636(%rbx), %cl
	shrb	$2, %cl
	andb	$1, %cl
	movb	%cl, 19408(%rbx)
	movb	73612(%rbx), %sil
	movl	%esi, %edx
	andb	$1, %dl
	movb	%dl, 19346(%rbx)
	andb	$1, %dil
	movb	%dil, 19441(%rbx)
	shrb	%al
	andb	$1, %al
	movb	%al, 19377(%rbx)
	movl	%esi, %eax
	shrb	%al
	andb	$1, %al
	movb	%al, 19347(%rbx)
	movb	73652(%rbx), %al
	andb	$1, %al
	movb	%al, 19446(%rbx)
	shrb	%r9b
	andb	$1, %r9b
	movb	%r9b, 19382(%rbx)
	movb	73614(%rbx), %al
	movl	%eax, %edx
	shrb	$2, %dl
	andb	$1, %dl
	movb	%dl, 19353(%rbx)
	movl	%esi, %edx
	shrb	$3, %dl
	andb	$1, %dl
	movb	%dl, 19349(%rbx)
	movb	73638(%rbx), %cl
	movl	%ecx, %edx
	shrb	%dl
	andb	$1, %dl
	movb	%dl, 19412(%rbx)
	shrb	$4, %sil
	andb	$1, %sil
	movb	%sil, 19350(%rbx)
	shrb	$2, %cl
	andb	$1, %cl
	movb	%cl, 19413(%rbx)
	movl	%eax, %ecx
	andb	$1, %cl
	movb	%cl, 19351(%rbx)
	movl	%eax, %ecx
	shrb	%cl
	andb	$1, %cl
	movb	%cl, 19352(%rbx)
	movl	%eax, %ecx
	shrb	$3, %cl
	andb	$1, %cl
	movb	%cl, 19354(%rbx)
	movb	73640(%rbx), %cl
	shrb	%cl
	andb	$1, %cl
	movb	%cl, 19417(%rbx)
	shrb	$4, %al
	andb	$1, %al
	movb	%al, 19355(%rbx)
	movb	73616(%rbx), %al
	movl	%eax, %ecx
	shrb	$2, %cl
	andb	$1, %cl
	movb	%cl, 19358(%rbx)
	movl	%eax, %ecx
	shrb	$3, %cl
	andb	$1, %cl
	movb	%cl, 19359(%rbx)
	movb	73642(%rbx), %cl
	shrb	%cl
	andb	$1, %cl
	movb	%cl, 19422(%rbx)
	shrb	$4, %al
	andb	$1, %al
	movb	%al, 19360(%rbx)
	movb	73618(%rbx), %al
	movl	%eax, %ecx
	shrb	$2, %cl
	andb	$1, %cl
	movb	%cl, 19363(%rbx)
	movl	%eax, %ecx
	shrb	$3, %cl
	andb	$1, %cl
	movb	%cl, 19364(%rbx)
	movb	73644(%rbx), %cl
	shrb	%cl
	andb	$1, %cl
	movb	%cl, 19427(%rbx)
	shrb	$4, %al
	andb	$1, %al
	movb	%al, 19365(%rbx)
	movb	73620(%rbx), %al
	movl	%eax, %ecx
	shrb	$2, %cl
	andb	$1, %cl
	movb	%cl, 19368(%rbx)
	movl	%eax, %ecx
	shrb	$3, %cl
	andb	$1, %cl
	movb	%cl, 19369(%rbx)
	movb	73646(%rbx), %cl
	shrb	%cl
	andb	$1, %cl
	movb	%cl, 19432(%rbx)
	shrb	$4, %al
	andb	$1, %al
	movb	%al, 19370(%rbx)
	movb	73622(%rbx), %al
	movl	%eax, %ecx
	shrb	$2, %cl
	andb	$1, %cl
	movb	%cl, 19373(%rbx)
	movl	%eax, %ecx
	shrb	$3, %cl
	andb	$1, %cl
	movb	%cl, 19374(%rbx)
	movb	73648(%rbx), %cl
	shrb	%cl
	andb	$1, %cl
	movb	%cl, 19437(%rbx)
	shrb	$4, %al
	andb	$1, %al
	movb	%al, 19375(%rbx)
	movb	73624(%rbx), %al
	movl	%eax, %ecx
	shrb	$2, %cl
	andb	$1, %cl
	movb	%cl, 19378(%rbx)
	movl	%eax, %ecx
	shrb	$3, %cl
	andb	$1, %cl
	movb	%cl, 19379(%rbx)
	movb	73650(%rbx), %cl
	shrb	%cl
	andb	$1, %cl
	movb	%cl, 19442(%rbx)
	shrb	$4, %al
	andb	$1, %al
	movb	%al, 19380(%rbx)
	movb	73626(%rbx), %al
	movl	%eax, %ecx
	shrb	$2, %cl
	andb	$1, %cl
	movb	%cl, 19383(%rbx)
	movl	%eax, %ecx
	shrb	$3, %cl
	andb	$1, %cl
	movb	%cl, 19384(%rbx)
	movb	73652(%rbx), %cl
	movl	%ecx, %edx
	shrb	%dl
	andb	$1, %dl
	movb	%dl, 19447(%rbx)
	shrb	$4, %al
	andb	$1, %al
	movb	%al, 19385(%rbx)
	shrb	$2, %cl
	andb	$1, %cl
	movb	%cl, 19448(%rbx)
	movb	73628(%rbx), %al
	movl	%eax, %ecx
	andb	$1, %cl
	movb	%cl, 19386(%rbx)
	movl	%eax, %ecx
	shrb	%cl
	andb	$1, %cl
	movb	%cl, 19387(%rbx)
	movl	%eax, %ecx
	shrb	$3, %cl
	andb	$1, %cl
	movb	%cl, 19389(%rbx)
	movb	73654(%rbx), %cl
	movl	%ecx, %edx
	shrb	%dl
	andb	$1, %dl
	movb	%dl, 19452(%rbx)
	shrb	$4, %al
	andb	$1, %al
	movb	%al, 19390(%rbx)
	shrb	$2, %cl
	andb	$1, %cl
	movb	%cl, 19453(%rbx)
	movb	73630(%rbx), %al
	movl	%eax, %ecx
	andb	$1, %cl
	movb	%cl, 19391(%rbx)
	movl	%eax, %ecx
	shrb	%cl
	andb	$1, %cl
	movb	%cl, 19392(%rbx)
	movb	73606(%rbx), %cl
	movl	%ecx, %edx
	andb	$1, %dl
	movb	%dl, 19331(%rbx)
	movl	%eax, %edx
	shrb	$2, %dl
	andb	$1, %dl
	movb	%dl, 19393(%rbx)
	shrb	$3, %al
	andb	$1, %al
	movb	%al, 19394(%rbx)
	movb	73656(%rbx), %al
	shrb	$2, %al
	andb	$1, %al
	movb	%al, 19458(%rbx)
	movb	73632(%rbx), %al
	movl	%eax, %edx
	andb	$1, %dl
	movb	%dl, 19396(%rbx)
	shrb	$4, %cl
	andb	$1, %cl
	movb	%cl, 19335(%rbx)
	movl	%eax, %ecx
	shrb	%cl
	andb	$1, %cl
	movb	%cl, 19397(%rbx)
	movb	73608(%rbx), %cl
	andb	$1, %cl
	movb	%cl, 19336(%rbx)
	shrb	$2, %al
	andb	$1, %al
	movb	%al, 19398(%rbx)
	movb	68358(%rbx), %dil
	testb	%dil, %dil
	je	.LBB0_568
# %bb.2649:                             # %if.then7067
	movb	$0, 1497392(%rbx)
	xorl	%ecx, %ecx
	jmp	.LBB0_572
.LBB0_568:                              # %if.else7054
	cmpb	$0, 68852(%rbx)
	je	.LBB0_570
# %bb.569:                              # %if.then7057
	movb	68847(%rbx), %cl
	notb	%cl
	andb	$1, %cl
	movb	%cl, 1497392(%rbx)
.LBB0_570:                              # %if.else7068
	cmpb	$0, 68853(%rbx)
	je	.LBB0_573
# %bb.571:                              # %if.then7071
	movb	68848(%rbx), %cl
	notb	%cl
	andb	$1, %cl
.LBB0_572:                              # %if.end7078.sink.split
	movb	%cl, 1497391(%rbx)
.LBB0_573:                              # %if.end7078
	movb	969(%rbx), %cl
	notb	%cl
	testb	%cl, 773(%rbx)
	je	.LBB0_575
# %bb.574:                              # %if.then7094
	movb	1371(%rbx), %cl
	movb	1372(%rbx), %dl
	movb	%cl, 1491793(%rbx)
	movb	$1, 1491794(%rbx)
	movb	%dl, 1491791(%rbx)
	movb	$1, 1491792(%rbx)
.LBB0_575:                              # %if.end7096
	movb	972(%rbx), %cl
	notb	%cl
	testb	%cl, 774(%rbx)
	je	.LBB0_577
# %bb.576:                              # %if.then7112
	movb	1371(%rbx), %cl
	movb	1372(%rbx), %dl
	movb	%cl, 1491797(%rbx)
	movb	$1, 1491798(%rbx)
	movb	%dl, 1491795(%rbx)
	movb	$1, 1491796(%rbx)
.LBB0_577:                              # %if.end7114
	movb	975(%rbx), %cl
	notb	%cl
	testb	%cl, 775(%rbx)
	je	.LBB0_579
# %bb.578:                              # %if.then7130
	movb	1371(%rbx), %cl
	movb	1372(%rbx), %dl
	movb	%cl, 1491801(%rbx)
	movb	$1, 1491802(%rbx)
	movb	%dl, 1491799(%rbx)
	movb	$1, 1491800(%rbx)
.LBB0_579:                              # %if.end7132
	movb	978(%rbx), %cl
	notb	%cl
	testb	%cl, 776(%rbx)
	je	.LBB0_581
# %bb.580:                              # %if.then7148
	movb	1371(%rbx), %cl
	movb	1372(%rbx), %dl
	movb	%cl, 1491805(%rbx)
	movb	$1, 1491806(%rbx)
	movb	%dl, 1491803(%rbx)
	movb	$1, 1491804(%rbx)
.LBB0_581:                              # %if.end7150
	movb	981(%rbx), %cl
	notb	%cl
	testb	%cl, 777(%rbx)
	je	.LBB0_583
# %bb.582:                              # %if.then7166
	movb	1371(%rbx), %cl
	movb	1372(%rbx), %dl
	movb	%cl, 1491809(%rbx)
	movb	$1, 1491810(%rbx)
	movb	%dl, 1491807(%rbx)
	movb	$1, 1491808(%rbx)
.LBB0_583:                              # %if.end7168
	movb	984(%rbx), %cl
	notb	%cl
	testb	%cl, 778(%rbx)
	je	.LBB0_585
# %bb.584:                              # %if.then7184
	movb	1371(%rbx), %cl
	movb	1372(%rbx), %dl
	movb	%cl, 1491813(%rbx)
	movb	$1, 1491814(%rbx)
	movb	%dl, 1491811(%rbx)
	movb	$1, 1491812(%rbx)
.LBB0_585:                              # %if.end7186
	movb	987(%rbx), %cl
	notb	%cl
	testb	%cl, 779(%rbx)
	je	.LBB0_587
# %bb.586:                              # %if.then7202
	movb	1371(%rbx), %cl
	movb	1372(%rbx), %dl
	movb	%cl, 1491817(%rbx)
	movb	$1, 1491818(%rbx)
	movb	%dl, 1491815(%rbx)
	movb	$1, 1491816(%rbx)
.LBB0_587:                              # %if.end7204
	movb	990(%rbx), %cl
	notb	%cl
	testb	%cl, 780(%rbx)
	je	.LBB0_589
# %bb.588:                              # %if.then7220
	movb	1371(%rbx), %cl
	movb	1372(%rbx), %dl
	movb	%cl, 1491821(%rbx)
	movb	$1, 1491822(%rbx)
	movb	%dl, 1491819(%rbx)
	movb	$1, 1491820(%rbx)
.LBB0_589:                              # %if.end7222
	movb	993(%rbx), %cl
	notb	%cl
	testb	%cl, 781(%rbx)
	je	.LBB0_591
# %bb.590:                              # %if.then7238
	movb	1371(%rbx), %cl
	movb	1372(%rbx), %dl
	movb	%cl, 1491825(%rbx)
	movb	$1, 1491826(%rbx)
	movb	%dl, 1491823(%rbx)
	movb	$1, 1491824(%rbx)
.LBB0_591:                              # %if.end7240
	movb	996(%rbx), %cl
	notb	%cl
	testb	%cl, 782(%rbx)
	je	.LBB0_593
# %bb.592:                              # %if.then7256
	movb	1371(%rbx), %cl
	movb	1372(%rbx), %dl
	movb	%cl, 1491829(%rbx)
	movb	$1, 1491830(%rbx)
	movb	%dl, 1491827(%rbx)
	movb	$1, 1491828(%rbx)
.LBB0_593:                              # %if.end7258
	movb	999(%rbx), %cl
	notb	%cl
	testb	%cl, 783(%rbx)
	je	.LBB0_595
# %bb.594:                              # %if.then7274
	movb	1371(%rbx), %cl
	movb	1372(%rbx), %dl
	movb	%cl, 1491833(%rbx)
	movb	$1, 1491834(%rbx)
	movb	%dl, 1491831(%rbx)
	movb	$1, 1491832(%rbx)
.LBB0_595:                              # %if.end7276
	movb	68218(%rbx), %cl
	orb	2140(%rbx), %cl
	testb	$1, %cl
	jne	.LBB0_597
# %bb.596:                              # %if.then7358
	movzbl	68215(%rbx), %ecx
	movb	453762(%rbx,%rcx), %dl
	movb	%dl, 1493014(%rbx)
	movb	$1, 1493015(%rbx)
	movb	2135(%rbx), %dl
	movb	%dl, 1493013(%rbx)
	movb	453760(%rbx,%rcx), %al
	movb	%al, 1493011(%rbx)
	movb	$1, 1493012(%rbx)
	movb	%dl, 1493010(%rbx)
	movq	453792(%rbx,%rcx,8), %rax
	movq	%rax, 1503848(%rbx)
	movb	$1, 1493009(%rbx)
	movb	2135(%rbx), %al
	movb	%al, 1493008(%rbx)
	movzbl	68215(%rbx), %eax
	movb	453764(%rbx,%rax), %al
	movb	%al, 1493006(%rbx)
	movb	$1, 1493007(%rbx)
	movb	2135(%rbx), %al
	movb	%al, 1493005(%rbx)
	movzbl	68215(%rbx), %eax
	movq	453768(%rbx,%rax,8), %rax
	movq	%rax, 1503840(%rbx)
	movb	$1, 1493003(%rbx)
	movb	2135(%rbx), %al
	movb	%al, 1493002(%rbx)
	movzbl	68215(%rbx), %eax
	movb	453784(%rbx,%rax), %al
	movb	%al, 1492999(%rbx)
	movb	$1, 1493000(%rbx)
	movb	2135(%rbx), %al
	movb	%al, 1492998(%rbx)
.LBB0_597:                              # %if.end7363
	movb	68356(%rbx), %sil
	testb	%sil, %sil
	je	.LBB0_598
# %bb.2650:                             # %if.then7380
	movb	$0, 1497380(%rbx)
	xorl	%ecx, %ecx
	jmp	.LBB0_602
.LBB0_598:                              # %if.else7367
	cmpb	$0, 68354(%rbx)
	je	.LBB0_600
# %bb.599:                              # %if.then7370
	movb	68348(%rbx), %al
	notb	%al
	andb	$1, %al
	movb	%al, 1497380(%rbx)
.LBB0_600:                              # %if.else7381
	cmpb	$0, 68353(%rbx)
	je	.LBB0_603
# %bb.601:                              # %if.then7384
	movb	68347(%rbx), %cl
	notb	%cl
	andb	$1, %cl
.LBB0_602:                              # %if.end7391.sink.split
	movb	%cl, 1497374(%rbx)
.LBB0_603:                              # %if.end7391
	movb	70933(%rbx), %r8b
	testb	%r8b, %r8b
	je	.LBB0_604
# %bb.2651:                             # %if.then7466
	movb	$0, 1491415(%rbx)
	movb	$0, 1491412(%rbx)
	movb	$0, 1492855(%rbx)
	movb	$0, 1492852(%rbx)
	movb	$0, 1493355(%rbx)
	xorl	%ecx, %ecx
	jmp	.LBB0_616
.LBB0_604:                              # %if.else7395
	cmpb	$0, 581(%rbx)
	je	.LBB0_606
# %bb.605:                              # %if.then7398
	movb	575(%rbx), %al
	notb	%al
	andb	$1, %al
	movb	%al, 1491415(%rbx)
.LBB0_606:                              # %if.else7409
	cmpb	$0, 582(%rbx)
	je	.LBB0_608
# %bb.607:                              # %if.then7412
	movb	576(%rbx), %al
	notb	%al
	andb	$1, %al
	movb	%al, 1491412(%rbx)
.LBB0_608:                              # %if.else7424
	cmpb	$0, 1794(%rbx)
	je	.LBB0_610
# %bb.609:                              # %if.then7427
	movb	1788(%rbx), %al
	notb	%al
	andb	$1, %al
	movb	%al, 1492855(%rbx)
.LBB0_610:                              # %if.else7438
	cmpb	$0, 1795(%rbx)
	je	.LBB0_612
# %bb.611:                              # %if.then7441
	movb	1789(%rbx), %al
	notb	%al
	andb	$1, %al
	movb	%al, 1492852(%rbx)
.LBB0_612:                              # %if.else7453
	cmpb	$0, 3805(%rbx)
	je	.LBB0_614
# %bb.613:                              # %if.then7456
	movb	3799(%rbx), %al
	notb	%al
	andb	$1, %al
	movb	%al, 1493355(%rbx)
.LBB0_614:                              # %if.else7467
	cmpb	$0, 3806(%rbx)
	je	.LBB0_617
# %bb.615:                              # %if.then7470
	movb	3800(%rbx), %cl
	notb	%cl
	andb	$1, %cl
.LBB0_616:                              # %if.end7478.sink.split
	movb	%cl, 1493352(%rbx)
.LBB0_617:                              # %if.end7478
	cmpb	$0, 22924(%rbx)
	je	.LBB0_619
# %bb.618:                              # %if.then7485
	movzwl	61549(%rbx), %eax
	movw	%ax, 22913(%rbx)
.LBB0_619:                              # %if.end7487
	cmpb	$0, 22923(%rbx)
	je	.LBB0_621
# %bb.620:                              # %if.then7494
	movzwl	61549(%rbx), %eax
	movw	%ax, 22887(%rbx)
.LBB0_621:                              # %if.end7496
	cmpb	$0, 22922(%rbx)
	je	.LBB0_623
# %bb.622:                              # %if.then7503
	movzwl	61549(%rbx), %eax
	movw	%ax, 22861(%rbx)
.LBB0_623:                              # %if.end7505
	cmpb	$0, 22921(%rbx)
	je	.LBB0_625
# %bb.624:                              # %if.then7512
	movzwl	61549(%rbx), %eax
	movw	%ax, 22835(%rbx)
.LBB0_625:                              # %if.end7514
	cmpb	$0, 22918(%rbx)
	je	.LBB0_627
# %bb.626:                              # %if.then7521
	movzwl	61549(%rbx), %eax
	movw	%ax, 22757(%rbx)
.LBB0_627:                              # %if.end7523
	cmpb	$0, 22917(%rbx)
	je	.LBB0_629
# %bb.628:                              # %if.then7530
	movzwl	61549(%rbx), %eax
	movw	%ax, 22731(%rbx)
.LBB0_629:                              # %if.end7532
	cmpb	$0, 22919(%rbx)
	je	.LBB0_631
# %bb.630:                              # %if.then7539
	movzwl	61549(%rbx), %eax
	movw	%ax, 22783(%rbx)
.LBB0_631:                              # %if.end7541
	cmpb	$0, 22920(%rbx)
	je	.LBB0_633
# %bb.632:                              # %if.then7548
	movzwl	61549(%rbx), %eax
	movw	%ax, 22809(%rbx)
.LBB0_633:                              # %if.end7550
	movb	2173(%rbx), %al
	notb	%al
	testb	%al, 71(%rbx)
	je	.LBB0_635
# %bb.634:                              # %if.then7558
	movb	70896(%rbx), %al
	andb	$63, %al
	movb	%al, 1493069(%rbx)
	movb	$1, 1493070(%rbx)
	movb	2168(%rbx), %al
	movb	%al, 1493068(%rbx)
.LBB0_635:                              # %if.end7563
	movb	867(%rbx), %al
	notb	%al
	testb	%al, 739(%rbx)
	je	.LBB0_637
# %bb.636:                              # %if.then7579
	movb	1371(%rbx), %al
	movb	1372(%rbx), %cl
	movb	%al, 1491657(%rbx)
	movb	$1, 1491658(%rbx)
	movb	%cl, 1491655(%rbx)
	movb	$1, 1491656(%rbx)
.LBB0_637:                              # %if.end7581
	movb	870(%rbx), %al
	notb	%al
	testb	%al, 740(%rbx)
	je	.LBB0_639
# %bb.638:                              # %if.then7597
	movb	1371(%rbx), %al
	movb	1372(%rbx), %cl
	movb	%al, 1491661(%rbx)
	movb	$1, 1491662(%rbx)
	movb	%cl, 1491659(%rbx)
	movb	$1, 1491660(%rbx)
.LBB0_639:                              # %if.end7599
	movb	873(%rbx), %al
	notb	%al
	testb	%al, 741(%rbx)
	je	.LBB0_641
# %bb.640:                              # %if.then7615
	movb	1371(%rbx), %al
	movb	1372(%rbx), %cl
	movb	%al, 1491665(%rbx)
	movb	$1, 1491666(%rbx)
	movb	%cl, 1491663(%rbx)
	movb	$1, 1491664(%rbx)
.LBB0_641:                              # %if.end7617
	movb	876(%rbx), %al
	notb	%al
	testb	%al, 742(%rbx)
	je	.LBB0_643
# %bb.642:                              # %if.then7633
	movb	1371(%rbx), %al
	movb	1372(%rbx), %cl
	movb	%al, 1491669(%rbx)
	movb	$1, 1491670(%rbx)
	movb	%cl, 1491667(%rbx)
	movb	$1, 1491668(%rbx)
.LBB0_643:                              # %if.end7635
	movb	879(%rbx), %al
	notb	%al
	testb	%al, 743(%rbx)
	je	.LBB0_645
# %bb.644:                              # %if.then7651
	movb	1371(%rbx), %al
	movb	1372(%rbx), %cl
	movb	%al, 1491673(%rbx)
	movb	$1, 1491674(%rbx)
	movb	%cl, 1491671(%rbx)
	movb	$1, 1491672(%rbx)
.LBB0_645:                              # %if.end7653
	movb	882(%rbx), %al
	notb	%al
	testb	%al, 744(%rbx)
	je	.LBB0_647
# %bb.646:                              # %if.then7669
	movb	1371(%rbx), %al
	movb	1372(%rbx), %cl
	movb	%al, 1491677(%rbx)
	movb	$1, 1491678(%rbx)
	movb	%cl, 1491675(%rbx)
	movb	$1, 1491676(%rbx)
.LBB0_647:                              # %if.end7671
	movb	885(%rbx), %al
	notb	%al
	testb	%al, 745(%rbx)
	je	.LBB0_649
# %bb.648:                              # %if.then7687
	movb	1371(%rbx), %al
	movb	1372(%rbx), %cl
	movb	%al, 1491681(%rbx)
	movb	$1, 1491682(%rbx)
	movb	%cl, 1491679(%rbx)
	movb	$1, 1491680(%rbx)
.LBB0_649:                              # %if.end7689
	movb	888(%rbx), %al
	notb	%al
	testb	%al, 746(%rbx)
	je	.LBB0_651
# %bb.650:                              # %if.then7705
	movb	1371(%rbx), %al
	movb	1372(%rbx), %cl
	movb	%al, 1491685(%rbx)
	movb	$1, 1491686(%rbx)
	movb	%cl, 1491683(%rbx)
	movb	$1, 1491684(%rbx)
.LBB0_651:                              # %if.end7707
	movb	891(%rbx), %al
	notb	%al
	testb	%al, 747(%rbx)
	je	.LBB0_653
# %bb.652:                              # %if.then7723
	movb	1371(%rbx), %al
	movb	1372(%rbx), %cl
	movb	%al, 1491689(%rbx)
	movb	$1, 1491690(%rbx)
	movb	%cl, 1491687(%rbx)
	movb	$1, 1491688(%rbx)
.LBB0_653:                              # %if.end7725
	movb	894(%rbx), %al
	notb	%al
	testb	%al, 748(%rbx)
	je	.LBB0_655
# %bb.654:                              # %if.then7741
	movb	1371(%rbx), %al
	movb	1372(%rbx), %cl
	movb	%al, 1491693(%rbx)
	movb	$1, 1491694(%rbx)
	movb	%cl, 1491691(%rbx)
	movb	$1, 1491692(%rbx)
.LBB0_655:                              # %if.end7743
	movb	897(%rbx), %al
	notb	%al
	testb	%al, 749(%rbx)
	je	.LBB0_657
# %bb.656:                              # %if.then7759
	movb	1371(%rbx), %al
	movb	1372(%rbx), %cl
	movb	%al, 1491697(%rbx)
	movb	$1, 1491698(%rbx)
	movb	%cl, 1491695(%rbx)
	movb	$1, 1491696(%rbx)
.LBB0_657:                              # %if.end7761
	testb	%r8b, %r8b
	je	.LBB0_659
# %bb.658:
	xorl	%ecx, %ecx
	jmp	.LBB0_660
.LBB0_659:                              # %if.else7765
	movb	2063(%rbx), %cl
	cmpb	2064(%rbx), %cl
	je	.LBB0_661
.LBB0_660:                              # %if.end7773.sink.split
	movb	%cl, 2059(%rbx)
.LBB0_661:                              # %if.end7773
	cmpb	$0, 20865(%rbx)
	je	.LBB0_669
# %bb.662:                              # %if.then7777
	cmpb	$0, 20863(%rbx)
	je	.LBB0_663
# %bb.664:                              # %cond.true7781
	movb	61550(%rbx), %cl
	cmpb	$0, 20864(%rbx)
	je	.LBB0_666
.LBB0_667:                              # %cond.true7790
	movb	61553(%rbx), %dl
	jmp	.LBB0_668
.LBB0_663:
	xorl	%ecx, %ecx
	cmpb	$0, 20864(%rbx)
	jne	.LBB0_667
.LBB0_666:
	xorl	%edx, %edx
.LBB0_668:                              # %cond.end7794
	orb	%cl, %dl
	movb	%dl, 20742(%rbx)
.LBB0_669:                              # %if.end7798
	cmpb	$0, 20862(%rbx)
	je	.LBB0_677
# %bb.670:                              # %if.then7802
	cmpb	$0, 20860(%rbx)
	je	.LBB0_671
# %bb.672:                              # %cond.true7806
	movb	61550(%rbx), %cl
	cmpb	$0, 20861(%rbx)
	je	.LBB0_674
.LBB0_675:                              # %cond.true7815
	movb	61553(%rbx), %dl
	jmp	.LBB0_676
.LBB0_671:
	xorl	%ecx, %ecx
	cmpb	$0, 20861(%rbx)
	jne	.LBB0_675
.LBB0_674:
	xorl	%edx, %edx
.LBB0_676:                              # %cond.end7819
	orb	%cl, %dl
	movb	%dl, 20721(%rbx)
.LBB0_677:                              # %if.end7823
	cmpb	$0, 20859(%rbx)
	je	.LBB0_685
# %bb.678:                              # %if.then7827
	cmpb	$0, 20857(%rbx)
	je	.LBB0_679
# %bb.680:                              # %cond.true7831
	movb	61550(%rbx), %cl
	cmpb	$0, 20858(%rbx)
	je	.LBB0_682
.LBB0_683:                              # %cond.true7840
	movb	61553(%rbx), %dl
	jmp	.LBB0_684
.LBB0_679:
	xorl	%ecx, %ecx
	cmpb	$0, 20858(%rbx)
	jne	.LBB0_683
.LBB0_682:
	xorl	%edx, %edx
.LBB0_684:                              # %cond.end7844
	orb	%cl, %dl
	movb	%dl, 20700(%rbx)
.LBB0_685:                              # %if.end7848
	cmpb	$0, 20856(%rbx)
	je	.LBB0_693
# %bb.686:                              # %if.then7852
	cmpb	$0, 20854(%rbx)
	je	.LBB0_687
# %bb.688:                              # %cond.true7856
	movb	61550(%rbx), %cl
	cmpb	$0, 20855(%rbx)
	je	.LBB0_690
.LBB0_691:                              # %cond.true7865
	movb	61553(%rbx), %dl
	jmp	.LBB0_692
.LBB0_687:
	xorl	%ecx, %ecx
	cmpb	$0, 20855(%rbx)
	jne	.LBB0_691
.LBB0_690:
	xorl	%edx, %edx
.LBB0_692:                              # %cond.end7869
	orb	%cl, %dl
	movb	%dl, 20679(%rbx)
.LBB0_693:                              # %if.end7873
	cmpb	$0, 20850(%rbx)
	je	.LBB0_701
# %bb.694:                              # %if.then7877
	cmpb	$0, 20848(%rbx)
	je	.LBB0_695
# %bb.696:                              # %cond.true7881
	movb	61550(%rbx), %cl
	cmpb	$0, 20849(%rbx)
	je	.LBB0_698
.LBB0_699:                              # %cond.true7890
	movb	61553(%rbx), %dl
	jmp	.LBB0_700
.LBB0_695:
	xorl	%ecx, %ecx
	cmpb	$0, 20849(%rbx)
	jne	.LBB0_699
.LBB0_698:
	xorl	%edx, %edx
.LBB0_700:                              # %cond.end7894
	orb	%cl, %dl
	movb	%dl, 20637(%rbx)
.LBB0_701:                              # %if.end7898
	cmpb	$0, 20847(%rbx)
	je	.LBB0_709
# %bb.702:                              # %if.then7902
	cmpb	$0, 20845(%rbx)
	je	.LBB0_703
# %bb.704:                              # %cond.true7906
	movb	61550(%rbx), %cl
	cmpb	$0, 20846(%rbx)
	je	.LBB0_706
.LBB0_707:                              # %cond.true7915
	movb	61553(%rbx), %dl
	jmp	.LBB0_708
.LBB0_703:
	xorl	%ecx, %ecx
	cmpb	$0, 20846(%rbx)
	jne	.LBB0_707
.LBB0_706:
	xorl	%edx, %edx
.LBB0_708:                              # %cond.end7919
	orb	%cl, %dl
	movb	%dl, 20616(%rbx)
.LBB0_709:                              # %if.end7923
	cmpb	$0, 20835(%rbx)
	je	.LBB0_717
# %bb.710:                              # %if.then7927
	cmpb	$0, 20833(%rbx)
	je	.LBB0_711
# %bb.712:                              # %cond.true7931
	movb	61550(%rbx), %cl
	cmpb	$0, 20834(%rbx)
	je	.LBB0_714
.LBB0_715:                              # %cond.true7940
	movb	61553(%rbx), %dl
	jmp	.LBB0_716
.LBB0_711:
	xorl	%ecx, %ecx
	cmpb	$0, 20834(%rbx)
	jne	.LBB0_715
.LBB0_714:
	xorl	%edx, %edx
.LBB0_716:                              # %cond.end7944
	orb	%cl, %dl
	movb	%dl, 20532(%rbx)
.LBB0_717:                              # %if.end7948
	cmpb	$0, 20829(%rbx)
	je	.LBB0_725
# %bb.718:                              # %if.then7952
	cmpb	$0, 20827(%rbx)
	je	.LBB0_719
# %bb.720:                              # %cond.true7956
	movb	61550(%rbx), %cl
	cmpb	$0, 20828(%rbx)
	je	.LBB0_722
.LBB0_723:                              # %cond.true7965
	movb	61553(%rbx), %dl
	jmp	.LBB0_724
.LBB0_719:
	xorl	%ecx, %ecx
	cmpb	$0, 20828(%rbx)
	jne	.LBB0_723
.LBB0_722:
	xorl	%edx, %edx
.LBB0_724:                              # %cond.end7969
	orb	%cl, %dl
	movb	%dl, 20490(%rbx)
.LBB0_725:                              # %if.end7973
	cmpb	$0, 20841(%rbx)
	je	.LBB0_733
# %bb.726:                              # %if.then7977
	cmpb	$0, 20839(%rbx)
	je	.LBB0_727
# %bb.728:                              # %cond.true7981
	movb	61550(%rbx), %cl
	cmpb	$0, 20840(%rbx)
	je	.LBB0_730
.LBB0_731:                              # %cond.true7990
	movb	61553(%rbx), %dl
	jmp	.LBB0_732
.LBB0_727:
	xorl	%ecx, %ecx
	cmpb	$0, 20840(%rbx)
	jne	.LBB0_731
.LBB0_730:
	xorl	%edx, %edx
.LBB0_732:                              # %cond.end7994
	orb	%cl, %dl
	movb	%dl, 20574(%rbx)
.LBB0_733:                              # %if.end7998
	cmpb	$0, 20844(%rbx)
	je	.LBB0_741
# %bb.734:                              # %if.then8002
	cmpb	$0, 20842(%rbx)
	je	.LBB0_735
# %bb.736:                              # %cond.true8006
	movb	61550(%rbx), %cl
	cmpb	$0, 20843(%rbx)
	je	.LBB0_738
.LBB0_739:                              # %cond.true8015
	movb	61553(%rbx), %dl
	jmp	.LBB0_740
.LBB0_735:
	xorl	%ecx, %ecx
	cmpb	$0, 20843(%rbx)
	jne	.LBB0_739
.LBB0_738:
	xorl	%edx, %edx
.LBB0_740:                              # %cond.end8019
	orb	%cl, %dl
	movb	%dl, 20595(%rbx)
.LBB0_741:                              # %if.end8023
	cmpb	$0, 20838(%rbx)
	je	.LBB0_749
# %bb.742:                              # %if.then8027
	cmpb	$0, 20836(%rbx)
	je	.LBB0_743
# %bb.744:                              # %cond.true8031
	movb	61550(%rbx), %cl
	cmpb	$0, 20837(%rbx)
	je	.LBB0_746
.LBB0_747:                              # %cond.true8040
	movb	61553(%rbx), %dl
	jmp	.LBB0_748
.LBB0_743:
	xorl	%ecx, %ecx
	cmpb	$0, 20837(%rbx)
	jne	.LBB0_747
.LBB0_746:
	xorl	%edx, %edx
.LBB0_748:                              # %cond.end8044
	orb	%cl, %dl
	movb	%dl, 20553(%rbx)
.LBB0_749:                              # %if.end8048
	cmpb	$0, 20832(%rbx)
	je	.LBB0_757
# %bb.750:                              # %if.then8052
	cmpb	$0, 20830(%rbx)
	je	.LBB0_751
# %bb.752:                              # %cond.true8056
	movb	61550(%rbx), %cl
	cmpb	$0, 20831(%rbx)
	je	.LBB0_754
.LBB0_755:                              # %cond.true8065
	movb	61553(%rbx), %dl
	jmp	.LBB0_756
.LBB0_751:
	xorl	%ecx, %ecx
	cmpb	$0, 20831(%rbx)
	jne	.LBB0_755
.LBB0_754:
	xorl	%edx, %edx
.LBB0_756:                              # %cond.end8069
	orb	%cl, %dl
	movb	%dl, 20511(%rbx)
.LBB0_757:                              # %if.end8073
	cmpb	$0, 20853(%rbx)
	je	.LBB0_765
# %bb.758:                              # %if.then8077
	cmpb	$0, 20851(%rbx)
	je	.LBB0_759
# %bb.760:                              # %cond.true8081
	movb	61550(%rbx), %cl
	cmpb	$0, 20852(%rbx)
	je	.LBB0_762
.LBB0_763:                              # %cond.true8090
	movb	61553(%rbx), %dl
	jmp	.LBB0_764
.LBB0_759:
	xorl	%ecx, %ecx
	cmpb	$0, 20852(%rbx)
	jne	.LBB0_763
.LBB0_762:
	xorl	%edx, %edx
.LBB0_764:                              # %cond.end8094
	orb	%cl, %dl
	movb	%dl, 20658(%rbx)
.LBB0_765:                              # %if.end8098
	testb	%dil, %dil
	je	.LBB0_767
# %bb.766:
	xorl	%eax, %eax
.LBB0_771:                              # %if.end8122.sink.split
	movb	%al, 68864(%rbx)
.LBB0_772:                              # %if.end8122
	movb	17(%rbx), %r11b
	testb	%r11b, %r11b
	je	.LBB0_773
# %bb.2652:                             # %if.then8155
	movq	$0, 230524(%rbx)
	xorl	%eax, %eax
	jmp	.LBB0_779
.LBB0_767:                              # %if.else8102
	movb	68870(%rbx), %al
	cmpb	68872(%rbx), %al
	je	.LBB0_772
# %bb.768:                              # %if.then8106
	cmpb	$0, 68866(%rbx)
	je	.LBB0_770
# %bb.769:                              # %cond.true8109
	movb	68766(%rbx), %al
	notb	%al
	andb	68867(%rbx), %al
	jmp	.LBB0_771
.LBB0_773:                              # %if.else8126
	movzbl	71008(%rbx), %eax
	movl	$8191, %ecx             # imm = 0x1FFF
	andl	230496(%rbx), %ecx
	xorl	%edx, %edx
	cmpl	$56, %ecx
	sete	%dl
	testl	%eax, %edx
	je	.LBB0_775
# %bb.774:                              # %if.then8133
	movl	230568(%rbx), %edx
	movl	%edx, 230528(%rbx)
.LBB0_775:                              # %if.else8140
	xorl	%edx, %edx
	cmpl	$32, %ecx
	sete	%dl
	testl	%eax, %edx
	je	.LBB0_777
# %bb.776:                              # %if.then8149
	movl	230572(%rbx), %eax
	movl	%eax, 230524(%rbx)
.LBB0_777:                              # %if.else8156
	movzbl	71008(%rbx), %eax
	movl	$8191, %ecx             # imm = 0x1FFF
	andl	230496(%rbx), %ecx
	xorl	%edx, %edx
	cmpl	$80, %ecx
	sete	%dl
	testl	%eax, %edx
	je	.LBB0_780
# %bb.778:                              # %if.then8165
	movl	230576(%rbx), %eax
.LBB0_779:                              # %if.end8168.sink.split
	movl	%eax, 230532(%rbx)
.LBB0_780:                              # %if.end8168
	testb	%r8b, %r8b
	je	.LBB0_782
# %bb.781:
	xorl	%eax, %eax
	jmp	.LBB0_784
.LBB0_782:                              # %if.else8172
	cmpb	$0, 608(%rbx)
	je	.LBB0_785
# %bb.783:                              # %if.then8175
	movb	602(%rbx), %al
	notb	%al
	andb	$1, %al
.LBB0_784:                              # %if.end8183.sink.split
	movb	%al, 1491446(%rbx)
.LBB0_785:                              # %if.end8183
	testb	%r11b, %r11b
	je	.LBB0_786
# %bb.2653:                             # %if.then8316
	movb	$0, 1497809(%rbx)
	pxor	%xmm0, %xmm0
	movdqu	%xmm0, 230508(%rbx)
.LBB0_819:                              # %if.end8341
	movb	27907(%rbx), %r9b
	testb	%r9b, %r9b
	je	.LBB0_827
# %bb.820:                              # %if.then8344
	cmpb	$0, 27905(%rbx)
	je	.LBB0_821
# %bb.822:                              # %cond.true8347
	movb	19062(%rbx), %al
	cmpb	$0, 27906(%rbx)
	je	.LBB0_824
.LBB0_825:                              # %cond.true8354
	movb	19071(%rbx), %cl
	jmp	.LBB0_826
.LBB0_786:                              # %if.else8187
	movb	71105(%rbx), %al
	cmpb	$2, %al
	je	.LBB0_795
# %bb.787:                              # %if.else8187
	cmpb	$1, %al
	je	.LBB0_793
# %bb.788:                              # %if.else8187
	testb	%al, %al
	jne	.LBB0_796
# %bb.789:                              # %if.then8191
	cmpb	$0, 71108(%rbx)
	je	.LBB0_791
# %bb.790:                              # %if.then8193
	movb	$2, 1497809(%rbx)
	jmp	.LBB0_798
.LBB0_821:
	xorl	%eax, %eax
	cmpb	$0, 27906(%rbx)
	jne	.LBB0_825
.LBB0_824:
	xorl	%ecx, %ecx
.LBB0_826:                              # %cond.end8357
	orb	%al, %cl
	movb	%cl, 27846(%rbx)
.LBB0_827:                              # %if.end8361
	movb	27904(%rbx), %r14b
	testb	%r14b, %r14b
	je	.LBB0_835
# %bb.828:                              # %if.then8364
	cmpb	$0, 27902(%rbx)
	je	.LBB0_829
# %bb.830:                              # %cond.true8367
	movb	19062(%rbx), %al
	cmpb	$0, 27903(%rbx)
	je	.LBB0_832
.LBB0_833:                              # %cond.true8375
	movb	19071(%rbx), %cl
	jmp	.LBB0_834
.LBB0_829:
	xorl	%eax, %eax
	cmpb	$0, 27903(%rbx)
	jne	.LBB0_833
.LBB0_832:
	xorl	%ecx, %ecx
.LBB0_834:                              # %cond.end8379
	orb	%al, %cl
	movb	%cl, 27841(%rbx)
.LBB0_835:                              # %if.end8383
	movb	27901(%rbx), %r12b
	testb	%r12b, %r12b
	je	.LBB0_843
# %bb.836:                              # %if.then8386
	cmpb	$0, 27899(%rbx)
	je	.LBB0_837
# %bb.838:                              # %cond.true8389
	movb	19062(%rbx), %al
	cmpb	$0, 27900(%rbx)
	je	.LBB0_840
.LBB0_841:                              # %cond.true8397
	movb	19071(%rbx), %cl
	jmp	.LBB0_842
.LBB0_837:
	xorl	%eax, %eax
	cmpb	$0, 27900(%rbx)
	jne	.LBB0_841
.LBB0_840:
	xorl	%ecx, %ecx
.LBB0_842:                              # %cond.end8401
	orb	%al, %cl
	movb	%cl, 27836(%rbx)
.LBB0_843:                              # %if.end8405
	movb	957(%rbx), %al
	notb	%al
	testb	%al, 769(%rbx)
	je	.LBB0_845
# %bb.844:                              # %if.then8421
	movb	1371(%rbx), %al
	movb	1372(%rbx), %cl
	movb	%al, 1491777(%rbx)
	movb	$1, 1491778(%rbx)
	movb	%cl, 1491775(%rbx)
	movb	$1, 1491776(%rbx)
.LBB0_845:                              # %if.end8423
	movb	960(%rbx), %al
	notb	%al
	testb	%al, 770(%rbx)
	je	.LBB0_847
# %bb.846:                              # %if.then8439
	movb	1371(%rbx), %al
	movb	1372(%rbx), %cl
	movb	%al, 1491781(%rbx)
	movb	$1, 1491782(%rbx)
	movb	%cl, 1491779(%rbx)
	movb	$1, 1491780(%rbx)
.LBB0_847:                              # %if.end8441
	movb	963(%rbx), %al
	notb	%al
	testb	%al, 771(%rbx)
	je	.LBB0_849
# %bb.848:                              # %if.then8457
	movb	1371(%rbx), %al
	movb	1372(%rbx), %cl
	movb	%al, 1491785(%rbx)
	movb	$1, 1491786(%rbx)
	movb	%cl, 1491783(%rbx)
	movb	$1, 1491784(%rbx)
.LBB0_849:                              # %if.end8459
	movb	966(%rbx), %al
	notb	%al
	testb	%al, 772(%rbx)
	je	.LBB0_851
# %bb.850:                              # %if.then8475
	movb	1371(%rbx), %al
	movb	1372(%rbx), %cl
	movb	%al, 1491789(%rbx)
	movb	$1, 1491790(%rbx)
	movb	%cl, 1491787(%rbx)
	movb	$1, 1491788(%rbx)
.LBB0_851:                              # %if.end8477
	movb	5894(%rbx), %r10b
	movb	%r10b, 13031(%rbx)
	movb	13009(%rbx), %dl
	movl	%edx, %eax
	andb	%r10b, %al
	movb	%al, 13023(%rbx)
	movb	68137(%rbx), %al
	orb	68155(%rbx), %al
	movb	%al, 6(%rsp)            # 1-byte Spill
	testb	$1, %al
	jne	.LBB0_853
# %bb.852:                              # %if.then8490
	movzbl	68134(%rbx), %eax
	movq	453464(%rbx,%rax,8), %rax
	movq	%rax, 1504952(%rbx)
	movb	$1, 1497097(%rbx)
	movb	68150(%rbx), %al
	movb	%al, 1497096(%rbx)
.LBB0_853:                              # %if.end8493
	movb	68174(%rbx), %al
	orb	68192(%rbx), %al
	movb	%al, 7(%rsp)            # 1-byte Spill
	testb	$1, %al
	jne	.LBB0_855
# %bb.854:                              # %if.then8501
	movzbl	68171(%rbx), %eax
	movq	453608(%rbx,%rax,8), %rax
	movq	%rax, 1505000(%rbx)
	movb	$1, 1497145(%rbx)
	movb	68187(%rbx), %al
	movb	%al, 1497144(%rbx)
.LBB0_855:                              # %if.end8504
	testb	%r8b, %r8b
	je	.LBB0_857
# %bb.856:
	xorl	%eax, %eax
	jmp	.LBB0_859
.LBB0_857:                              # %if.else8508
	cmpb	$0, 609(%rbx)
	je	.LBB0_860
# %bb.858:                              # %if.then8511
	movb	603(%rbx), %al
	notb	%al
	andb	$1, %al
.LBB0_859:                              # %if.end8518.sink.split
	movb	%al, 1491452(%rbx)
.LBB0_860:                              # %if.end8518
	movb	2183(%rbx), %al
	notb	%al
	testb	%al, 70(%rbx)
	je	.LBB0_862
# %bb.861:                              # %if.then8603
	movzbl	70909(%rbx), %eax
	movb	1010308(%rbx,%rax), %cl
	movb	%cl, 1493087(%rbx)
	movb	$1, 1493088(%rbx)
	movb	2178(%rbx), %cl
	movb	%cl, 1493086(%rbx)
	movq	%rax, %rdi
	shlq	$5, %rdi
	movdqu	1010336(%rbx,%rdi), %xmm0
	movdqu	1010352(%rbx,%rdi), %xmm1
	movdqu	%xmm1, 1500240(%rbx)
	movdqu	%xmm0, 1500224(%rbx)
	movb	$1, 1493085(%rbx)
	movb	%cl, 1493084(%rbx)
	movq	1010320(%rbx,%rax,8), %rax
	movq	%rax, 1503872(%rbx)
	movb	$1, 1493078(%rbx)
	movb	%cl, 1493077(%rbx)
.LBB0_862:                              # %if.end8608
	testb	%r8b, %r8b
	je	.LBB0_863
# %bb.2654:                             # %if.then8655
	movb	$0, 1491536(%rbx)
	movb	$0, 1491530(%rbx)
	movb	$0, 1492711(%rbx)
	xorl	%eax, %eax
	jmp	.LBB0_871
.LBB0_863:                              # %if.else8612
	cmpb	$0, 690(%rbx)
	je	.LBB0_865
# %bb.864:                              # %if.then8615
	movb	684(%rbx), %al
	notb	%al
	andb	$1, %al
	movb	%al, 1491536(%rbx)
.LBB0_865:                              # %if.else8627
	cmpb	$0, 689(%rbx)
	je	.LBB0_867
# %bb.866:                              # %if.then8630
	movb	683(%rbx), %al
	notb	%al
	andb	$1, %al
	movb	%al, 1491530(%rbx)
.LBB0_867:                              # %if.else8641
	cmpb	$0, 1657(%rbx)
	je	.LBB0_869
# %bb.868:                              # %if.then8644
	movb	1651(%rbx), %al
	notb	%al
	andb	$1, %al
	movb	%al, 1492711(%rbx)
.LBB0_869:                              # %if.else8656
	cmpb	$0, 1656(%rbx)
	je	.LBB0_872
# %bb.870:                              # %if.then8659
	movb	1650(%rbx), %al
	notb	%al
	andb	$1, %al
.LBB0_871:                              # %if.end8666.sink.split
	movb	%al, 1492705(%rbx)
.LBB0_872:                              # %if.end8666
	cmpb	$0, 5404(%rbx)
	je	.LBB0_874
# %bb.873:                              # %if.then8668
	movb	68296(%rbx), %al
	andb	$6, %al
	cmpb	$4, %al
	sete	5438(%rbx)
.LBB0_874:                              # %if.end8674
	testb	%r8b, %r8b
	je	.LBB0_875
# %bb.2655:                             # %if.then8689
	movb	$0, 259(%rbx)
	xorl	%eax, %eax
	jmp	.LBB0_877
.LBB0_875:                              # %if.else8678
	testb	$1, 246(%rbx)
	jne	.LBB0_878
# %bb.876:                              # %if.then8696
	movb	254(%rbx), %al
	movb	255(%rbx), %cl
	movb	%cl, 259(%rbx)
.LBB0_877:                              # %if.end8699.sink.split
	movb	%al, 257(%rbx)
.LBB0_878:                              # %if.end8699
	testb	%sil, %sil
	je	.LBB0_879
# %bb.2656:                             # %if.then8745
	movb	$0, 1497094(%rbx)
	movb	$0, 1497089(%rbx)
	movb	$0, 1497137(%rbx)
	xorl	%eax, %eax
	jmp	.LBB0_887
.LBB0_879:                              # %if.else8703
	cmpb	$0, 68147(%rbx)
	je	.LBB0_881
# %bb.880:                              # %if.then8706
	movb	68141(%rbx), %al
	notb	%al
	andb	$1, %al
	movb	%al, 1497094(%rbx)
.LBB0_881:                              # %if.else8717
	cmpb	$0, 68148(%rbx)
	je	.LBB0_883
# %bb.882:                              # %if.then8720
	movb	68142(%rbx), %al
	notb	%al
	andb	$1, %al
	movb	%al, 1497089(%rbx)
.LBB0_883:                              # %if.else8731
	cmpb	$0, 68184(%rbx)
	je	.LBB0_885
# %bb.884:                              # %if.then8734
	movb	68178(%rbx), %al
	notb	%al
	andb	$1, %al
	movb	%al, 1497137(%rbx)
.LBB0_885:                              # %if.else8746
	cmpb	$0, 68185(%rbx)
	je	.LBB0_888
# %bb.886:                              # %if.then8749
	movb	68179(%rbx), %al
	notb	%al
	andb	$1, %al
.LBB0_887:                              # %if.end8756.sink.split
	movb	%al, 1497126(%rbx)
.LBB0_888:                              # %if.end8756
	xorl	%eax, %eax
	testb	%r11b, %r11b
	jne	.LBB0_891
# %bb.889:                              # %if.else8760
	movzbl	71008(%rbx), %eax
	movzwl	230496(%rbx), %ecx
	xorl	%edi, %edi
	testl	$8191, %ecx             # imm = 0x1FFF
	sete	%dil
	testl	%eax, %edi
	je	.LBB0_892
# %bb.890:                              # %if.then8769
	movl	230548(%rbx), %eax
.LBB0_891:                              # %if.end8773.sink.split
	movl	%eax, 230500(%rbx)
.LBB0_892:                              # %if.end8773
	cmpb	$0, 39585(%rbx)
	je	.LBB0_894
# %bb.893:                              # %if.then8780
	movzwl	61559(%rbx), %eax
	movw	%ax, 39574(%rbx)
.LBB0_894:                              # %if.end8782
	cmpb	$0, 39584(%rbx)
	je	.LBB0_896
# %bb.895:                              # %if.then8789
	movzwl	61559(%rbx), %eax
	movw	%ax, 39558(%rbx)
.LBB0_896:                              # %if.end8791
	cmpb	$0, 39583(%rbx)
	je	.LBB0_898
# %bb.897:                              # %if.then8798
	movzwl	61559(%rbx), %eax
	movw	%ax, 39542(%rbx)
.LBB0_898:                              # %if.end8800
	cmpb	$0, 39582(%rbx)
	je	.LBB0_900
# %bb.899:                              # %if.then8807
	movzwl	61559(%rbx), %eax
	movw	%ax, 39526(%rbx)
.LBB0_900:                              # %if.end8809
	cmpb	$0, 39579(%rbx)
	je	.LBB0_902
# %bb.901:                              # %if.then8816
	movzwl	61559(%rbx), %eax
	movw	%ax, 39478(%rbx)
.LBB0_902:                              # %if.end8818
	cmpb	$0, 39578(%rbx)
	je	.LBB0_904
# %bb.903:                              # %if.then8825
	movzwl	61559(%rbx), %eax
	movw	%ax, 39462(%rbx)
.LBB0_904:                              # %if.end8827
	cmpb	$0, 39580(%rbx)
	je	.LBB0_906
# %bb.905:                              # %if.then8834
	movzwl	61559(%rbx), %eax
	movw	%ax, 39494(%rbx)
.LBB0_906:                              # %if.end8836
	cmpb	$0, 39581(%rbx)
	je	.LBB0_908
# %bb.907:                              # %if.then8843
	movzwl	61559(%rbx), %eax
	movw	%ax, 39510(%rbx)
.LBB0_908:                              # %if.end8845
	cmpb	$0, 247(%rbx)
	movb	%dl, 5(%rsp)            # 1-byte Spill
	movl	%esi, %edx
	je	.LBB0_910
# %bb.909:                              # %cond.true8851
	movzbl	254(%rbx), %esi
	movzbl	2151(%rbx), %r13d
	shrl	$2, %r13d
	movb	2152(%rbx), %cl
	movb	2203(%rbx), %al
	movl	$63, %r15d
	shll	%cl, %r15d
	movl	$63, %edi
	shrl	$5, %r15d
	orl	%r13d, %r15d
	notl	%r15d
	andl	%esi, %r15d
	movzbl	255(%rbx), %esi
	movzbl	2202(%rbx), %ebp
	shrl	$2, %ebp
	movl	%eax, %ecx
	shll	%cl, %edi
	shrl	$5, %edi
	orl	%ebp, %edi
	notl	%edi
	andl	%esi, %edi
	orl	%r15d, %edi
	jmp	.LBB0_911
.LBB0_910:                              # %cond.false8877
	movzbl	246(%rbx), %edi
	movzbl	262(%rbx), %eax
	subl	%eax, %edi
.LBB0_911:                              # %cond.end8881
	movl	%r8d, %eax
	notb	%al
	andb	%dil, %al
	andb	$1, %al
	movb	%al, 246(%rbx)
	movb	15470(%rbx), %al
	movb	%al, 10812(%rbx)
	movb	%al, 10808(%rbx)
	movb	%al, 10816(%rbx)
	movb	%al, 10804(%rbx)
	testb	%r9b, %r9b
	je	.LBB0_913
# %bb.912:                              # %if.then8894
	movb	19061(%rbx), %al
	movb	19070(%rbx), %cl
	andb	27905(%rbx), %al
	andb	27906(%rbx), %cl
	orb	%al, %cl
	movb	%cl, 27845(%rbx)
.LBB0_913:                              # %if.end8905
	testb	%r14b, %r14b
	movl	%edx, %esi
	je	.LBB0_915
# %bb.914:                              # %if.then8909
	movb	19061(%rbx), %al
	movb	19070(%rbx), %cl
	andb	27902(%rbx), %al
	andb	27903(%rbx), %cl
	orb	%al, %cl
	movb	%cl, 27840(%rbx)
.LBB0_915:                              # %if.end8922
	testb	%r12b, %r12b
	je	.LBB0_917
# %bb.916:                              # %if.then8926
	movb	19061(%rbx), %al
	movb	19070(%rbx), %cl
	andb	27899(%rbx), %al
	andb	27900(%rbx), %cl
	orb	%al, %cl
	movb	%cl, 27835(%rbx)
.LBB0_917:                              # %if.end8939
	cmpb	$0, 27898(%rbx)
	je	.LBB0_919
# %bb.918:                              # %if.then8942
	movb	19061(%rbx), %al
	movb	19070(%rbx), %cl
	andb	27896(%rbx), %al
	andb	27897(%rbx), %cl
	orb	%al, %cl
	movb	%cl, 27830(%rbx)
.LBB0_919:                              # %if.end8953
	cmpb	$0, 27895(%rbx)
	je	.LBB0_921
# %bb.920:                              # %if.then8956
	movb	19061(%rbx), %al
	movb	19070(%rbx), %cl
	andb	27893(%rbx), %al
	andb	27894(%rbx), %cl
	orb	%al, %cl
	movb	%cl, 27825(%rbx)
.LBB0_921:                              # %if.end8967
	cmpb	$0, 27892(%rbx)
	je	.LBB0_923
# %bb.922:                              # %if.then8970
	movb	19061(%rbx), %al
	movb	19070(%rbx), %cl
	andb	27890(%rbx), %al
	andb	27891(%rbx), %cl
	orb	%al, %cl
	movb	%cl, 27820(%rbx)
.LBB0_923:                              # %if.end8981
	cmpb	$0, 27889(%rbx)
	je	.LBB0_925
# %bb.924:                              # %if.then8984
	movb	19061(%rbx), %al
	movb	19070(%rbx), %cl
	andb	27887(%rbx), %al
	andb	27888(%rbx), %cl
	orb	%al, %cl
	movb	%cl, 27815(%rbx)
.LBB0_925:                              # %if.end8995
	cmpb	$0, 27883(%rbx)
	je	.LBB0_927
# %bb.926:                              # %if.then8998
	movb	19061(%rbx), %al
	movb	19070(%rbx), %cl
	andb	27881(%rbx), %al
	andb	27882(%rbx), %cl
	orb	%al, %cl
	movb	%cl, 27805(%rbx)
.LBB0_927:                              # %if.end9009
	cmpb	$0, 27880(%rbx)
	je	.LBB0_929
# %bb.928:                              # %if.then9012
	movb	19061(%rbx), %al
	movb	19070(%rbx), %cl
	andb	27878(%rbx), %al
	andb	27879(%rbx), %cl
	orb	%al, %cl
	movb	%cl, 27800(%rbx)
.LBB0_929:                              # %if.end9023
	cmpb	$0, 27868(%rbx)
	je	.LBB0_931
# %bb.930:                              # %if.then9026
	movb	19061(%rbx), %al
	movb	19070(%rbx), %cl
	andb	27866(%rbx), %al
	andb	27867(%rbx), %cl
	orb	%al, %cl
	movb	%cl, 27780(%rbx)
.LBB0_931:                              # %if.end9037
	cmpb	$0, 27862(%rbx)
	je	.LBB0_933
# %bb.932:                              # %if.then9040
	movb	19061(%rbx), %al
	movb	19070(%rbx), %cl
	andb	27860(%rbx), %al
	andb	27861(%rbx), %cl
	orb	%al, %cl
	movb	%cl, 27770(%rbx)
.LBB0_933:                              # %if.end9051
	cmpb	$0, 27874(%rbx)
	je	.LBB0_935
# %bb.934:                              # %if.then9054
	movb	19061(%rbx), %al
	movb	19070(%rbx), %cl
	andb	27872(%rbx), %al
	andb	27873(%rbx), %cl
	orb	%al, %cl
	movb	%cl, 27790(%rbx)
.LBB0_935:                              # %if.end9065
	cmpb	$0, 27871(%rbx)
	je	.LBB0_937
# %bb.936:                              # %if.then9068
	movb	19061(%rbx), %al
	movb	19070(%rbx), %cl
	andb	27869(%rbx), %al
	andb	27870(%rbx), %cl
	orb	%al, %cl
	movb	%cl, 27785(%rbx)
.LBB0_937:                              # %if.end9079
	cmpb	$0, 27877(%rbx)
	je	.LBB0_939
# %bb.938:                              # %if.then9082
	movb	19061(%rbx), %al
	movb	19070(%rbx), %cl
	andb	27875(%rbx), %al
	andb	27876(%rbx), %cl
	orb	%al, %cl
	movb	%cl, 27795(%rbx)
.LBB0_939:                              # %if.end9093
	cmpb	$0, 27865(%rbx)
	je	.LBB0_941
# %bb.940:                              # %if.then9096
	movb	19061(%rbx), %al
	movb	19070(%rbx), %cl
	andb	27863(%rbx), %al
	andb	27864(%rbx), %cl
	orb	%al, %cl
	movb	%cl, 27775(%rbx)
.LBB0_941:                              # %if.end9107
	cmpb	$0, 27886(%rbx)
	je	.LBB0_943
# %bb.942:                              # %if.then9110
	movb	19061(%rbx), %al
	movb	19070(%rbx), %cl
	andb	27884(%rbx), %al
	andb	27885(%rbx), %cl
	orb	%al, %cl
	movb	%cl, 27810(%rbx)
.LBB0_943:                              # %if.end9121
	movb	555(%rbx), %al
	orb	572(%rbx), %al
	testb	$1, %al
	jne	.LBB0_945
# %bb.944:                              # %if.then9173
	movzbl	552(%rbx), %eax
	movb	273386(%rbx,%rax), %cl
	movb	%cl, 1491407(%rbx)
	movb	$1, 1491408(%rbx)
	movb	567(%rbx), %cl
	movb	%cl, 1491406(%rbx)
	movb	273384(%rbx,%rax), %dl
	movb	%dl, 1491404(%rbx)
	movb	$1, 1491405(%rbx)
	movb	%cl, 1491403(%rbx)
	movb	273388(%rbx,%rax), %dl
	movb	%dl, 1491400(%rbx)
	movb	$1, 1491401(%rbx)
	movb	%cl, 1491399(%rbx)
	movq	273392(%rbx,%rax,8), %rax
	movq	%rax, 1503552(%rbx)
	movb	$1, 1491398(%rbx)
	movb	567(%rbx), %al
	movb	%al, 1491397(%rbx)
.LBB0_945:                              # %if.end9178
	movb	70699(%rbx), %al
	andb	70698(%rbx), %al
	je	.LBB0_950
# %bb.946:                              # %if.then9183
	movb	$1, 1497551(%rbx)
	testb	$1, 70695(%rbx)
	jne	.LBB0_948
# %bb.947:
	xorl	%ecx, %ecx
	jmp	.LBB0_949
.LBB0_948:                              # %cond.true9187
	movb	70696(%rbx), %cl
.LBB0_949:                              # %cond.end9190
	movb	%cl, 1497550(%rbx)
.LBB0_950:                              # %if.end9193
	cmpb	$0, 5406(%rbx)
	je	.LBB0_952
# %bb.951:                              # %if.then9195
	movb	68296(%rbx), %cl
	andb	$6, %cl
	cmpb	$4, %cl
	sete	5455(%rbx)
.LBB0_952:                              # %if.end9202
	movb	1540(%rbx), %cl
	orb	1583(%rbx), %cl
	testb	$1, %cl
	jne	.LBB0_954
# %bb.953:                              # %if.then9210
	movzbl	1537(%rbx), %ecx
	movb	277436(%rbx,%rcx), %cl
	movb	%cl, 1492633(%rbx)
	movb	$1, 1492634(%rbx)
	movb	1578(%rbx), %cl
	movb	%cl, 1492632(%rbx)
.LBB0_954:                              # %if.end9214
	testb	%r11b, %r11b
	je	.LBB0_956
# %bb.955:
	xorl	%ecx, %ecx
	movb	6(%rsp), %dil           # 1-byte Reload
	movb	7(%rsp), %r9b           # 1-byte Reload
	jmp	.LBB0_958
.LBB0_956:                              # %if.else9218
	cmpb	$0, 70906(%rbx)
	movb	6(%rsp), %dil           # 1-byte Reload
	movb	7(%rsp), %r9b           # 1-byte Reload
	je	.LBB0_959
# %bb.957:                              # %if.then9220
	movb	70900(%rbx), %cl
	notb	%cl
	andb	$1, %cl
.LBB0_958:                              # %if.end9227.sink.split
	movb	%cl, 1497762(%rbx)
.LBB0_959:                              # %if.end9227
	testb	%al, %al
	je	.LBB0_970
# %bb.960:                              # %if.then9234
	movb	68361(%rbx), %al
	movb	%al, 1497553(%rbx)
	movb	$1, 1497554(%rbx)
	testb	$1, 70695(%rbx)
	jne	.LBB0_962
# %bb.961:
	xorl	%eax, %eax
	jmp	.LBB0_963
.LBB0_962:                              # %cond.true9239
	movb	70696(%rbx), %al
.LBB0_963:                              # %if.then9253
	movb	%al, 1497552(%rbx)
	movb	70839(%rbx), %al
	movb	%al, 1497559(%rbx)
	movb	$1, 1497560(%rbx)
	testb	$1, 70695(%rbx)
	jne	.LBB0_965
# %bb.964:
	xorl	%eax, %eax
	jmp	.LBB0_966
.LBB0_965:                              # %cond.true9258
	movb	70696(%rbx), %al
.LBB0_966:                              # %if.then9272
	movb	%al, 1497558(%rbx)
	movb	70841(%rbx), %al
	movb	%al, 1497541(%rbx)
	movb	$1, 1497542(%rbx)
	testb	$1, 70695(%rbx)
	jne	.LBB0_968
# %bb.967:
	xorl	%eax, %eax
	jmp	.LBB0_969
.LBB0_968:                              # %cond.true9277
	movb	70696(%rbx), %al
.LBB0_969:                              # %cond.end9281
	movb	%al, 1497540(%rbx)
.LBB0_970:                              # %if.end9284
	movb	855(%rbx), %al
	notb	%al
	testb	%al, 735(%rbx)
	je	.LBB0_972
# %bb.971:                              # %if.then9300
	movb	1371(%rbx), %al
	movb	1372(%rbx), %cl
	movb	%al, 1491641(%rbx)
	movb	$1, 1491642(%rbx)
	movb	%cl, 1491639(%rbx)
	movb	$1, 1491640(%rbx)
.LBB0_972:                              # %if.end9302
	movb	858(%rbx), %al
	notb	%al
	testb	%al, 736(%rbx)
	je	.LBB0_974
# %bb.973:                              # %if.then9318
	movb	1371(%rbx), %al
	movb	1372(%rbx), %cl
	movb	%al, 1491645(%rbx)
	movb	$1, 1491646(%rbx)
	movb	%cl, 1491643(%rbx)
	movb	$1, 1491644(%rbx)
.LBB0_974:                              # %if.end9320
	movb	861(%rbx), %al
	notb	%al
	testb	%al, 737(%rbx)
	je	.LBB0_976
# %bb.975:                              # %if.then9336
	movb	1371(%rbx), %al
	movb	1372(%rbx), %cl
	movb	%al, 1491649(%rbx)
	movb	$1, 1491650(%rbx)
	movb	%cl, 1491647(%rbx)
	movb	$1, 1491648(%rbx)
.LBB0_976:                              # %if.end9338
	movb	864(%rbx), %al
	notb	%al
	testb	%al, 738(%rbx)
	je	.LBB0_978
# %bb.977:                              # %if.then9354
	movb	1371(%rbx), %al
	movb	1372(%rbx), %cl
	movb	%al, 1491653(%rbx)
	movb	$1, 1491654(%rbx)
	movb	%cl, 1491651(%rbx)
	movb	$1, 1491652(%rbx)
.LBB0_978:                              # %if.end9356
	testb	%r8b, %r8b
	je	.LBB0_979
# %bb.2657:                             # %if.then9381
	movb	$0, 1730(%rbx)
	xorl	%eax, %eax
	jmp	.LBB0_983
.LBB0_979:                              # %if.else9360
	movzbl	1769(%rbx), %eax
	movzbl	1732(%rbx), %ecx
	xorl	$255, %eax
	andl	%ecx, %eax
	movzbl	1708(%rbx), %ecx
	notl	%ecx
	testl	%ecx, %eax
	je	.LBB0_981
# %bb.980:                              # %if.then9371
	movb	1703(%rbx), %al
	notb	%al
	andb	$1, %al
	movb	%al, 1730(%rbx)
.LBB0_981:                              # %if.else9382
	cmpb	$0, 1683(%rbx)
	je	.LBB0_984
# %bb.982:                              # %if.then9385
	movb	1677(%rbx), %al
	notb	%al
	andb	$1, %al
.LBB0_983:                              # %if.end9393.sink.split
	movb	%al, 1492730(%rbx)
.LBB0_984:                              # %if.end9393
	movb	1768(%rbx), %al
	orb	1785(%rbx), %al
	testb	$1, %al
	jne	.LBB0_986
# %bb.985:                              # %if.then9445
	movzbl	1765(%rbx), %eax
	movb	277890(%rbx,%rax), %cl
	movb	%cl, 1492847(%rbx)
	movb	$1, 1492848(%rbx)
	movb	1780(%rbx), %cl
	movb	%cl, 1492846(%rbx)
	movb	277888(%rbx,%rax), %dl
	movb	%dl, 1492844(%rbx)
	movb	$1, 1492845(%rbx)
	movb	%cl, 1492843(%rbx)
	movb	277892(%rbx,%rax), %dl
	movb	%dl, 1492840(%rbx)
	movb	$1, 1492841(%rbx)
	movb	%cl, 1492839(%rbx)
	movq	277896(%rbx,%rax,8), %rax
	movq	%rax, 1503760(%rbx)
	movb	$1, 1492838(%rbx)
	movb	1780(%rbx), %al
	movb	%al, 1492837(%rbx)
.LBB0_986:                              # %if.end9450
	testb	%r8b, %r8b
	je	.LBB0_987
# %bb.2658:                             # %if.then9496
	movb	$0, 1493111(%rbx)
	movb	$0, 1493107(%rbx)
	movb	$0, 1493095(%rbx)
	xorl	%eax, %eax
	jmp	.LBB0_995
.LBB0_987:                              # %if.else9454
	cmpb	$0, 2200(%rbx)
	je	.LBB0_989
# %bb.988:                              # %if.then9457
	movb	2194(%rbx), %al
	notb	%al
	andb	$1, %al
	movb	%al, 1493111(%rbx)
.LBB0_989:                              # %if.else9468
	cmpb	$0, 2201(%rbx)
	je	.LBB0_991
# %bb.990:                              # %if.then9471
	movb	2195(%rbx), %al
	notb	%al
	andb	$1, %al
	movb	%al, 1493107(%rbx)
.LBB0_991:                              # %if.else9483
	cmpb	$0, 2192(%rbx)
	je	.LBB0_993
# %bb.992:                              # %if.then9486
	movb	2186(%rbx), %al
	notb	%al
	andb	$1, %al
	movb	%al, 1493095(%rbx)
.LBB0_993:                              # %if.else9497
	cmpb	$0, 2193(%rbx)
	je	.LBB0_996
# %bb.994:                              # %if.then9500
	movb	2187(%rbx), %al
	notb	%al
	andb	$1, %al
.LBB0_995:                              # %if.end9508.sink.split
	movb	%al, 1493091(%rbx)
.LBB0_996:                              # %if.end9508
	testb	%sil, %sil
	je	.LBB0_997
# %bb.2659:                             # %if.then9526
	movb	$0, 1497095(%rbx)
	xorl	%eax, %eax
	jmp	.LBB0_1001
.LBB0_997:                              # %if.else9512
	cmpb	$0, 68156(%rbx)
	je	.LBB0_999
# %bb.998:                              # %if.then9515
	movb	68150(%rbx), %al
	notb	%al
	andb	$1, %al
	movb	%al, 1497095(%rbx)
.LBB0_999:                              # %if.else9527
	cmpb	$0, 68193(%rbx)
	je	.LBB0_1002
# %bb.1000:                             # %if.then9530
	movb	68187(%rbx), %al
	notb	%al
	andb	$1, %al
.LBB0_1001:                             # %if.end9538.sink.split
	movb	%al, 1497143(%rbx)
.LBB0_1002:                             # %if.end9538
	testb	%r8b, %r8b
	je	.LBB0_1004
# %bb.1003:
	xorl	%eax, %eax
	jmp	.LBB0_1005
.LBB0_1004:                             # %if.else9542
	movb	625(%rbx), %al
	cmpb	626(%rbx), %al
	je	.LBB0_1006
.LBB0_1005:                             # %if.end9550.sink.split
	movb	%al, 621(%rbx)
.LBB0_1006:                             # %if.end9550
	movzbl	615(%rbx), %eax
	xorl	$1, %eax
	xorl	%ecx, %ecx
	cmpb	$3, 71105(%rbx)
	sete	%cl
	testl	%eax, %ecx
	je	.LBB0_1008
# %bb.1007:                             # %if.then9560
	movzwl	77190(%rbx), %eax
	movw	%ax, 1497842(%rbx)
	movb	$1, 1491458(%rbx)
	movb	610(%rbx), %al
	movb	%al, 1491457(%rbx)
.LBB0_1008:                             # %if.end9562
	testb	%r8b, %r8b
	je	.LBB0_1009
# %bb.2660:                             # %if.then9579
	movb	$0, 1491284(%rbx)
	xorl	%eax, %eax
	jmp	.LBB0_1013
.LBB0_1009:                             # %if.else9566
	cmpb	$0, 304(%rbx)
	je	.LBB0_1011
# %bb.1010:                             # %if.then9569
	movb	298(%rbx), %al
	notb	%al
	andb	$1, %al
	movb	%al, 1491284(%rbx)
.LBB0_1011:                             # %if.else9580
	cmpb	$0, 305(%rbx)
	je	.LBB0_1014
# %bb.1012:                             # %if.then9583
	movb	299(%rbx), %al
	notb	%al
	andb	$1, %al
.LBB0_1013:                             # %if.end9590.sink.split
	movb	%al, 1491281(%rbx)
.LBB0_1014:                             # %if.end9590
	movb	1647(%rbx), %al
	notb	%al
	testb	%al, 91(%rbx)
	je	.LBB0_1016
# %bb.1015:                             # %if.then9598
	movb	1642(%rbx), %al
	movb	1717(%rbx), %cl
	movb	%cl, 1492701(%rbx)
	movb	$1, 1492702(%rbx)
	movb	%al, 1492700(%rbx)
.LBB0_1016:                             # %if.end9600
	movb	1672(%rbx), %al
	notb	%al
	testb	%al, 92(%rbx)
	je	.LBB0_1018
# %bb.1017:                             # %if.then9608
	movb	1667(%rbx), %al
	movb	1717(%rbx), %cl
	movb	%cl, 1492726(%rbx)
	movb	$1, 1492727(%rbx)
	movb	%al, 1492725(%rbx)
.LBB0_1018:                             # %if.end9611
	testb	%r8b, %r8b
	je	.LBB0_1019
# %bb.2661:                             # %if.then9623
	movabsq	$796867801125948160, %rax # imm = 0xB0F0B0B0B0F0B00
	movq	%rax, 232136(%rbx)
	movabsq	$35777043401018120, %rax # imm = 0x7F1B080B080B08
	jmp	.LBB0_1023
.LBB0_1019:                             # %if.else9615
	cmpb	$0, 3691(%rbx)
	je	.LBB0_1021
# %bb.1020:                             # %if.then9617
	movq	232296(%rbx), %rax
	movq	%rax, 232136(%rbx)
.LBB0_1021:                             # %if.else9624
	cmpb	$0, 3716(%rbx)
	je	.LBB0_1024
# %bb.1022:                             # %if.then9626
	movq	232296(%rbx), %rax
.LBB0_1023:                             # %if.end9630.sink.split
	movq	%rax, 232144(%rbx)
.LBB0_1024:                             # %if.end9630
	testb	$1, %dil
	je	.LBB0_1025
# %bb.1026:                             # %if.end9645
	testb	$1, %r9b
	je	.LBB0_1027
.LBB0_1028:                             # %if.end9660
	testb	%r8b, %r8b
	je	.LBB0_1030
.LBB0_1029:
	xorl	%eax, %eax
	jmp	.LBB0_1031
.LBB0_1025:                             # %if.then9640
	movzbl	68134(%rbx), %eax
	movb	453460(%rbx,%rax), %al
	movb	%al, 1497099(%rbx)
	movb	$1, 1497100(%rbx)
	movb	68150(%rbx), %al
	movb	%al, 1497098(%rbx)
	testb	$1, %r9b
	jne	.LBB0_1028
.LBB0_1027:                             # %if.then9655
	movzbl	68171(%rbx), %eax
	movb	453604(%rbx,%rax), %al
	movb	%al, 1497147(%rbx)
	movb	$1, 1497148(%rbx)
	movb	68187(%rbx), %al
	movb	%al, 1497146(%rbx)
	testb	%r8b, %r8b
	jne	.LBB0_1029
.LBB0_1030:                             # %if.else9664
	movb	1710(%rbx), %al
	cmpb	1711(%rbx), %al
	je	.LBB0_1032
.LBB0_1031:                             # %if.end9672.sink.split
	movb	%al, 1706(%rbx)
.LBB0_1032:                             # %if.end9672
	movb	24552(%rbx), %r9b
	testb	%r9b, %r9b
	je	.LBB0_1040
# %bb.1033:                             # %if.then9675
	cmpb	$0, 24550(%rbx)
	je	.LBB0_1034
# %bb.1035:                             # %cond.true9678
	movb	18971(%rbx), %al
	cmpb	$0, 24551(%rbx)
	je	.LBB0_1037
.LBB0_1038:                             # %cond.true9685
	movb	18994(%rbx), %cl
	jmp	.LBB0_1039
.LBB0_1034:
	xorl	%eax, %eax
	cmpb	$0, 24551(%rbx)
	jne	.LBB0_1038
.LBB0_1037:
	xorl	%ecx, %ecx
.LBB0_1039:                             # %cond.end9688
	orb	%al, %cl
	movb	%cl, 24479(%rbx)
.LBB0_1040:                             # %if.end9692
	movb	24549(%rbx), %r11b
	testb	%r11b, %r11b
	je	.LBB0_1048
# %bb.1041:                             # %if.then9695
	cmpb	$0, 24547(%rbx)
	je	.LBB0_1042
# %bb.1043:                             # %cond.true9698
	movb	18971(%rbx), %al
	cmpb	$0, 24548(%rbx)
	je	.LBB0_1045
.LBB0_1046:                             # %cond.true9706
	movb	18994(%rbx), %cl
	jmp	.LBB0_1047
.LBB0_1042:
	xorl	%eax, %eax
	cmpb	$0, 24548(%rbx)
	jne	.LBB0_1046
.LBB0_1045:
	xorl	%ecx, %ecx
.LBB0_1047:                             # %cond.end9710
	orb	%al, %cl
	movb	%cl, 24462(%rbx)
.LBB0_1048:                             # %if.end9714
	movb	24546(%rbx), %bpl
	testb	%bpl, %bpl
	je	.LBB0_1056
# %bb.1049:                             # %if.then9717
	cmpb	$0, 24544(%rbx)
	je	.LBB0_1050
# %bb.1051:                             # %cond.true9720
	movb	18971(%rbx), %cl
	cmpb	$0, 24545(%rbx)
	je	.LBB0_1053
.LBB0_1054:                             # %cond.true9728
	movb	18994(%rbx), %dil
	jmp	.LBB0_1055
.LBB0_1050:
	xorl	%ecx, %ecx
	cmpb	$0, 24545(%rbx)
	jne	.LBB0_1054
.LBB0_1053:
	xorl	%edi, %edi
.LBB0_1055:                             # %cond.end9732
	orb	%cl, %dil
	movb	%dil, 24445(%rbx)
.LBB0_1056:                             # %if.end9736
	movb	%r10b, 13148(%rbx)
	movb	%r10b, 13478(%rbx)
	movb	%r10b, 13808(%rbx)
	movb	%r10b, 14138(%rbx)
	movb	13104(%rbx), %cl
	andb	%r10b, %cl
	movb	%cl, 13138(%rbx)
	movb	13434(%rbx), %cl
	andb	%r10b, %cl
	movb	%cl, 13468(%rbx)
	testb	%r10b, %r10b
	je	.LBB0_1057
# %bb.1058:                             # %if.then9777
	movb	234640(%rbx), %cl
	movb	234768(%rbx), %dl
	movb	%cl, 13479(%rbx)
	movb	13764(%rbx), %cl
	andb	%r10b, %cl
	movb	%cl, 13798(%rbx)
	movb	%dl, 13809(%rbx)
	movb	14094(%rbx), %cl
	andb	%r10b, %cl
	movb	%cl, 14128(%rbx)
	movb	234896(%rbx), %cl
	movb	%cl, 14139(%rbx)
	cmpb	$0, 9773(%rbx)
	je	.LBB0_1061
.LBB0_1060:                             # %if.then9786
	movb	9774(%rbx), %cl
	movb	%cl, 8806(%rbx)
.LBB0_1061:                             # %if.end9788
	cmpb	$0, 9771(%rbx)
	je	.LBB0_1063
# %bb.1062:                             # %if.then9793
	movb	9772(%rbx), %cl
	movb	%cl, 8805(%rbx)
.LBB0_1063:                             # %if.end9795
	cmpb	$0, 9769(%rbx)
	je	.LBB0_1065
# %bb.1064:                             # %if.then9800
	movb	9770(%rbx), %cl
	movb	%cl, 8804(%rbx)
.LBB0_1065:                             # %if.end9802
	cmpb	$0, 9767(%rbx)
	je	.LBB0_1067
# %bb.1066:                             # %if.then9807
	movb	9768(%rbx), %cl
	movb	%cl, 8803(%rbx)
.LBB0_1067:                             # %if.end9809
	cmpb	$0, 9765(%rbx)
	je	.LBB0_1069
# %bb.1068:                             # %if.then9814
	movb	9766(%rbx), %cl
	movb	%cl, 8802(%rbx)
.LBB0_1069:                             # %if.end9816
	cmpb	$0, 9763(%rbx)
	je	.LBB0_1071
# %bb.1070:                             # %if.then9821
	movb	9764(%rbx), %cl
	movb	%cl, 8801(%rbx)
.LBB0_1071:                             # %if.end9823
	cmpb	$0, 9761(%rbx)
	je	.LBB0_1073
# %bb.1072:                             # %if.then9828
	movb	9762(%rbx), %cl
	movb	%cl, 8800(%rbx)
.LBB0_1073:                             # %if.end9830
	cmpb	$0, 9759(%rbx)
	je	.LBB0_1075
# %bb.1074:                             # %if.then9835
	movb	9760(%rbx), %cl
	movb	%cl, 8799(%rbx)
.LBB0_1075:                             # %if.end9837
	cmpb	$0, 9757(%rbx)
	je	.LBB0_1077
# %bb.1076:                             # %if.then9842
	movb	9758(%rbx), %cl
	movb	%cl, 8798(%rbx)
.LBB0_1077:                             # %if.end9844
	cmpb	$0, 9755(%rbx)
	je	.LBB0_1079
# %bb.1078:                             # %if.then9849
	movb	9756(%rbx), %cl
	movb	%cl, 8797(%rbx)
.LBB0_1079:                             # %if.end9851
	cmpb	$0, 9753(%rbx)
	je	.LBB0_1081
# %bb.1080:                             # %if.then9856
	movb	9754(%rbx), %cl
	movb	%cl, 8796(%rbx)
.LBB0_1081:                             # %if.end9858
	cmpb	$0, 9751(%rbx)
	je	.LBB0_1083
# %bb.1082:                             # %if.then9863
	movb	9752(%rbx), %cl
	movb	%cl, 8795(%rbx)
.LBB0_1083:                             # %if.end9865
	cmpb	$0, 9749(%rbx)
	je	.LBB0_1085
# %bb.1084:                             # %if.then9870
	movb	9750(%rbx), %cl
	movb	%cl, 8794(%rbx)
.LBB0_1085:                             # %if.end9872
	testb	%r8b, %r8b
	je	.LBB0_1087
# %bb.1086:
	xorl	%ecx, %ecx
	jmp	.LBB0_1088
.LBB0_1057:                             # %if.end9769.thread
	movb	$0, 13798(%rbx)
	movb	14094(%rbx), %cl
	andb	%r10b, %cl
	movb	%cl, 14128(%rbx)
	cmpb	$0, 9773(%rbx)
	jne	.LBB0_1060
	jmp	.LBB0_1061
.LBB0_1087:                             # %if.else9876
	movb	3765(%rbx), %cl
	cmpb	3766(%rbx), %cl
	je	.LBB0_1089
.LBB0_1088:                             # %if.end9884.sink.split
	movb	%cl, 3761(%rbx)
.LBB0_1089:                             # %if.end9884
	testb	%r10b, %r10b
	je	.LBB0_1091
# %bb.1090:                             # %if.then9887
	movb	5904(%rbx), %cl
	addb	%cl, %cl
	xorb	234320(%rbx), %cl
	movb	%cl, 10897(%rbx)
.LBB0_1091:                             # %if.end9893
	movb	60288(%rbx), %r10b
	testb	%r10b, %r10b
	je	.LBB0_1098
# %bb.1092:                             # %if.then9895
	movzbl	46888(%rbx), %ecx
	cmpq	$3, %rcx
	ja	.LBB0_1098
# %bb.1093:                             # %if.then9895
	jmpq	*.LJTI0_0(,%rcx,8)
.LBB0_1095:                             # %if.then10144
	movb	60397(%rbx), %al
	movl	%eax, %ecx
	andb	$1, %cl
	movb	%cl, 60334(%rbx)
	movl	%eax, %ecx
	shrb	$3, %cl
	andb	$1, %cl
	movb	%cl, 60331(%rbx)
	movl	%eax, %ecx
	shrb	$6, %cl
	andb	$1, %cl
	movb	%cl, 60328(%rbx)
	movl	%eax, %ecx
	shrb	$2, %cl
	andb	$1, %cl
	movb	%cl, 60332(%rbx)
	movl	%eax, %ecx
	shrb	%cl
	andb	$1, %cl
	movb	%cl, 60333(%rbx)
	shrb	$5, %al
	andb	$1, %al
	movb	%al, 60329(%rbx)
	jmp	.LBB0_1098
.LBB0_1096:                             # %if.then10185
	movb	60397(%rbx), %al
	movl	%eax, %ecx
	shrb	$5, %cl
	andb	$1, %cl
	movb	%cl, 60344(%rbx)
	movl	%eax, %ecx
	shrb	%cl
	andb	$1, %cl
	movb	%cl, 60348(%rbx)
	movl	%eax, %ecx
	shrb	$6, %cl
	andb	$1, %cl
	movb	%cl, 60343(%rbx)
	movl	%eax, %ecx
	shrb	$3, %cl
	andb	$1, %cl
	movb	%cl, 60346(%rbx)
	movl	%eax, %ecx
	shrb	$2, %cl
	andb	$1, %cl
	movb	%cl, 60347(%rbx)
	andb	$1, %al
	movb	%al, 60349(%rbx)
	jmp	.LBB0_1098
.LBB0_1097:                             # %if.then10217
	movb	60397(%rbx), %al
	movl	%eax, %ecx
	shrb	%cl
	andb	$1, %cl
	movb	%cl, 60363(%rbx)
	movl	%eax, %ecx
	shrb	$3, %cl
	andb	$1, %cl
	movb	%cl, 60361(%rbx)
	movl	%eax, %ecx
	shrb	$2, %cl
	andb	$1, %cl
	movb	%cl, 60362(%rbx)
	movl	%eax, %ecx
	shrb	$6, %cl
	andb	$1, %cl
	movb	%cl, 60358(%rbx)
	movl	%eax, %ecx
	shrb	$5, %cl
	andb	$1, %cl
	movb	%cl, 60359(%rbx)
	andb	$1, %al
	movb	%al, 60364(%rbx)
	jmp	.LBB0_1098
.LBB0_1094:                             # %if.then10074
	movb	60397(%rbx), %al
	movl	%eax, %ecx
	andb	$1, %cl
	movb	%cl, 60379(%rbx)
	movl	%eax, %ecx
	shrb	%cl
	andb	$1, %cl
	movb	%cl, 60378(%rbx)
	movl	%eax, %ecx
	shrb	$2, %cl
	andb	$1, %cl
	movb	%cl, 60377(%rbx)
	movl	%eax, %ecx
	shrb	$3, %cl
	andb	$1, %cl
	movb	%cl, 60376(%rbx)
	movl	%eax, %ecx
	shrb	$5, %cl
	andb	$1, %cl
	movb	%cl, 60374(%rbx)
	shrb	$6, %al
	andb	$1, %al
	movb	%al, 60373(%rbx)
.LBB0_1098:                             # %if.end10223
	movb	60408(%rbx), %r15b
	testb	%r15b, %r15b
	je	.LBB0_1105
# %bb.1099:                             # %if.then10225
	movzbl	46888(%rbx), %edi
	cmpq	$3, %rdi
	ja	.LBB0_1105
# %bb.1100:                             # %if.then10225
	jmpq	*.LJTI0_1(,%rdi,8)
.LBB0_1102:                             # %if.then10474
	movb	60517(%rbx), %al
	movl	%eax, %edx
	andb	$1, %dl
	movb	%dl, 60454(%rbx)
	movl	%eax, %edx
	shrb	$3, %dl
	andb	$1, %dl
	movb	%dl, 60451(%rbx)
	movl	%eax, %edx
	shrb	$6, %dl
	andb	$1, %dl
	movb	%dl, 60448(%rbx)
	movl	%eax, %edx
	shrb	$2, %dl
	andb	$1, %dl
	movb	%dl, 60452(%rbx)
	movl	%eax, %edx
	shrb	%dl
	andb	$1, %dl
	movb	%dl, 60453(%rbx)
	shrb	$5, %al
	andb	$1, %al
	movb	%al, 60449(%rbx)
	testb	%r10b, %r10b
	jne	.LBB0_1106
	jmp	.LBB0_1112
.LBB0_1103:                             # %if.then10515
	movb	60517(%rbx), %al
	movl	%eax, %edx
	shrb	$5, %dl
	andb	$1, %dl
	movb	%dl, 60464(%rbx)
	movl	%eax, %edx
	shrb	%dl
	andb	$1, %dl
	movb	%dl, 60468(%rbx)
	movl	%eax, %edx
	shrb	$6, %dl
	andb	$1, %dl
	movb	%dl, 60463(%rbx)
	movl	%eax, %edx
	shrb	$3, %dl
	andb	$1, %dl
	movb	%dl, 60466(%rbx)
	movl	%eax, %edx
	shrb	$2, %dl
	andb	$1, %dl
	movb	%dl, 60467(%rbx)
	andb	$1, %al
	movb	%al, 60469(%rbx)
	testb	%r10b, %r10b
	jne	.LBB0_1106
	jmp	.LBB0_1112
.LBB0_1104:                             # %if.then10547
	movb	60517(%rbx), %al
	movl	%eax, %edx
	shrb	%dl
	andb	$1, %dl
	movb	%dl, 60483(%rbx)
	movl	%eax, %edx
	shrb	$3, %dl
	andb	$1, %dl
	movb	%dl, 60481(%rbx)
	movl	%eax, %edx
	shrb	$2, %dl
	andb	$1, %dl
	movb	%dl, 60482(%rbx)
	movl	%eax, %edx
	shrb	$6, %dl
	andb	$1, %dl
	movb	%dl, 60478(%rbx)
	movl	%eax, %edx
	shrb	$5, %dl
	andb	$1, %dl
	movb	%dl, 60479(%rbx)
	andb	$1, %al
	movb	%al, 60484(%rbx)
.LBB0_1105:                             # %if.end10553
	testb	%r10b, %r10b
	je	.LBB0_1112
.LBB0_1106:                             # %if.then10556
	movzbl	46888(%rbx), %edi
	cmpq	$3, %rdi
	ja	.LBB0_1112
# %bb.1107:                             # %if.then10556
	jmpq	*.LJTI0_2(,%rdi,8)
.LBB0_1110:                             # %if.then10614thread-pre-split
	movzwl	46889(%rbx), %eax
	movw	%ax, 60338(%rbx)
	testb	%r15b, %r15b
	jne	.LBB0_1113
	jmp	.LBB0_1119
.LBB0_1101:                             # %if.then10404
	movb	60517(%rbx), %dl
	movl	%edx, %eax
	andb	$1, %al
	movb	%al, 60499(%rbx)
	movl	%edx, %eax
	shrb	%al
	andb	$1, %al
	movb	%al, 60498(%rbx)
	movl	%edx, %eax
	shrb	$2, %al
	andb	$1, %al
	movb	%al, 60497(%rbx)
	movl	%edx, %eax
	shrb	$3, %al
	andb	$1, %al
	movb	%al, 60496(%rbx)
	movl	%edx, %eax
	shrb	$5, %al
	andb	$1, %al
	movb	%al, 60494(%rbx)
	shrb	$6, %dl
	andb	$1, %dl
	movb	%dl, 60493(%rbx)
	testb	%r10b, %r10b
	jne	.LBB0_1106
	jmp	.LBB0_1112
.LBB0_1111:                             # %if.then10628
	movzwl	46889(%rbx), %eax
	movw	%ax, 60353(%rbx)
	testb	%r15b, %r15b
	jne	.LBB0_1113
	jmp	.LBB0_1119
.LBB0_1109:                             # %if.then10594thread-pre-split
	movzwl	46889(%rbx), %eax
	movw	%ax, 60368(%rbx)
.LBB0_1112:                             # %if.end10631
	testb	%r15b, %r15b
	je	.LBB0_1119
.LBB0_1113:                             # %if.then10634
	movzbl	46888(%rbx), %edi
	cmpq	$3, %rdi
	ja	.LBB0_1119
# %bb.1114:                             # %if.then10634
	jmpq	*.LJTI0_3(,%rdi,8)
.LBB0_1117:                             # %if.then10694thread-pre-split
	movzwl	46889(%rbx), %eax
	movw	%ax, 60458(%rbx)
	testb	%sil, %sil
	jne	.LBB0_2662
	jmp	.LBB0_1120
.LBB0_1108:                             # %if.then10584
	movzwl	46889(%rbx), %eax
	movw	%ax, 60383(%rbx)
	testb	%r15b, %r15b
	jne	.LBB0_1113
	jmp	.LBB0_1119
.LBB0_1118:                             # %if.then10708
	movzwl	46889(%rbx), %eax
	movw	%ax, 60473(%rbx)
	testb	%sil, %sil
	jne	.LBB0_2662
	jmp	.LBB0_1120
.LBB0_1116:                             # %if.then10674thread-pre-split
	movzwl	46889(%rbx), %eax
	movw	%ax, 60488(%rbx)
.LBB0_1119:                             # %if.end10711
	testb	%sil, %sil
	je	.LBB0_1120
.LBB0_2662:                             # %if.then10728
	movb	$0, 1497101(%rbx)
	xorl	%esi, %esi
	jmp	.LBB0_1124
.LBB0_1115:                             # %if.then10664
	movzwl	46889(%rbx), %eax
	movw	%ax, 60503(%rbx)
	testb	%sil, %sil
	jne	.LBB0_2662
.LBB0_1120:                             # %if.else10715
	cmpb	$0, 68157(%rbx)
	je	.LBB0_1122
# %bb.1121:                             # %if.then10718
	movb	68151(%rbx), %al
	notb	%al
	andb	$1, %al
	movb	%al, 1497101(%rbx)
.LBB0_1122:                             # %if.else10729
	cmpb	$0, 68194(%rbx)
	je	.LBB0_1125
# %bb.1123:                             # %if.then10732
	movb	68188(%rbx), %sil
	notb	%sil
	andb	$1, %sil
.LBB0_1124:                             # %if.end10739.sink.split
	movb	%sil, 1497149(%rbx)
.LBB0_1125:                             # %if.end10739
	movb	1558(%rbx), %al
	orb	1599(%rbx), %al
	testb	$1, %al
	jne	.LBB0_1127
# %bb.1126:                             # %if.then10776
	movzbl	1555(%rbx), %eax
	movq	277472(%rbx,%rax,8), %rdx
	movq	%rdx, 1503680(%rbx)
	movb	$1, 1492655(%rbx)
	movb	1594(%rbx), %dl
	movb	%dl, 1492654(%rbx)
	movb	277464(%rbx,%rax), %cl
	movb	%cl, 1492651(%rbx)
	movb	$1, 1492652(%rbx)
	movb	%dl, 1492650(%rbx)
	movb	277488(%rbx,%rax), %al
	movb	%al, 1492648(%rbx)
	movb	$1, 1492649(%rbx)
	movb	%dl, 1492647(%rbx)
.LBB0_1127:                             # %if.end10781
	movb	28575(%rbx), %r14b
	testb	%r14b, %r14b
	je	.LBB0_1129
# %bb.1128:                             # %if.then10791
	movb	165468(%rbx), %al
	movb	165492(%rbx), %cl
	shrb	$3, %cl
	andb	$1, %cl
	movb	%cl, 30905(%rbx)
	shrb	$5, %al
	andb	$1, %al
	movb	%al, 30904(%rbx)
.LBB0_1129:                             # %if.end10796
	testb	%r8b, %r8b
	je	.LBB0_1131
# %bb.1130:
	xorl	%esi, %esi
	jmp	.LBB0_1133
.LBB0_1131:                             # %if.else10800
	cmpb	$0, 1684(%rbx)
	je	.LBB0_1134
# %bb.1132:                             # %if.then10803
	movb	1678(%rbx), %sil
	notb	%sil
	andb	$1, %sil
.LBB0_1133:                             # %if.end10810.sink.split
	movb	%sil, 1492737(%rbx)
.LBB0_1134:                             # %if.end10810
	testb	%r10b, %r10b
	je	.LBB0_1141
# %bb.1135:                             # %if.then10813
	movzbl	46888(%rbx), %edx
	cmpq	$3, %rdx
	ja	.LBB0_1141
# %bb.1136:                             # %if.then10813
	jmpq	*.LJTI0_4(,%rdx,8)
.LBB0_1137:                             # %if.then10880
	movb	46891(%rbx), %al
	movb	46892(%rbx), %cl
	movb	%al, 60337(%rbx)
	movb	%cl, 60336(%rbx)
	movb	46893(%rbx), %al
	movb	%al, 60335(%rbx)
	jmp	.LBB0_1141
.LBB0_1139:                             # %if.then10910
	movb	46893(%rbx), %al
	movb	%al, 60350(%rbx)
	movb	46891(%rbx), %al
	movb	46892(%rbx), %cl
	movb	%cl, 60351(%rbx)
	movb	%al, 60352(%rbx)
	jmp	.LBB0_1141
.LBB0_1140:                             # %if.then10924
	movb	46891(%rbx), %al
	movb	46892(%rbx), %cl
	movb	%al, 60367(%rbx)
	movb	46893(%rbx), %al
	movb	%al, 60365(%rbx)
	movb	%cl, 60366(%rbx)
	jmp	.LBB0_1141
.LBB0_1138:                             # %if.then10900.thread
	movb	46891(%rbx), %al
	movb	46892(%rbx), %cl
	movb	%al, 60382(%rbx)
	movb	46893(%rbx), %al
	movb	%al, 60380(%rbx)
	movb	%cl, 60381(%rbx)
.LBB0_1141:                             # %if.end10927
	testb	%r15b, %r15b
	movb	5(%rsp), %dl            # 1-byte Reload
	je	.LBB0_1148
# %bb.1142:                             # %if.then10930
	movzbl	46888(%rbx), %ecx
	cmpq	$3, %rcx
	ja	.LBB0_1148
# %bb.1143:                             # %if.then10930
	jmpq	*.LJTI0_5(,%rcx,8)
.LBB0_1144:                             # %if.then11000
	movb	46891(%rbx), %al
	movb	46892(%rbx), %cl
	movb	%al, 60457(%rbx)
	movb	%cl, 60456(%rbx)
	movb	46893(%rbx), %al
	movb	%al, 60455(%rbx)
	testb	%r9b, %r9b
	jne	.LBB0_1149
	jmp	.LBB0_1150
.LBB0_1146:                             # %if.then11030
	movb	46893(%rbx), %al
	movb	%al, 60470(%rbx)
	movb	46891(%rbx), %al
	movb	46892(%rbx), %cl
	movb	%cl, 60471(%rbx)
	movb	%al, 60472(%rbx)
	testb	%r9b, %r9b
	jne	.LBB0_1149
	jmp	.LBB0_1150
.LBB0_1147:                             # %if.then11044
	movb	46891(%rbx), %al
	movb	46892(%rbx), %cl
	movb	%al, 60487(%rbx)
	movb	46893(%rbx), %al
	movb	%al, 60485(%rbx)
	movb	%cl, 60486(%rbx)
.LBB0_1148:                             # %if.end11047
	testb	%r9b, %r9b
	je	.LBB0_1150
.LBB0_1149:                             # %if.then11051
	movb	18970(%rbx), %al
	movb	18993(%rbx), %cl
	andb	24550(%rbx), %al
	andb	24551(%rbx), %cl
	orb	%al, %cl
	movb	%cl, 24478(%rbx)
.LBB0_1150:                             # %if.end11062
	testb	%r11b, %r11b
	je	.LBB0_1152
# %bb.1151:                             # %if.then11066
	movb	18970(%rbx), %al
	movb	18993(%rbx), %cl
	andb	24547(%rbx), %al
	andb	24548(%rbx), %cl
	orb	%al, %cl
	movb	%cl, 24461(%rbx)
.LBB0_1152:                             # %if.end11079
	testb	%bpl, %bpl
	je	.LBB0_1154
# %bb.1153:                             # %if.then11083
	movb	18970(%rbx), %al
	movb	18993(%rbx), %cl
	andb	24544(%rbx), %al
	andb	24545(%rbx), %cl
	orb	%al, %cl
	movb	%cl, 24444(%rbx)
.LBB0_1154:                             # %if.end11096
	cmpb	$0, 24543(%rbx)
	je	.LBB0_1156
# %bb.1155:                             # %if.then11099
	movb	18970(%rbx), %al
	movb	18993(%rbx), %cl
	andb	24541(%rbx), %al
	andb	24542(%rbx), %cl
	orb	%al, %cl
	movb	%cl, 24427(%rbx)
.LBB0_1156:                             # %if.end11110
	cmpb	$0, 24540(%rbx)
	je	.LBB0_1158
# %bb.1157:                             # %if.then11113
	movb	18970(%rbx), %al
	movb	18993(%rbx), %cl
	andb	24538(%rbx), %al
	andb	24539(%rbx), %cl
	orb	%al, %cl
	movb	%cl, 24410(%rbx)
.LBB0_1158:                             # %if.end11124
	cmpb	$0, 24537(%rbx)
	je	.LBB0_1160
# %bb.1159:                             # %if.then11127
	movb	18970(%rbx), %al
	movb	18993(%rbx), %cl
	andb	24535(%rbx), %al
	andb	24536(%rbx), %cl
	orb	%al, %cl
	movb	%cl, 24393(%rbx)
.LBB0_1160:                             # %if.end11138
	cmpb	$0, 24534(%rbx)
	je	.LBB0_1162
# %bb.1161:                             # %if.then11141
	movb	18970(%rbx), %al
	movb	18993(%rbx), %cl
	andb	24532(%rbx), %al
	andb	24533(%rbx), %cl
	orb	%al, %cl
	movb	%cl, 24376(%rbx)
.LBB0_1162:                             # %if.end11152
	cmpb	$0, 24528(%rbx)
	je	.LBB0_1164
# %bb.1163:                             # %if.then11155
	movb	18970(%rbx), %al
	movb	18993(%rbx), %cl
	andb	24526(%rbx), %al
	andb	24527(%rbx), %cl
	orb	%al, %cl
	movb	%cl, 24342(%rbx)
.LBB0_1164:                             # %if.end11166
	cmpb	$0, 24525(%rbx)
	je	.LBB0_1166
# %bb.1165:                             # %if.then11169
	movb	18970(%rbx), %al
	movb	18993(%rbx), %cl
	andb	24523(%rbx), %al
	andb	24524(%rbx), %cl
	orb	%al, %cl
	movb	%cl, 24325(%rbx)
.LBB0_1166:                             # %if.end11180
	cmpb	$0, 24513(%rbx)
	je	.LBB0_1168
# %bb.1167:                             # %if.then11183
	movb	18970(%rbx), %al
	movb	18993(%rbx), %cl
	andb	24511(%rbx), %al
	andb	24512(%rbx), %cl
	orb	%al, %cl
	movb	%cl, 24257(%rbx)
.LBB0_1168:                             # %if.end11194
	cmpb	$0, 24507(%rbx)
	je	.LBB0_1170
# %bb.1169:                             # %if.then11197
	movb	18970(%rbx), %al
	movb	18993(%rbx), %cl
	andb	24505(%rbx), %al
	andb	24506(%rbx), %cl
	orb	%al, %cl
	movb	%cl, 24223(%rbx)
.LBB0_1170:                             # %if.end11208
	cmpb	$0, 24519(%rbx)
	je	.LBB0_1172
# %bb.1171:                             # %if.then11211
	movb	18970(%rbx), %al
	movb	18993(%rbx), %cl
	andb	24517(%rbx), %al
	andb	24518(%rbx), %cl
	orb	%al, %cl
	movb	%cl, 24291(%rbx)
.LBB0_1172:                             # %if.end11222
	cmpb	$0, 24516(%rbx)
	je	.LBB0_1174
# %bb.1173:                             # %if.then11225
	movb	18970(%rbx), %al
	movb	18993(%rbx), %cl
	andb	24514(%rbx), %al
	andb	24515(%rbx), %cl
	orb	%al, %cl
	movb	%cl, 24274(%rbx)
.LBB0_1174:                             # %if.end11236
	cmpb	$0, 24522(%rbx)
	je	.LBB0_1176
# %bb.1175:                             # %if.then11239
	movb	18970(%rbx), %al
	movb	18993(%rbx), %cl
	andb	24520(%rbx), %al
	andb	24521(%rbx), %cl
	orb	%al, %cl
	movb	%cl, 24308(%rbx)
.LBB0_1176:                             # %if.end11250
	cmpb	$0, 24510(%rbx)
	je	.LBB0_1178
# %bb.1177:                             # %if.then11253
	movb	18970(%rbx), %al
	movb	18993(%rbx), %cl
	andb	24508(%rbx), %al
	andb	24509(%rbx), %cl
	orb	%al, %cl
	movb	%cl, 24240(%rbx)
.LBB0_1178:                             # %if.end11264
	cmpb	$0, 24531(%rbx)
	je	.LBB0_1180
# %bb.1179:                             # %if.then11267
	movb	18970(%rbx), %al
	movb	18993(%rbx), %cl
	andb	24529(%rbx), %al
	andb	24530(%rbx), %cl
	orb	%al, %cl
	movb	%cl, 24359(%rbx)
.LBB0_1180:                             # %if.end11278
	movb	70933(%rbx), %r9b
	testb	%r9b, %r9b
	je	.LBB0_1181
# %bb.2663:                             # %if.then11324
	movw	$0, 1492960(%rbx)
	movb	$0, 1492719(%rbx)
	xorl	%eax, %eax
	jmp	.LBB0_1189
.LBB0_1181:                             # %if.else11282
	cmpb	$0, 2083(%rbx)
	je	.LBB0_1183
# %bb.1182:                             # %if.then11285
	movb	2077(%rbx), %al
	notb	%al
	andb	$1, %al
	movb	%al, 1492961(%rbx)
.LBB0_1183:                             # %if.else11296
	cmpb	$0, 2084(%rbx)
	je	.LBB0_1185
# %bb.1184:                             # %if.then11299
	movb	2078(%rbx), %al
	notb	%al
	andb	$1, %al
	movb	%al, 1492960(%rbx)
.LBB0_1185:                             # %if.else11310
	cmpb	$0, 1665(%rbx)
	je	.LBB0_1187
# %bb.1186:                             # %if.then11313
	movb	1659(%rbx), %al
	notb	%al
	andb	$1, %al
	movb	%al, 1492719(%rbx)
.LBB0_1187:                             # %if.else11325
	cmpb	$0, 2184(%rbx)
	je	.LBB0_1190
# %bb.1188:                             # %if.then11328
	movb	2178(%rbx), %al
	notb	%al
	andb	$1, %al
.LBB0_1189:                             # %if.end11336.sink.split
	movb	%al, 1493083(%rbx)
.LBB0_1190:                             # %if.end11336
	movb	22210(%rbx), %r10b
	movb	%r10b, 22295(%rbx)
	movb	39685(%rbx), %r11b
	movb	%r11b, 39759(%rbx)
	movb	68356(%rbx), %r8b
	testb	%r8b, %r8b
	je	.LBB0_1192
# %bb.1191:
	xorl	%eax, %eax
	jmp	.LBB0_1194
.LBB0_1192:                             # %if.else11340
	cmpb	$0, 68317(%rbx)
	je	.LBB0_1195
# %bb.1193:                             # %if.then11343
	movb	68311(%rbx), %al
	notb	%al
	andb	$1, %al
.LBB0_1194:                             # %if.end11350.sink.split
	movb	%al, 1497324(%rbx)
.LBB0_1195:                             # %if.end11350
	testb	%dl, %dl
	je	.LBB0_1200
# %bb.1196:                             # %if.then11353
	movb	13010(%rbx), %al
	testb	$1, %al
	je	.LBB0_1198
# %bb.1197:                             # %if.then11357
	movb	13030(%rbx), %cl
	andb	$3, %cl
	movb	%cl, 1494178(%rbx)
	movb	$1, 1494179(%rbx)
	movb	$0, 1494177(%rbx)
	movzwl	73064(%rbx), %ecx
	movw	%cx, 1498044(%rbx)
.LBB0_1198:                             # %if.end11361
	testb	$2, %al
	je	.LBB0_1200
# %bb.1199:                             # %if.then11366
	movb	13030(%rbx), %al
	shrb	$2, %al
	andb	$3, %al
	movb	%al, 1494181(%rbx)
	movb	$1, 1494182(%rbx)
	movb	$2, 1494180(%rbx)
	movzwl	73064(%rbx), %eax
	movw	%ax, 1498046(%rbx)
.LBB0_1200:                             # %if.end11374
	testb	%r9b, %r9b
	je	.LBB0_1202
# %bb.1201:
	xorl	%eax, %eax
	jmp	.LBB0_1203
.LBB0_1202:                             # %if.else11378
	movb	697(%rbx), %al
	cmpb	698(%rbx), %al
	je	.LBB0_1204
.LBB0_1203:                             # %if.end11386.sink.split
	movb	%al, 693(%rbx)
.LBB0_1204:                             # %if.end11386
	movb	21324(%rbx), %r13b
	movb	21327(%rbx), %r15b
	movb	%r13b, 21424(%rbx)
	movb	%r15b, 21426(%rbx)
	testb	%r8b, %r8b
	je	.LBB0_1205
# %bb.2664:                             # %if.then11447
	movw	$0, 1497081(%rbx)
	movw	$0, 1497124(%rbx)
	xorl	%ecx, %ecx
	jmp	.LBB0_1215
.LBB0_1205:                             # %if.else11390
	cmpb	$0, 68140(%rbx)
	je	.LBB0_1207
# %bb.1206:                             # %if.then11393
	movb	68134(%rbx), %al
	notb	%al
	andb	$1, %al
	movb	%al, 1497082(%rbx)
.LBB0_1207:                             # %if.else11405
	cmpb	$0, 68139(%rbx)
	je	.LBB0_1209
# %bb.1208:                             # %if.then11408
	movb	68133(%rbx), %al
	notb	%al
	andb	$1, %al
	movb	%al, 1497081(%rbx)
.LBB0_1209:                             # %if.else11419
	cmpb	$0, 68177(%rbx)
	je	.LBB0_1211
# %bb.1210:                             # %if.then11422
	movb	68171(%rbx), %al
	notb	%al
	andb	$1, %al
	movb	%al, 1497125(%rbx)
.LBB0_1211:                             # %if.else11434
	cmpb	$0, 68176(%rbx)
	je	.LBB0_1213
# %bb.1212:                             # %if.then11437
	movb	68170(%rbx), %al
	notb	%al
	andb	$1, %al
	movb	%al, 1497124(%rbx)
.LBB0_1213:                             # %if.else11448
	cmpb	$0, 68318(%rbx)
	je	.LBB0_1216
# %bb.1214:                             # %if.then11451
	movb	68312(%rbx), %cl
	notb	%cl
	andb	$1, %cl
.LBB0_1215:                             # %if.end11458.sink.split
	movb	%cl, 1497330(%rbx)
.LBB0_1216:                             # %if.end11458
	cmpb	$0, 53269(%rbx)
	je	.LBB0_1218
# %bb.1217:                             # %if.then11460
	movb	53270(%rbx), %al
	movb	%al, 53320(%rbx)
.LBB0_1218:                             # %if.end11461
	testb	%r8b, %r8b
	je	.LBB0_1219
# %bb.2665:                             # %if.then11478
	movb	$0, 1497178(%rbx)
	xorl	%ecx, %ecx
	jmp	.LBB0_1223
.LBB0_1219:                             # %if.else11465
	cmpb	$0, 68220(%rbx)
	je	.LBB0_1221
# %bb.1220:                             # %if.then11468
	movb	68214(%rbx), %al
	notb	%al
	andb	$1, %al
	movb	%al, 1497178(%rbx)
.LBB0_1221:                             # %if.else11479
	cmpb	$0, 68221(%rbx)
	je	.LBB0_1224
# %bb.1222:                             # %if.then11482
	movb	68215(%rbx), %cl
	notb	%cl
	andb	$1, %cl
.LBB0_1223:                             # %if.end11490.sink.split
	movb	%cl, 1497175(%rbx)
.LBB0_1224:                             # %if.end11490
	testb	%r14b, %r14b
	je	.LBB0_1226
# %bb.1225:                             # %if.then11500
	movb	164716(%rbx), %al
	movb	164740(%rbx), %cl
	andb	$1, %al
	movb	%al, 28599(%rbx)
	andb	$1, %cl
	movb	%cl, 28600(%rbx)
.LBB0_1226:                             # %if.end11504
	testb	%r9b, %r9b
	je	.LBB0_1228
# %bb.1227:
	xorl	%ecx, %ecx
	jmp	.LBB0_1230
.LBB0_1228:                             # %if.else11508
	cmpb	$0, 1666(%rbx)
	je	.LBB0_1231
# %bb.1229:                             # %if.then11511
	movb	1660(%rbx), %cl
	notb	%cl
	andb	$1, %cl
.LBB0_1230:                             # %if.end11518.sink.split
	movb	%cl, 1492715(%rbx)
.LBB0_1231:                             # %if.end11518
	movb	936(%rbx), %al
	notb	%al
	testb	%al, 762(%rbx)
	je	.LBB0_1233
# %bb.1232:                             # %if.then11534
	movb	1371(%rbx), %al
	movb	1372(%rbx), %cl
	movb	%al, 1491749(%rbx)
	movb	$1, 1491750(%rbx)
	movb	%cl, 1491747(%rbx)
	movb	$1, 1491748(%rbx)
.LBB0_1233:                             # %if.end11536
	movb	939(%rbx), %al
	notb	%al
	testb	%al, 763(%rbx)
	je	.LBB0_1235
# %bb.1234:                             # %if.then11552
	movb	1371(%rbx), %al
	movb	1372(%rbx), %cl
	movb	%al, 1491753(%rbx)
	movb	$1, 1491754(%rbx)
	movb	%cl, 1491751(%rbx)
	movb	$1, 1491752(%rbx)
.LBB0_1235:                             # %if.end11554
	movb	942(%rbx), %al
	notb	%al
	testb	%al, 764(%rbx)
	je	.LBB0_1237
# %bb.1236:                             # %if.then11570
	movb	1371(%rbx), %al
	movb	1372(%rbx), %cl
	movb	%al, 1491757(%rbx)
	movb	$1, 1491758(%rbx)
	movb	%cl, 1491755(%rbx)
	movb	$1, 1491756(%rbx)
.LBB0_1237:                             # %if.end11572
	movb	945(%rbx), %al
	notb	%al
	testb	%al, 765(%rbx)
	je	.LBB0_1239
# %bb.1238:                             # %if.then11588
	movb	1371(%rbx), %al
	movb	1372(%rbx), %cl
	movb	%al, 1491761(%rbx)
	movb	$1, 1491762(%rbx)
	movb	%cl, 1491759(%rbx)
	movb	$1, 1491760(%rbx)
.LBB0_1239:                             # %if.end11590
	movb	948(%rbx), %al
	notb	%al
	testb	%al, 766(%rbx)
	je	.LBB0_1241
# %bb.1240:                             # %if.then11606
	movb	1371(%rbx), %al
	movb	1372(%rbx), %cl
	movb	%al, 1491765(%rbx)
	movb	$1, 1491766(%rbx)
	movb	%cl, 1491763(%rbx)
	movb	$1, 1491764(%rbx)
.LBB0_1241:                             # %if.end11608
	movb	951(%rbx), %al
	notb	%al
	testb	%al, 767(%rbx)
	je	.LBB0_1243
# %bb.1242:                             # %if.then11624
	movb	1371(%rbx), %al
	movb	1372(%rbx), %cl
	movb	%al, 1491769(%rbx)
	movb	$1, 1491770(%rbx)
	movb	%cl, 1491767(%rbx)
	movb	$1, 1491768(%rbx)
.LBB0_1243:                             # %if.end11626
	movb	954(%rbx), %al
	notb	%al
	testb	%al, 768(%rbx)
	je	.LBB0_1245
# %bb.1244:                             # %if.then11642
	movb	1371(%rbx), %al
	movb	1372(%rbx), %cl
	movb	%al, 1491773(%rbx)
	movb	$1, 1491774(%rbx)
	movb	%cl, 1491771(%rbx)
	movb	$1, 1491772(%rbx)
.LBB0_1245:                             # %if.end11644
	xorl	%eax, %eax
	cmpb	$0, 68866(%rbx)
	setne	%al
	movb	68867(%rbx,%rax,2), %r12b
	testb	%r12b, %r12b
	je	.LBB0_1247
# %bb.1246:                             # %if.then11656
	movb	$1, 1497450(%rbx)
	movb	68862(%rbx), %al
	movb	%al, 1497449(%rbx)
.LBB0_1247:                             # %if.end11657
	cmpb	$0, 44483(%rbx)
	je	.LBB0_1278
# %bb.1248:                             # %if.then11659
	testb	$2, 44411(%rbx)
	jne	.LBB0_1250
# %bb.1249:                             # %if.then11738.thread
	movl	$0, 177492(%rbx)
	xorl	%ebp, %ebp
	jmp	.LBB0_1277
.LBB0_1250:                             # %cond.true11663
	cmpb	$0, 44412(%rbx)
	je	.LBB0_1252
# %bb.1251:                             # %cond.true11666
	movl	177500(%rbx), %ebp
	jmp	.LBB0_1263
.LBB0_1145:                             # %if.then11020.thread
	movb	46891(%rbx), %al
	movb	46892(%rbx), %cl
	movb	%al, 60502(%rbx)
	movb	46893(%rbx), %al
	movb	%al, 60500(%rbx)
	movb	%cl, 60501(%rbx)
	testb	%r9b, %r9b
	jne	.LBB0_1149
	jmp	.LBB0_1150
.LBB0_1252:                             # %cond.false11667
	movb	44475(%rbx), %cl
	xorl	%ebp, %ebp
	movl	$0, %esi
	testb	$16, %cl
	je	.LBB0_1254
# %bb.1253:                             # %cond.true11671
	movl	$67108863, %eax         # imm = 0x3FFFFFF
	andl	177500(%rbx), %eax
	leal	2(,%rax,4), %esi
.LBB0_1254:                             # %cond.end11677
	testb	$8, %cl
	je	.LBB0_1256
# %bb.1255:                             # %cond.true11683
	movl	$67108863, %eax         # imm = 0x3FFFFFF
	andl	177500(%rbx), %eax
	leal	1(,%rax,4), %ebp
.LBB0_1256:                             # %cond.end11689
	orl	%esi, %ebp
	xorl	%esi, %esi
	movl	$0, %edi
	testb	$4, %cl
	je	.LBB0_1258
# %bb.1257:                             # %cond.true11696
	movl	177500(%rbx), %edi
	shll	$2, %edi
	andl	$268435452, %edi        # imm = 0xFFFFFFC
.LBB0_1258:                             # %cond.end11701
	orl	%edi, %ebp
	testb	$2, %cl
	je	.LBB0_1260
# %bb.1259:                             # %cond.true11708
	movl	$67108863, %eax         # imm = 0x3FFFFFF
	andl	177504(%rbx), %eax
	leal	3(,%rax,4), %esi
.LBB0_1260:                             # %cond.end11713
	orl	%esi, %ebp
	xorl	%eax, %eax
	testb	$1, %cl
	je	.LBB0_1262
# %bb.1261:                             # %cond.true11720
	movl	$67108863, %eax         # imm = 0x3FFFFFF
	andl	177504(%rbx), %eax
	leal	2(,%rax,4), %eax
.LBB0_1262:                             # %cond.end11726
	orl	%eax, %ebp
.LBB0_1263:                             # %cond.true11743
	andl	$67108863, %ebp         # imm = 0x3FFFFFF
	movl	%ebp, 177492(%rbx)
	cmpb	$0, 44412(%rbx)
	je	.LBB0_1265
# %bb.1264:                             # %cond.true11747
	movl	177504(%rbx), %ebp
	jmp	.LBB0_1276
.LBB0_1265:                             # %cond.false11749
	movb	44475(%rbx), %cl
	xorl	%ebp, %ebp
	movl	$0, %esi
	testb	$16, %cl
	je	.LBB0_1267
# %bb.1266:                             # %cond.true11754
	movl	$67108863, %eax         # imm = 0x3FFFFFF
	andl	177500(%rbx), %eax
	leal	1(,%rax,4), %esi
.LBB0_1267:                             # %cond.end11760
	testb	$8, %cl
	je	.LBB0_1269
# %bb.1268:                             # %cond.true11766
	movl	177500(%rbx), %ebp
	shll	$2, %ebp
	andl	$268435452, %ebp        # imm = 0xFFFFFFC
.LBB0_1269:                             # %cond.end11771
	orl	%esi, %ebp
	xorl	%esi, %esi
	movl	$0, %eax
	testb	$4, %cl
	je	.LBB0_1271
# %bb.1270:                             # %cond.true11778
	movl	$67108863, %eax         # imm = 0x3FFFFFF
	andl	177504(%rbx), %eax
	leal	3(,%rax,4), %eax
.LBB0_1271:                             # %cond.end11784
	orl	%eax, %ebp
	testb	$2, %cl
	je	.LBB0_1273
# %bb.1272:                             # %cond.true11791
	movl	$67108863, %eax         # imm = 0x3FFFFFF
	andl	177504(%rbx), %eax
	leal	2(,%rax,4), %esi
.LBB0_1273:                             # %cond.end11797
	orl	%esi, %ebp
	xorl	%eax, %eax
	testb	$1, %cl
	je	.LBB0_1275
# %bb.1274:                             # %cond.true11804
	movl	$67108863, %eax         # imm = 0x3FFFFFF
	andl	177504(%rbx), %eax
	leal	1(,%rax,4), %eax
.LBB0_1275:                             # %cond.end11810
	orl	%eax, %ebp
.LBB0_1276:                             # %cond.end11813
	andl	$67108863, %ebp         # imm = 0x3FFFFFF
.LBB0_1277:                             # %cond.end11817
	movl	%ebp, 177496(%rbx)
.LBB0_1278:                             # %if.end11819
	movb	22211(%rbx), %al
	movb	%al, 22289(%rbx)
	movb	%r10b, 22288(%rbx)
	movb	%r11b, 39753(%rbx)
	movb	39686(%rbx), %al
	movb	%al, 39754(%rbx)
	cmpb	$0, 67142(%rbx)
	je	.LBB0_1280
# %bb.1279:                             # %if.then11823
	movb	67058(%rbx), %al
	movb	%al, 67184(%rbx)
.LBB0_1280:                             # %if.end11824
	movb	303(%rbx), %al
	notb	%al
	testb	%al, 78(%rbx)
	je	.LBB0_1288
# %bb.1281:                             # %if.then11830
	xorl	%ecx, %ecx
	cmpb	$0, 417(%rbx)
	movl	$0, %ebp
	je	.LBB0_1283
# %bb.1282:                             # %cond.true11833
	movzbl	68980(%rbx), %ebp
	addl	%ebp, %ebp
.LBB0_1283:                             # %cond.end11837
	cmpb	$0, 418(%rbx)
	je	.LBB0_1287
# %bb.1284:                             # %cond.true11841
	movb	68957(%rbx), %dl
	movl	%edx, %eax
	orb	$1, %al
	movzbl	68959(%rbx), %ecx
	addl	%ecx, %ecx
	cmpb	$7, %al
	jne	.LBB0_1286
# %bb.1285:                             # %cond.true11851
	orl	$1, %ecx
	jmp	.LBB0_1287
.LBB0_1286:                             # %cond.false11855
	xorl	%eax, %eax
	cmpb	$2, %dl
	setb	%al
	orl	%eax, %ecx
.LBB0_1287:                             # %cond.end11872
	orl	%ebp, %ecx
	movb	%cl, 1491286(%rbx)
	movb	$1, 1491287(%rbx)
	movb	298(%rbx), %al
	movb	%al, 1491285(%rbx)
.LBB0_1288:                             # %if.end11877
	movb	%r15b, 21415(%rbx)
	movb	21325(%rbx), %al
	movb	%al, 21413(%rbx)
	movb	%r13b, 21412(%rbx)
	movb	21328(%rbx), %al
	movb	%al, 21416(%rbx)
	movb	580(%rbx), %dil
	notb	%dil
	andb	60(%rbx), %dil
	je	.LBB0_1290
# %bb.1289:                             # %if.then11885
	movb	2118(%rbx), %cl
	movb	%cl, 1491410(%rbx)
	movb	$1, 1491411(%rbx)
	movb	575(%rbx), %cl
	movb	%cl, 1491409(%rbx)
.LBB0_1290:                             # %if.end11887
	movb	1793(%rbx), %r10b
	notb	%r10b
	andb	59(%rbx), %r10b
	movabsq	$17179869183, %r13      # imm = 0x3FFFFFFFF
	je	.LBB0_1292
# %bb.1291:                             # %if.then11893
	movb	1788(%rbx), %dl
	movb	2118(%rbx), %al
	movb	%al, 1492850(%rbx)
	movb	$1, 1492851(%rbx)
	movb	%dl, 1492849(%rbx)
.LBB0_1292:                             # %if.end11896
	movb	3804(%rbx), %dl
	notb	%dl
	andb	50(%rbx), %dl
	je	.LBB0_1294
# %bb.1293:                             # %if.then11902
	movb	2118(%rbx), %al
	movb	%al, 1493350(%rbx)
	movb	$1, 1493351(%rbx)
	movb	3799(%rbx), %al
	movb	%al, 1493349(%rbx)
.LBB0_1294:                             # %if.end11905
	cmpb	$0, 68579(%rbx)
	je	.LBB0_1296
# %bb.1295:                             # %if.then11907
	movb	68971(%rbx), %al
	movb	%al, 70371(%rbx)
.LBB0_1296:                             # %if.end11908
	testb	%r9b, %r9b
	je	.LBB0_1297
# %bb.2666:                             # %if.then11926
	movb	$0, 1491371(%rbx)
	xorl	%esi, %esi
	jmp	.LBB0_1301
.LBB0_1297:                             # %if.else11912
	cmpb	$0, 558(%rbx)
	je	.LBB0_1299
# %bb.1298:                             # %if.then11915
	movb	552(%rbx), %al
	notb	%al
	andb	$1, %al
	movb	%al, 1491371(%rbx)
.LBB0_1299:                             # %if.else11927
	cmpb	$0, 557(%rbx)
	je	.LBB0_1302
# %bb.1300:                             # %if.then11930
	movb	551(%rbx), %sil
	notb	%sil
	andb	$1, %sil
.LBB0_1301:                             # %if.end11938.sink.split
	movb	%sil, 1491365(%rbx)
.LBB0_1302:                             # %if.end11938
	movb	834(%rbx), %al
	notb	%al
	testb	%al, 728(%rbx)
	je	.LBB0_1304
# %bb.1303:                             # %if.then11954
	movb	1371(%rbx), %al
	movb	1372(%rbx), %cl
	movb	%al, 1491613(%rbx)
	movb	$1, 1491614(%rbx)
	movb	%cl, 1491611(%rbx)
	movb	$1, 1491612(%rbx)
.LBB0_1304:                             # %if.end11956
	movb	837(%rbx), %al
	notb	%al
	testb	%al, 729(%rbx)
	je	.LBB0_1306
# %bb.1305:                             # %if.then11972
	movb	1371(%rbx), %al
	movb	1372(%rbx), %cl
	movb	%al, 1491617(%rbx)
	movb	$1, 1491618(%rbx)
	movb	%cl, 1491615(%rbx)
	movb	$1, 1491616(%rbx)
.LBB0_1306:                             # %if.end11974
	movb	840(%rbx), %al
	notb	%al
	testb	%al, 730(%rbx)
	je	.LBB0_1308
# %bb.1307:                             # %if.then11990
	movb	1371(%rbx), %al
	movb	1372(%rbx), %cl
	movb	%al, 1491621(%rbx)
	movb	$1, 1491622(%rbx)
	movb	%cl, 1491619(%rbx)
	movb	$1, 1491620(%rbx)
.LBB0_1308:                             # %if.end11992
	movb	843(%rbx), %al
	notb	%al
	testb	%al, 731(%rbx)
	je	.LBB0_1310
# %bb.1309:                             # %if.then12008
	movb	1371(%rbx), %al
	movb	1372(%rbx), %cl
	movb	%al, 1491625(%rbx)
	movb	$1, 1491626(%rbx)
	movb	%cl, 1491623(%rbx)
	movb	$1, 1491624(%rbx)
.LBB0_1310:                             # %if.end12010
	movb	846(%rbx), %al
	notb	%al
	testb	%al, 732(%rbx)
	je	.LBB0_1312
# %bb.1311:                             # %if.then12026
	movb	1371(%rbx), %al
	movb	1372(%rbx), %cl
	movb	%al, 1491629(%rbx)
	movb	$1, 1491630(%rbx)
	movb	%cl, 1491627(%rbx)
	movb	$1, 1491628(%rbx)
.LBB0_1312:                             # %if.end12028
	movb	849(%rbx), %al
	notb	%al
	testb	%al, 733(%rbx)
	je	.LBB0_1314
# %bb.1313:                             # %if.then12044
	movb	1371(%rbx), %al
	movb	1372(%rbx), %cl
	movb	%al, 1491633(%rbx)
	movb	$1, 1491634(%rbx)
	movb	%cl, 1491631(%rbx)
	movb	$1, 1491632(%rbx)
.LBB0_1314:                             # %if.end12046
	movb	852(%rbx), %al
	notb	%al
	testb	%al, 734(%rbx)
	je	.LBB0_1316
# %bb.1315:                             # %if.then12062
	movb	1371(%rbx), %al
	movb	1372(%rbx), %cl
	movb	%al, 1491637(%rbx)
	movb	$1, 1491638(%rbx)
	movb	%cl, 1491635(%rbx)
	movb	$1, 1491636(%rbx)
.LBB0_1316:                             # %if.end12064
	movb	$3, %sil
	testb	%r8b, %r8b
	jne	.LBB0_1319
# %bb.1317:                             # %if.else12068
	movzbl	68006(%rbx), %eax
	xorl	%ecx, %ecx
	cmpb	$0, 67958(%rbx)
	setne	%cl
	testl	%eax, %ecx
	je	.LBB0_1320
# %bb.1318:                             # %if.then12075
	movb	68007(%rbx), %al
	leal	(%rax,%rax), %esi
	andb	$2, %sil
	orb	%al, %sil
.LBB0_1319:                             # %if.end12085.sink.split
	movb	%sil, 67959(%rbx)
.LBB0_1320:                             # %if.end12085
	testb	%r9b, %r9b
	je	.LBB0_1321
# %bb.2667:                             # %if.then12117
	movb	$0, 1492593(%rbx)
	movb	$0, 1492589(%rbx)
	xorl	%esi, %esi
	jmp	.LBB0_1327
.LBB0_1321:                             # %if.else12089
	cmpb	$0, 1542(%rbx)
	je	.LBB0_1323
# %bb.1322:                             # %if.then12092
	movb	1536(%rbx), %al
	notb	%al
	andb	$1, %al
	movb	%al, 1492593(%rbx)
.LBB0_1323:                             # %if.else12103
	cmpb	$0, 1543(%rbx)
	je	.LBB0_1325
# %bb.1324:                             # %if.then12106
	movb	1537(%rbx), %al
	notb	%al
	andb	$1, %al
	movb	%al, 1492589(%rbx)
.LBB0_1325:                             # %if.else12118
	cmpb	$0, 2185(%rbx)
	je	.LBB0_1328
# %bb.1326:                             # %if.then12121
	movb	2179(%rbx), %sil
	notb	%sil
	andb	$1, %sil
.LBB0_1327:                             # %if.end12128.sink.split
	movb	%sil, 1493079(%rbx)
.LBB0_1328:                             # %if.end12128
	cmpb	$0, 58491(%rbx)
	je	.LBB0_1333
# %bb.1329:                             # %cond.true12131
	cmpb	$0, 58487(%rbx)
	je	.LBB0_1331
# %bb.1330:
	xorl	%esi, %esi
	jmp	.LBB0_1334
.LBB0_1333:                             # %cond.false12147
	movzbl	58507(%rbx), %eax
	testb	$12, %al
	setne	%cl
	addb	%cl, %cl
	testb	$10, %al
	setne	%sil
	orb	%cl, %sil
	jmp	.LBB0_1334
.LBB0_1331:                             # %cond.false12135
	movb	$1, %sil
	cmpb	$0, 58486(%rbx)
	jne	.LBB0_1334
# %bb.1332:                             # %cond.false12139
	cmpb	$0, 58485(%rbx)
	sete	%sil
	orb	$2, %sil
.LBB0_1334:                             # %cond.end12160
	movb	%sil, 58471(%rbx)
	cmpb	$1, 1942(%rbx)
	movq	%rbx, %rax
	adcq	$0, %rax
	cmpb	$0, 1944(%rax)
	je	.LBB0_1336
# %bb.1335:                             # %if.then12172
	movb	1840(%rbx), %al
	movb	%al, 1492890(%rbx)
	movb	$1, 1492891(%rbx)
.LBB0_1336:                             # %if.end12173
	movb	1646(%rbx), %al
	orb	1607(%rbx), %al
	testb	$1, %al
	jne	.LBB0_1338
# %bb.1337:                             # %if.then12195
	movzbl	1643(%rbx), %eax
	movb	277682(%rbx,%rax), %cl
	movb	%cl, 1492659(%rbx)
	movb	$1, 1492660(%rbx)
	movb	1602(%rbx), %cl
	movb	%cl, 1492658(%rbx)
	movl	277684(%rbx,%rax,4), %eax
	movl	%eax, 1500052(%rbx)
	movb	$1, 1492657(%rbx)
	movb	%cl, 1492656(%rbx)
.LBB0_1338:                             # %if.end12200
	movb	1671(%rbx), %al
	orb	1631(%rbx), %al
	testb	$1, %al
	jne	.LBB0_1340
# %bb.1339:                             # %if.then12237
	movzbl	1668(%rbx), %eax
	movb	277740(%rbx,%rax), %cl
	movb	%cl, 1492684(%rbx)
	movb	$1, 1492685(%rbx)
	movb	1626(%rbx), %cl
	movb	%cl, 1492683(%rbx)
	movl	277744(%rbx,%rax,4), %esi
	movl	%esi, 1500056(%rbx)
	movb	$1, 1492682(%rbx)
	movb	%cl, 1492681(%rbx)
	movb	277752(%rbx,%rax), %al
	movb	%al, 1492679(%rbx)
	movb	$1, 1492680(%rbx)
	movb	%cl, 1492678(%rbx)
.LBB0_1340:                             # %if.end12242
	testb	%r9b, %r9b
	je	.LBB0_1341
# %bb.2668:                             # %if.then12260
	movb	$0, 1492811(%rbx)
	xorl	%esi, %esi
	jmp	.LBB0_1345
.LBB0_1341:                             # %if.else12246
	cmpb	$0, 1771(%rbx)
	je	.LBB0_1343
# %bb.1342:                             # %if.then12249
	movb	1765(%rbx), %al
	notb	%al
	andb	$1, %al
	movb	%al, 1492811(%rbx)
.LBB0_1343:                             # %if.else12261
	cmpb	$0, 1770(%rbx)
	je	.LBB0_1346
# %bb.1344:                             # %if.then12264
	movb	1764(%rbx), %sil
	notb	%sil
	andb	$1, %sil
.LBB0_1345:                             # %if.end12272.sink.split
	movb	%sil, 1492805(%rbx)
.LBB0_1346:                             # %if.end12272
	testb	%r12b, %r12b
	je	.LBB0_1348
# %bb.1347:                             # %if.then12285
	movups	221968(%rbx), %xmm0
	movups	%xmm0, 1502936(%rbx)
	movdqu	221984(%rbx), %xmm0
	movdqu	%xmm0, 1502952(%rbx)
	movb	$1, 1497448(%rbx)
	movb	68862(%rbx), %al
	movb	%al, 1497447(%rbx)
.LBB0_1348:                             # %if.end12317
	cmpb	$0, 45290(%rbx)
	je	.LBB0_1352
# %bb.1349:                             # %if.then12319
	xorl	%esi, %esi
	testb	$1, 44414(%rbx)
	jne	.LBB0_1351
# %bb.1350:                             # %cond.false12324
	movl	$67108863, %esi         # imm = 0x3FFFFFF
	andl	177580(%rbx), %esi
.LBB0_1351:                             # %cond.end12326
	movl	%esi, 177572(%rbx)
.LBB0_1352:                             # %if.end12328
	testb	%dil, %dil
	je	.LBB0_1354
# %bb.1353:                             # %if.then12336
	movb	2115(%rbx), %al
	movb	%al, 1491422(%rbx)
	movb	$1, 1491423(%rbx)
	movb	575(%rbx), %al
	movb	%al, 1491421(%rbx)
.LBB0_1354:                             # %if.end12338
	testb	%r10b, %r10b
	je	.LBB0_1356
# %bb.1355:                             # %if.then12346
	movb	1788(%rbx), %al
	movb	2115(%rbx), %cl
	movb	%cl, 1492862(%rbx)
	movb	$1, 1492863(%rbx)
	movb	%al, 1492861(%rbx)
.LBB0_1356:                             # %if.end12349
	testb	%dl, %dl
	je	.LBB0_1358
# %bb.1357:                             # %if.then12357
	movb	2115(%rbx), %al
	movb	%al, 1493362(%rbx)
	movb	$1, 1493363(%rbx)
	movb	3799(%rbx), %al
	movb	%al, 1493361(%rbx)
.LBB0_1358:                             # %if.end12360
	testb	%r9b, %r9b
	je	.LBB0_1360
# %bb.1359:
	xorl	%eax, %eax
	jmp	.LBB0_1362
.LBB0_1360:                             # %if.else12364
	cmpb	$0, 2174(%rbx)
	je	.LBB0_1363
# %bb.1361:                             # %if.then12367
	movb	2168(%rbx), %al
	notb	%al
	andb	$1, %al
.LBB0_1362:                             # %if.end12375.sink.split
	movb	%al, 1493058(%rbx)
.LBB0_1363:                             # %if.end12375
	movb	903(%rbx), %al
	notb	%al
	testb	%al, 751(%rbx)
	je	.LBB0_1365
# %bb.1364:                             # %if.then12391
	movb	1371(%rbx), %al
	movb	1372(%rbx), %cl
	movb	%al, 1491705(%rbx)
	movb	$1, 1491706(%rbx)
	movb	%cl, 1491703(%rbx)
	movb	$1, 1491704(%rbx)
.LBB0_1365:                             # %if.end12393
	movb	906(%rbx), %al
	notb	%al
	testb	%al, 752(%rbx)
	je	.LBB0_1367
# %bb.1366:                             # %if.then12409
	movb	1371(%rbx), %al
	movb	1372(%rbx), %cl
	movb	%al, 1491709(%rbx)
	movb	$1, 1491710(%rbx)
	movb	%cl, 1491707(%rbx)
	movb	$1, 1491708(%rbx)
.LBB0_1367:                             # %if.end12411
	movb	909(%rbx), %al
	notb	%al
	testb	%al, 753(%rbx)
	je	.LBB0_1369
# %bb.1368:                             # %if.then12427
	movb	1371(%rbx), %al
	movb	1372(%rbx), %cl
	movb	%al, 1491713(%rbx)
	movb	$1, 1491714(%rbx)
	movb	%cl, 1491711(%rbx)
	movb	$1, 1491712(%rbx)
.LBB0_1369:                             # %if.end12429
	movb	912(%rbx), %al
	notb	%al
	testb	%al, 754(%rbx)
	je	.LBB0_1371
# %bb.1370:                             # %if.then12445
	movb	1371(%rbx), %al
	movb	1372(%rbx), %cl
	movb	%al, 1491717(%rbx)
	movb	$1, 1491718(%rbx)
	movb	%cl, 1491715(%rbx)
	movb	$1, 1491716(%rbx)
.LBB0_1371:                             # %if.end12447
	movb	915(%rbx), %al
	notb	%al
	testb	%al, 755(%rbx)
	je	.LBB0_1373
# %bb.1372:                             # %if.then12463
	movb	1371(%rbx), %al
	movb	1372(%rbx), %cl
	movb	%al, 1491721(%rbx)
	movb	$1, 1491722(%rbx)
	movb	%cl, 1491719(%rbx)
	movb	$1, 1491720(%rbx)
.LBB0_1373:                             # %if.end12465
	movb	918(%rbx), %al
	notb	%al
	testb	%al, 756(%rbx)
	je	.LBB0_1375
# %bb.1374:                             # %if.then12481
	movb	1371(%rbx), %al
	movb	1372(%rbx), %cl
	movb	%al, 1491725(%rbx)
	movb	$1, 1491726(%rbx)
	movb	%cl, 1491723(%rbx)
	movb	$1, 1491724(%rbx)
.LBB0_1375:                             # %if.end12483
	movb	921(%rbx), %al
	notb	%al
	testb	%al, 757(%rbx)
	je	.LBB0_1377
# %bb.1376:                             # %if.then12499
	movb	1371(%rbx), %al
	movb	1372(%rbx), %cl
	movb	%al, 1491729(%rbx)
	movb	$1, 1491730(%rbx)
	movb	%cl, 1491727(%rbx)
	movb	$1, 1491728(%rbx)
.LBB0_1377:                             # %if.end12501
	movb	924(%rbx), %al
	notb	%al
	testb	%al, 758(%rbx)
	je	.LBB0_1379
# %bb.1378:                             # %if.then12517
	movb	1371(%rbx), %al
	movb	1372(%rbx), %cl
	movb	%al, 1491733(%rbx)
	movb	$1, 1491734(%rbx)
	movb	%cl, 1491731(%rbx)
	movb	$1, 1491732(%rbx)
.LBB0_1379:                             # %if.end12519
	movb	927(%rbx), %al
	notb	%al
	testb	%al, 759(%rbx)
	je	.LBB0_1381
# %bb.1380:                             # %if.then12535
	movb	1371(%rbx), %al
	movb	1372(%rbx), %cl
	movb	%al, 1491737(%rbx)
	movb	$1, 1491738(%rbx)
	movb	%cl, 1491735(%rbx)
	movb	$1, 1491736(%rbx)
.LBB0_1381:                             # %if.end12537
	movb	930(%rbx), %al
	notb	%al
	testb	%al, 760(%rbx)
	je	.LBB0_1383
# %bb.1382:                             # %if.then12553
	movb	1371(%rbx), %al
	movb	1372(%rbx), %cl
	movb	%al, 1491741(%rbx)
	movb	$1, 1491742(%rbx)
	movb	%cl, 1491739(%rbx)
	movb	$1, 1491740(%rbx)
.LBB0_1383:                             # %if.end12555
	movb	933(%rbx), %al
	notb	%al
	testb	%al, 761(%rbx)
	je	.LBB0_1385
# %bb.1384:                             # %if.then12571
	movb	1371(%rbx), %al
	movb	1372(%rbx), %cl
	movb	%al, 1491745(%rbx)
	movb	$1, 1491746(%rbx)
	movb	%cl, 1491743(%rbx)
	movb	$1, 1491744(%rbx)
.LBB0_1385:                             # %if.end12573
	cmpb	$15, 51960(%rbx)
	seta	%al
	shlb	$2, %al
	movzbl	52030(%rbx), %ecx
	testb	$12, %cl
	setne	%dl
	addb	%dl, %dl
	testb	$10, %cl
	setne	%cl
	orb	%al, %cl
	orb	%dl, %cl
	movb	%cl, 52031(%rbx)
	movb	2173(%rbx), %al
	notb	%al
	testb	%al, 71(%rbx)
	je	.LBB0_1387
# %bb.1386:                             # %if.then12627
	movzbl	70900(%rbx), %eax
	movb	1010232(%rbx,%rax), %cl
	movb	%cl, 1493074(%rbx)
	movb	$1, 1493075(%rbx)
	movb	2168(%rbx), %cl
	movb	%cl, 1493073(%rbx)
	movb	1010236(%rbx,%rax), %dl
	movb	%dl, 1493066(%rbx)
	movb	$1, 1493067(%rbx)
	movb	%cl, 1493065(%rbx)
	movb	1010226(%rbx,%rax), %al
	movb	%al, 1493053(%rbx)
	movb	$1, 1493054(%rbx)
	movb	%cl, 1493052(%rbx)
.LBB0_1387:                             # %if.end12632
	testb	%r9b, %r9b
	je	.LBB0_1389
# %bb.1388:
	xorl	%eax, %eax
	jmp	.LBB0_1391
.LBB0_1389:                             # %if.else12636
	testb	$1, 263(%rbx)
	jne	.LBB0_1392
# %bb.1390:                             # %if.then12641
	movb	271(%rbx), %al
.LBB0_1391:                             # %if.end12644.sink.split
	movb	%al, 274(%rbx)
.LBB0_1392:                             # %if.end12644
	movb	68856(%rbx), %al
	testb	%al, 68855(%rbx)
	je	.LBB0_1394
# %bb.1393:                             # %if.then12739
	movb	454870(%rbx), %al
	movb	%al, 1497445(%rbx)
	movb	$1, 1497446(%rbx)
	movb	454869(%rbx), %al
	movb	%al, 1497443(%rbx)
	movb	$1, 1497444(%rbx)
	movb	454860(%rbx), %al
	movb	%al, 1497441(%rbx)
	movb	$1, 1497442(%rbx)
	movb	454857(%rbx), %al
	movb	454859(%rbx), %cl
	movb	%cl, 1497439(%rbx)
	movb	$1, 1497440(%rbx)
	movb	%al, 1497433(%rbx)
	movb	$1, 1497434(%rbx)
	movzwl	454862(%rbx), %eax
	movw	%ax, 1498104(%rbx)
	movb	$1, 1497432(%rbx)
	movb	454864(%rbx), %al
	movb	%al, 1497430(%rbx)
	movb	$1, 1497431(%rbx)
	movb	454865(%rbx), %al
	movb	454866(%rbx), %cl
	movb	%al, 1497428(%rbx)
	movb	$1, 1497429(%rbx)
	movb	%cl, 1497426(%rbx)
	movb	$1, 1497427(%rbx)
	movb	454867(%rbx), %al
	movb	%al, 1497424(%rbx)
	movb	$1, 1497425(%rbx)
	movb	454868(%rbx), %al
	movb	%al, 1497422(%rbx)
	movb	$1, 1497423(%rbx)
.LBB0_1394:                             # %if.end12741
	testb	%r14b, %r14b
	je	.LBB0_1396
# %bb.1395:                             # %if.then12753
	movb	165468(%rbx), %al
	movb	165492(%rbx), %cl
	shrb	$2, %cl
	andb	$1, %cl
	movb	%cl, 30903(%rbx)
	shrb	$4, %al
	andb	$1, %al
	movb	%al, 30902(%rbx)
.LBB0_1396:                             # %if.end12759
	testb	%r9b, %r9b
	je	.LBB0_1397
# %bb.2669:                             # %if.then12777
	movb	$0, 1492611(%rbx)
	xorl	%eax, %eax
	jmp	.LBB0_1401
.LBB0_1397:                             # %if.else12763
	cmpb	$0, 1561(%rbx)
	je	.LBB0_1399
# %bb.1398:                             # %if.then12766
	movb	1555(%rbx), %al
	notb	%al
	andb	$1, %al
	movb	%al, 1492611(%rbx)
.LBB0_1399:                             # %if.else12778
	cmpb	$0, 1560(%rbx)
	je	.LBB0_1402
# %bb.1400:                             # %if.then12781
	movb	1554(%rbx), %al
	notb	%al
	andb	$1, %al
.LBB0_1401:                             # %if.end12789.sink.split
	movb	%al, 1492604(%rbx)
.LBB0_1402:                             # %if.end12789
	cmpb	$0, 4067(%rbx)
	je	.LBB0_1404
# %bb.1403:                             # %if.then12791
	movb	4066(%rbx), %al
	movb	%al, 4069(%rbx)
.LBB0_1404:                             # %if.end12792
	testb	%r9b, %r9b
	je	.LBB0_1405
# %bb.2670:                             # %if.then12866
	movb	$0, 1831(%rbx)
	movb	$0, 1493243(%rbx)
	movb	$0, 1493236(%rbx)
	movb	$0, 1530(%rbx)
	movb	68358(%rbx), %sil
	movb	70448(%rbx), %al
	orb	%sil, %al
	movb	%al, 70409(%rbx)
	xorl	%eax, %eax
	jmp	.LBB0_1418
.LBB0_1405:                             # %if.else12796
	cmpb	$0, 1830(%rbx)
	je	.LBB0_1410
# %bb.1406:                             # %if.then12798
	cmpb	$0, 1833(%rbx)
	je	.LBB0_1408
# %bb.1407:                             # %cond.true12801
	movb	65(%rbx), %cl
	movl	$63, %eax
	shll	%cl, %eax
	movzbl	64(%rbx), %ecx
	shrl	$5, %eax
	notl	%eax
	andl	%ecx, %eax
	jmp	.LBB0_1409
.LBB0_795:                              # %cond.true8218
	leaq	71114(%rbx), %rax
	jmp	.LBB0_797
.LBB0_793:                              # %if.then8205
	movb	71113(%rbx), %al
	testb	%al, 71110(%rbx)
	je	.LBB0_798
# %bb.794:                              # %if.then8211
	movb	$0, 1497809(%rbx)
	jmp	.LBB0_798
.LBB0_796:                              # %cond.false8220
	leaq	71115(%rbx), %rax
.LBB0_797:                              # %cond.end8222
	movb	(%rax), %al
	movb	%al, 1497809(%rbx)
.LBB0_798:                              # %if.else8232
	movzbl	71008(%rbx), %eax
	movzwl	230496(%rbx), %ecx
	xorl	%edx, %edx
	testl	$8191, %ecx             # imm = 0x1FFF
	sete	%dl
	testl	%eax, %edx
	je	.LBB0_805
# %bb.799:                              # %if.then8241
	movl	230548(%rbx), %eax
	andl	$63, %eax
	cmpl	$1, %eax
	je	.LBB0_800
# %bb.801:                              # %if.then8241
	cmpl	$2, %eax
	jne	.LBB0_802
# %bb.803:                              # %cond.end8253.fold.split
	movl	$1, %eax
	jmp	.LBB0_804
.LBB0_1408:                             # %cond.false12809
	movzbl	1832(%rbx), %eax
.LBB0_1409:                             # %cond.end12811
	andb	$1, %al
	movb	%al, 1831(%rbx)
.LBB0_1410:                             # %if.else12821
	cmpb	$0, 3687(%rbx)
	je	.LBB0_1412
# %bb.1411:                             # %if.then12824
	movb	3681(%rbx), %al
	notb	%al
	andb	$1, %al
	movb	%al, 1493243(%rbx)
.LBB0_1412:                             # %if.else12835
	cmpb	$0, 3686(%rbx)
	je	.LBB0_1414
# %bb.1413:                             # %if.then12838
	movb	3680(%rbx), %al
	notb	%al
	andb	$1, %al
	movb	%al, 1493236(%rbx)
.LBB0_1414:                             # %if.else12850
	movb	1534(%rbx), %al
	cmpb	1535(%rbx), %al
	je	.LBB0_1416
# %bb.1415:                             # %if.then12854
	movb	%al, 1530(%rbx)
.LBB0_1416:                             # %if.else12867
	movb	68358(%rbx), %sil
	movb	70448(%rbx), %al
	orb	%sil, %al
	movb	%al, 70409(%rbx)
	testb	$1, 263(%rbx)
	jne	.LBB0_1419
# %bb.1417:                             # %if.then12873
	movb	272(%rbx), %al
.LBB0_1418:                             # %if.end12876.sink.split
	movb	%al, 276(%rbx)
.LBB0_1419:                             # %if.end12876
	testb	%sil, %sil
	je	.LBB0_1421
# %bb.1420:
	xorl	%eax, %eax
	jmp	.LBB0_1422
.LBB0_1421:                             # %if.else12880
	movb	69006(%rbx), %cl
	movb	69008(%rbx), %al
	notb	%cl
	andb	$1, %cl
	cmpb	%cl, %al
	je	.LBB0_1423
.LBB0_1422:                             # %if.end12891.sink.split
	movb	%al, 69004(%rbx)
.LBB0_1423:                             # %if.end12891
	movb	801(%rbx), %al
	notb	%al
	testb	%al, 717(%rbx)
	je	.LBB0_1425
# %bb.1424:                             # %if.then12907
	movb	1371(%rbx), %al
	movb	1372(%rbx), %cl
	movb	%al, 1491569(%rbx)
	movb	$1, 1491570(%rbx)
	movb	%cl, 1491567(%rbx)
	movb	$1, 1491568(%rbx)
.LBB0_1425:                             # %if.end12909
	movb	804(%rbx), %al
	notb	%al
	testb	%al, 718(%rbx)
	je	.LBB0_1427
# %bb.1426:                             # %if.then12925
	movb	1371(%rbx), %al
	movb	1372(%rbx), %cl
	movb	%al, 1491573(%rbx)
	movb	$1, 1491574(%rbx)
	movb	%cl, 1491571(%rbx)
	movb	$1, 1491572(%rbx)
.LBB0_1427:                             # %if.end12927
	movb	807(%rbx), %al
	notb	%al
	testb	%al, 719(%rbx)
	je	.LBB0_1429
# %bb.1428:                             # %if.then12943
	movb	1371(%rbx), %al
	movb	1372(%rbx), %cl
	movb	%al, 1491577(%rbx)
	movb	$1, 1491578(%rbx)
	movb	%cl, 1491575(%rbx)
	movb	$1, 1491576(%rbx)
.LBB0_1429:                             # %if.end12945
	movb	810(%rbx), %al
	notb	%al
	testb	%al, 720(%rbx)
	je	.LBB0_1431
# %bb.1430:                             # %if.then12961
	movb	1371(%rbx), %al
	movb	1372(%rbx), %cl
	movb	%al, 1491581(%rbx)
	movb	$1, 1491582(%rbx)
	movb	%cl, 1491579(%rbx)
	movb	$1, 1491580(%rbx)
.LBB0_1431:                             # %if.end12963
	movb	813(%rbx), %al
	notb	%al
	testb	%al, 721(%rbx)
	je	.LBB0_1433
# %bb.1432:                             # %if.then12979
	movb	1371(%rbx), %al
	movb	1372(%rbx), %cl
	movb	%al, 1491585(%rbx)
	movb	$1, 1491586(%rbx)
	movb	%cl, 1491583(%rbx)
	movb	$1, 1491584(%rbx)
.LBB0_1433:                             # %if.end12981
	movb	816(%rbx), %al
	notb	%al
	testb	%al, 722(%rbx)
	je	.LBB0_1435
# %bb.1434:                             # %if.then12997
	movb	1371(%rbx), %al
	movb	1372(%rbx), %cl
	movb	%al, 1491589(%rbx)
	movb	$1, 1491590(%rbx)
	movb	%cl, 1491587(%rbx)
	movb	$1, 1491588(%rbx)
.LBB0_1435:                             # %if.end12999
	movb	819(%rbx), %al
	notb	%al
	testb	%al, 723(%rbx)
	je	.LBB0_1437
# %bb.1436:                             # %if.then13015
	movb	1371(%rbx), %al
	movb	1372(%rbx), %cl
	movb	%al, 1491593(%rbx)
	movb	$1, 1491594(%rbx)
	movb	%cl, 1491591(%rbx)
	movb	$1, 1491592(%rbx)
.LBB0_1437:                             # %if.end13017
	movb	822(%rbx), %al
	notb	%al
	testb	%al, 724(%rbx)
	je	.LBB0_1439
# %bb.1438:                             # %if.then13033
	movb	1371(%rbx), %al
	movb	1372(%rbx), %cl
	movb	%al, 1491597(%rbx)
	movb	$1, 1491598(%rbx)
	movb	%cl, 1491595(%rbx)
	movb	$1, 1491596(%rbx)
.LBB0_1439:                             # %if.end13035
	movb	825(%rbx), %al
	notb	%al
	testb	%al, 725(%rbx)
	je	.LBB0_1441
# %bb.1440:                             # %if.then13051
	movb	1371(%rbx), %al
	movb	1372(%rbx), %cl
	movb	%al, 1491601(%rbx)
	movb	$1, 1491602(%rbx)
	movb	%cl, 1491599(%rbx)
	movb	$1, 1491600(%rbx)
.LBB0_1441:                             # %if.end13053
	movb	828(%rbx), %al
	notb	%al
	testb	%al, 726(%rbx)
	je	.LBB0_1443
# %bb.1442:                             # %if.then13069
	movb	1371(%rbx), %al
	movb	1372(%rbx), %cl
	movb	%al, 1491605(%rbx)
	movb	$1, 1491606(%rbx)
	movb	%cl, 1491603(%rbx)
	movb	$1, 1491604(%rbx)
.LBB0_1443:                             # %if.end13071
	movb	831(%rbx), %al
	notb	%al
	testb	%al, 727(%rbx)
	je	.LBB0_1445
# %bb.1444:                             # %if.then13087
	movb	1371(%rbx), %al
	movb	1372(%rbx), %cl
	movb	%al, 1491609(%rbx)
	movb	$1, 1491610(%rbx)
	movb	%cl, 1491607(%rbx)
	movb	$1, 1491608(%rbx)
.LBB0_1445:                             # %if.end13089
	movb	70547(%rbx), %al
	orb	%sil, %al
	movb	%al, 70503(%rbx)
	movb	1681(%rbx), %dil
	orb	1709(%rbx), %dil
	testb	$1, %dil
	jne	.LBB0_1447
# %bb.1446:                             # %if.then13113
	movb	1675(%rbx), %al
	movb	1676(%rbx), %cl
	movb	%al, 1492768(%rbx)
	movb	$1, 1492769(%rbx)
	movb	1704(%rbx), %al
	movb	%al, 1492767(%rbx)
	movb	%cl, 1492757(%rbx)
	movb	$1, 1492758(%rbx)
	movb	%al, 1492756(%rbx)
.LBB0_1447:                             # %if.end13115
	testb	%sil, %sil
	je	.LBB0_1449
# %bb.1448:
	xorl	%eax, %eax
	jmp	.LBB0_1451
.LBB0_1449:                             # %if.else13119
	cmpb	$0, 70729(%rbx)
	je	.LBB0_1452
# %bb.1450:                             # %if.then13121
	movzbl	70728(%rbx), %eax
	testb	$7, %al
	setne	%cl
	shlb	$3, %cl
	testb	$3, %al
	setne	%dl
	shlb	$2, %dl
	addb	%al, %al
	andb	$2, %al
	orb	%dl, %al
	orb	%cl, %al
.LBB0_1451:                             # %if.end13142.sink.split
	movb	%al, 70724(%rbx)
.LBB0_1452:                             # %if.end13142
	testb	%r8b, %r8b
	je	.LBB0_1454
# %bb.1453:
	xorl	%eax, %eax
	jmp	.LBB0_1455
.LBB0_1454:                             # %if.else13146
	movb	68266(%rbx), %al
	cmpb	68267(%rbx), %al
	je	.LBB0_1456
.LBB0_1455:                             # %if.end13154.sink.split
	movb	%al, 68262(%rbx)
.LBB0_1456:                             # %if.end13154
	cmpb	$0, 10843(%rbx)
	je	.LBB0_1457
# %bb.2671:                             # %if.then13378
	movq	$0, 11006(%rbx)
	movl	$0, 11014(%rbx)
	movw	$0, 11018(%rbx)
	movb	$0, 11020(%rbx)
	xorl	%eax, %eax
	jmp	.LBB0_1473
.LBB0_1457:                             # %if.else13157
	cmpb	$0, 11005(%rbx)
	je	.LBB0_1459
# %bb.1458:                             # %if.then13172
	movb	71508(%rbx), %al
	movl	%eax, %ecx
	andb	$1, %cl
	movb	%cl, 11006(%rbx)
	shrb	%al
	andb	$1, %al
	movb	%al, 11007(%rbx)
.LBB0_1459:                             # %if.else13184
	cmpb	$0, 11005(%rbx)
	je	.LBB0_1461
# %bb.1460:                             # %if.then13202
	movb	71508(%rbx), %al
	movl	%eax, %ecx
	shrb	$2, %cl
	andb	$1, %cl
	movb	%cl, 11008(%rbx)
	shrb	$3, %al
	andb	$1, %al
	movb	%al, 11009(%rbx)
.LBB0_1461:                             # %if.else13214
	cmpb	$0, 11005(%rbx)
	je	.LBB0_1463
# %bb.1462:                             # %if.then13232
	movb	71508(%rbx), %al
	movl	%eax, %ecx
	shrb	$4, %cl
	andb	$1, %cl
	movb	%cl, 11010(%rbx)
	shrb	$5, %al
	andb	$1, %al
	movb	%al, 11011(%rbx)
.LBB0_1463:                             # %if.else13244
	cmpb	$0, 11005(%rbx)
	je	.LBB0_1465
# %bb.1464:                             # %if.then13262
	movb	71508(%rbx), %al
	movl	%eax, %ecx
	shrb	$6, %cl
	andb	$1, %cl
	movb	%cl, 11012(%rbx)
	shrb	$7, %al
	movb	%al, 11013(%rbx)
.LBB0_1465:                             # %if.else13274
	cmpb	$0, 11005(%rbx)
	je	.LBB0_1467
# %bb.1466:                             # %if.then13292
	movzwl	71508(%rbx), %eax
	movl	%eax, %ecx
	shrl	$8, %ecx
	andb	$1, %cl
	movb	%cl, 11014(%rbx)
	shrl	$9, %eax
	andb	$1, %al
	movb	%al, 11015(%rbx)
.LBB0_1467:                             # %if.else13304
	cmpb	$0, 11005(%rbx)
	je	.LBB0_1469
# %bb.1468:                             # %if.then13322
	movzwl	71508(%rbx), %eax
	movl	%eax, %ecx
	shrl	$10, %ecx
	andb	$1, %cl
	movb	%cl, 11016(%rbx)
	shrl	$11, %eax
	andb	$1, %al
	movb	%al, 11017(%rbx)
.LBB0_1469:                             # %if.else13334
	cmpb	$0, 11005(%rbx)
	je	.LBB0_1471
# %bb.1470:                             # %if.then13352
	movzwl	71508(%rbx), %eax
	movl	%eax, %ecx
	shrl	$12, %ecx
	andb	$1, %cl
	movb	%cl, 11018(%rbx)
	shrl	$13, %eax
	andb	$1, %al
	movb	%al, 11019(%rbx)
.LBB0_1471:                             # %if.else13364
	cmpb	$0, 11005(%rbx)
	je	.LBB0_1474
# %bb.1472:                             # %if.then13382
	movzwl	71508(%rbx), %eax
	movl	%eax, %ecx
	shrl	$14, %ecx
	andb	$1, %cl
	movb	%cl, 11020(%rbx)
	shrl	$15, %eax
.LBB0_1473:                             # %if.end13390.sink.split
	movb	%al, 11021(%rbx)
.LBB0_1474:                             # %if.end13390
	cmpb	$0, 11384(%rbx)
	je	.LBB0_1475
# %bb.2672:                             # %if.then13614
	movq	$0, 11547(%rbx)
	movl	$0, 11555(%rbx)
	movw	$0, 11559(%rbx)
	movb	$0, 11561(%rbx)
	xorl	%eax, %eax
	jmp	.LBB0_1491
.LBB0_1475:                             # %if.else13393
	cmpb	$0, 11546(%rbx)
	je	.LBB0_1477
# %bb.1476:                             # %if.then13408
	movb	71898(%rbx), %al
	movl	%eax, %ecx
	andb	$1, %cl
	movb	%cl, 11547(%rbx)
	shrb	%al
	andb	$1, %al
	movb	%al, 11548(%rbx)
.LBB0_1477:                             # %if.else13420
	cmpb	$0, 11546(%rbx)
	je	.LBB0_1479
# %bb.1478:                             # %if.then13438
	movb	71898(%rbx), %al
	movl	%eax, %ecx
	shrb	$2, %cl
	andb	$1, %cl
	movb	%cl, 11549(%rbx)
	shrb	$3, %al
	andb	$1, %al
	movb	%al, 11550(%rbx)
.LBB0_1479:                             # %if.else13450
	cmpb	$0, 11546(%rbx)
	je	.LBB0_1481
# %bb.1480:                             # %if.then13468
	movb	71898(%rbx), %al
	movl	%eax, %ecx
	shrb	$4, %cl
	andb	$1, %cl
	movb	%cl, 11551(%rbx)
	shrb	$5, %al
	andb	$1, %al
	movb	%al, 11552(%rbx)
.LBB0_1481:                             # %if.else13480
	cmpb	$0, 11546(%rbx)
	je	.LBB0_1483
# %bb.1482:                             # %if.then13498
	movb	71898(%rbx), %al
	movl	%eax, %ecx
	shrb	$6, %cl
	andb	$1, %cl
	movb	%cl, 11553(%rbx)
	shrb	$7, %al
	movb	%al, 11554(%rbx)
.LBB0_1483:                             # %if.else13510
	cmpb	$0, 11546(%rbx)
	je	.LBB0_1485
# %bb.1484:                             # %if.then13528
	movzwl	71898(%rbx), %eax
	movl	%eax, %ecx
	shrl	$8, %ecx
	andb	$1, %cl
	movb	%cl, 11555(%rbx)
	shrl	$9, %eax
	andb	$1, %al
	movb	%al, 11556(%rbx)
.LBB0_1485:                             # %if.else13540
	cmpb	$0, 11546(%rbx)
	je	.LBB0_1487
# %bb.1486:                             # %if.then13558
	movzwl	71898(%rbx), %eax
	movl	%eax, %ecx
	shrl	$10, %ecx
	andb	$1, %cl
	movb	%cl, 11557(%rbx)
	shrl	$11, %eax
	andb	$1, %al
	movb	%al, 11558(%rbx)
.LBB0_1487:                             # %if.else13570
	cmpb	$0, 11546(%rbx)
	je	.LBB0_1489
# %bb.1488:                             # %if.then13588
	movzwl	71898(%rbx), %eax
	movl	%eax, %ecx
	shrl	$12, %ecx
	andb	$1, %cl
	movb	%cl, 11559(%rbx)
	shrl	$13, %eax
	andb	$1, %al
	movb	%al, 11560(%rbx)
.LBB0_1489:                             # %if.else13600
	cmpb	$0, 11546(%rbx)
	je	.LBB0_1492
# %bb.1490:                             # %if.then13618
	movzwl	71898(%rbx), %eax
	movl	%eax, %ecx
	shrl	$14, %ecx
	andb	$1, %cl
	movb	%cl, 11561(%rbx)
	shrl	$15, %eax
.LBB0_1491:                             # %if.end13626.sink.split
	movb	%al, 11562(%rbx)
.LBB0_1492:                             # %if.end13626
	cmpb	$0, 11925(%rbx)
	je	.LBB0_1493
# %bb.2673:                             # %if.then13850
	movq	$0, 12088(%rbx)
	movl	$0, 12096(%rbx)
	movw	$0, 12100(%rbx)
	movb	$0, 12102(%rbx)
	xorl	%eax, %eax
	jmp	.LBB0_1509
.LBB0_1493:                             # %if.else13629
	cmpb	$0, 12087(%rbx)
	je	.LBB0_1495
# %bb.1494:                             # %if.then13644
	movb	72288(%rbx), %al
	movl	%eax, %ecx
	andb	$1, %cl
	movb	%cl, 12088(%rbx)
	shrb	%al
	andb	$1, %al
	movb	%al, 12089(%rbx)
.LBB0_1495:                             # %if.else13656
	cmpb	$0, 12087(%rbx)
	je	.LBB0_1497
# %bb.1496:                             # %if.then13674
	movb	72288(%rbx), %al
	movl	%eax, %ecx
	shrb	$2, %cl
	andb	$1, %cl
	movb	%cl, 12090(%rbx)
	shrb	$3, %al
	andb	$1, %al
	movb	%al, 12091(%rbx)
